 test_sfun

 Timestamp is 539ad2d9 (Fri Jun 13 12:30:49 2014)

 Preferred load address is 0000000180000000

 Start         Length     Name                   Class
 0001:00000000 0007978eH .text                   CODE
 0001:00079790 0000007bH .text$x                 CODE
 0002:00000000 000004a0H .idata$5                DATA
 0002:000004a0 00000008H .CRT$XCA                DATA
 0002:000004a8 00000008H .CRT$XCZ                DATA
 0002:000004b0 00000008H .CRT$XIA                DATA
 0002:000004b8 00000008H .CRT$XIAA               DATA
 0002:000004c0 00000008H .CRT$XIC                DATA
 0002:000004c8 00000008H .CRT$XIZ                DATA
 0002:000004d0 00004cb0H .rdata                  DATA
 0002:00005180 00000008H .rtc$IAA                DATA
 0002:00005188 00000008H .rtc$IZZ                DATA
 0002:00005190 00000008H .rtc$TAA                DATA
 0002:00005198 00000008H .rtc$TZZ                DATA
 0002:000051a0 00004c34H .xdata                  DATA
 0002:00009dd4 000000a0H .idata$2                DATA
 0002:00009e74 00000014H .idata$3                DATA
 0002:00009e88 000004a0H .idata$4                DATA
 0002:0000a328 00000af6H .idata$6                DATA
 0002:0000ae20 0000004fH .edata                  DATA
 0003:00000000 00013318H .data                   DATA
 0003:00013320 00002558H .bss                    DATA
 0004:00000000 00003d80H .pdata                  DATA

  Address         Publics by Value              Rva+Base               Lib:Object

 0000:00000000       ___safe_se_handler_table   0000000000000000     <absolute>
 0000:00000000       ___safe_se_handler_count   0000000000000000     <absolute>
 0000:00000000       __ImageBase                0000000180000000     <linker-defined>
 0001:00000000       sf_c1_test_get_eml_resolved_functions_info 0000000180001000 f   c1_test.obj
 0001:00000440       sf_c1_test_get_check_sum   0000000180001440 f   c1_test.obj
 0001:00000510       c1_test_method_dispatcher  0000000180001510 f   c1_test.obj
 0001:0000c350       sf_c1_test_get_autoinheritance_info 000000018000d350 f   c1_test.obj
 0001:0000cb60       sf_c1_test_third_party_uses_info 000000018000db60 f   c1_test.obj
 0001:0000d980       sf_internal_get_sim_state_c1_test 000000018000e980 f   c1_test.obj
 0001:0000dad0       sf_internal_set_sim_state_c1_test 000000018000ead0 f   c1_test.obj
 0001:0000e630       sf_c2_test_get_eml_resolved_functions_info 000000018000f630 f   c2_test.obj
 0001:0000ea80       sf_c2_test_get_check_sum   000000018000fa80 f   c2_test.obj
 0001:0000eb50       c2_test_method_dispatcher  000000018000fb50 f   c2_test.obj
 0001:00020200       sf_c2_test_get_autoinheritance_info 0000000180021200 f   c2_test.obj
 0001:00021200       sf_c2_test_third_party_uses_info 0000000180022200 f   c2_test.obj
 0001:00022ab0       sf_internal_get_sim_state_c2_test 0000000180023ab0 f   c2_test.obj
 0001:00022c00       sf_internal_set_sim_state_c2_test 0000000180023c00 f   c2_test.obj
 0001:000238d0       sf_c3_test_get_eml_resolved_functions_info 00000001800248d0 f   c3_test.obj
 0001:00023d00       sf_c3_test_get_check_sum   0000000180024d00 f   c3_test.obj
 0001:00023dd0       c3_test_method_dispatcher  0000000180024dd0 f   c3_test.obj
 0001:00028e60       sf_c3_test_get_autoinheritance_info 0000000180029e60 f   c3_test.obj
 0001:000293c0       sf_c3_test_third_party_uses_info 000000018002a3c0 f   c3_test.obj
 0001:0002a170       sf_internal_get_sim_state_c3_test 000000018002b170 f   c3_test.obj
 0001:0002a2c0       sf_internal_set_sim_state_c3_test 000000018002b2c0 f   c3_test.obj
 0001:0002ada0       sf_c4_test_get_eml_resolved_functions_info 000000018002bda0 f   c4_test.obj
 0001:0002b1d0       sf_c4_test_get_check_sum   000000018002c1d0 f   c4_test.obj
 0001:0002b2a0       c4_test_method_dispatcher  000000018002c2a0 f   c4_test.obj
 0001:0002fa00       sf_c4_test_get_autoinheritance_info 0000000180030a00 f   c4_test.obj
 0001:00030b60       sf_c4_test_third_party_uses_info 0000000180031b60 f   c4_test.obj
 0001:00032480       sf_internal_get_sim_state_c4_test 0000000180033480 f   c4_test.obj
 0001:000325d0       sf_internal_set_sim_state_c4_test 00000001800335d0 f   c4_test.obj
 0001:000332a0       sf_c5_test_get_eml_resolved_functions_info 00000001800342a0 f   c5_test.obj
 0001:000336d0       sf_c5_test_get_check_sum   00000001800346d0 f   c5_test.obj
 0001:000337a0       c5_test_method_dispatcher  00000001800347a0 f   c5_test.obj
 0001:0003b710       sf_c5_test_get_autoinheritance_info 000000018003c710 f   c5_test.obj
 0001:0003c1c0       sf_c5_test_third_party_uses_info 000000018003d1c0 f   c5_test.obj
 0001:0003d5c0       sf_internal_get_sim_state_c5_test 000000018003e5c0 f   c5_test.obj
 0001:0003d710       sf_internal_set_sim_state_c5_test 000000018003e710 f   c5_test.obj
 0001:0003e1f0       sf_c6_test_get_eml_resolved_functions_info 000000018003f1f0 f   c6_test.obj
 0001:0003ef20       sf_c6_test_get_check_sum   000000018003ff20 f   c6_test.obj
 0001:0003eff0       c6_test_method_dispatcher  000000018003fff0 f   c6_test.obj
 0001:000438f0       sf_c6_test_get_autoinheritance_info 00000001800448f0 f   c6_test.obj
 0001:000444f0       sf_c6_test_third_party_uses_info 00000001800454f0 f   c6_test.obj
 0001:00045be0       sf_internal_get_sim_state_c6_test 0000000180046be0 f   c6_test.obj
 0001:00045d30       sf_internal_set_sim_state_c6_test 0000000180046d30 f   c6_test.obj
 0001:00046910       mexFunction                0000000180047910 f   test_sfun_registry.obj
 0001:00047ab0       _ssSetInputPortDirectFeedThroughFcn 0000000180048ab0 f   test_sfun_registry.obj
 0001:00047c10       _ssGetInputPortSignalPtrsFcn 0000000180048c10 f   test_sfun_registry.obj
 0001:00047e30       _ssGetInputPortSignalFcn   0000000180048e30 f   test_sfun_registry.obj
 0001:00048050       _ssSetInputPortReusableFcn 0000000180049050 f   test_sfun_registry.obj
 0001:00048130       _ssSetOutputPortReusableFcn 0000000180049130 f   test_sfun_registry.obj
 0001:00048210       ssGetIsZeroCrossControlDisabled 0000000180049210 f   test_sfun_registry.obj
 0001:00048280       ssSetIsInputPortUsedForContZcSignal 0000000180049280 f   test_sfun_registry.obj
 0001:000482f0       ssSetZcSignalIsZcElementDisc 00000001800492f0 f   test_sfun_registry.obj
 0001:000483a0       ssSetZcSignalName          00000001800493a0 f   test_sfun_registry.obj
 0001:00048410       ssSetZcSignalWidth         0000000180049410 f   test_sfun_registry.obj
 0001:00048480       ssSetZcSignalZcEventType   0000000180049480 f   test_sfun_registry.obj
 0001:000484f0       ssSetZcSignalType          00000001800494f0 f   test_sfun_registry.obj
 0001:00048560       ssSetZcSignalZcTol         0000000180049560 f   test_sfun_registry.obj
 0001:000485d0       ssSetZcSignalNeedsEventNotification 00000001800495d0 f   test_sfun_registry.obj
 0001:00048640       ssCreateAndAddZcSignalInfo 0000000180049640 f   test_sfun_registry.obj
 0001:000486b0       ssCloneAndAddZcSignalInfo  00000001800496b0 f   test_sfun_registry.obj
 0001:00048720       ssGetNumZcSignals          0000000180049720 f   test_sfun_registry.obj
 0001:00048790       ssGetZcSignalVector        0000000180049790 f   test_sfun_registry.obj
 0001:00048800       ssGetZcSignalName          0000000180049800 f   test_sfun_registry.obj
 0001:00048870       ssGetZcSignalWidth         0000000180049870 f   test_sfun_registry.obj
 0001:000488e0       ssGetZcSignalZcEventType   00000001800498e0 f   test_sfun_registry.obj
 0001:00048950       ssGetZcSignalZcEvents      0000000180049950 f   test_sfun_registry.obj
 0001:000489c0       ssGetZcSignalType          00000001800499c0 f   test_sfun_registry.obj
 0001:00048a30       ssGetZcSignalZcTol         0000000180049a30 f   test_sfun_registry.obj
 0001:00048ab0       ssGetZcSignalNeedsEventNotification 0000000180049ab0 f   test_sfun_registry.obj
 0001:00048b20       ssGetZcSignalIsZcElementDisc 0000000180049b20 f   test_sfun_registry.obj
 0001:00048bc0       ssGetIsInputPortElementContinuous 0000000180049bc0 f   test_sfun_registry.obj
 0001:00048c60       ssGetDTypeIdFromMxArray    0000000180049c60 f   test_sfun_registry.obj
 0001:00048d80       ssWriteRTWStr              0000000180049d80 f   test_sfun_registry.obj
 0001:00048de0       ssWriteRTWNameValuePair    0000000180049de0 f   test_sfun_registry.obj
 0001:000492e0       ssWriteRTWParamSettings    000000018004a2e0 f   test_sfun_registry.obj
 0001:000499d0       ssWriteRTWParameters       000000018004a9d0 f   test_sfun_registry.obj
 0001:00049fa0       ssWriteRTWWorkVect         000000018004afa0 f   test_sfun_registry.obj
 0001:0004a490       ssWriteRTWMxVectParam      000000018004b490 f   test_sfun_registry.obj
 0001:0004a510       ssWriteRTWMx2dMatParam     000000018004b510 f   test_sfun_registry.obj
 0001:0004a5a0       _ssSetInputPortMatrixDimensions 000000018004b5a0 f   test_sfun_registry.obj
 0001:0004a6a0       _ssSetOutputPortMatrixDimensions 000000018004b6a0 f   test_sfun_registry.obj
 0001:0004a7a0       _ssSetInputPortVectorDimension 000000018004b7a0 f   test_sfun_registry.obj
 0001:0004a850       _ssSetOutputPortVectorDimension 000000018004b850 f   test_sfun_registry.obj
 0001:0004a900       ssIsRunTimeParamTunable    000000018004b900 f   test_sfun_registry.obj
 0001:0004a970       ssGetSFuncBlockHandle      000000018004b970 f   test_sfun_registry.obj
 0001:0004a9e0       _ssGetCurrentInputPortWidth 000000018004b9e0 f   test_sfun_registry.obj
 0001:0004ab00       _ssGetCurrentOutputPortWidth 000000018004bb00 f   test_sfun_registry.obj
 0001:0004ac20       _ssGetCallSystemNumFcnCallDestinations 000000018004bc20 f   test_sfun_registry.obj
 0001:0004ac90       ssWarning                  000000018004bc90 f   test_sfun_registry.obj
 0001:0004ad80       _ssGetAbsTol               000000018004bd80 f   test_sfun_registry.obj
 0001:0004adf0       _ssSetStateAbsTol          000000018004bdf0 f   test_sfun_registry.obj
 0001:0004aed0       sf_process_check_sum_call  000000018004bed0 f   test_sfun_registry.obj
 0001:0004af20       sf_process_autoinheritance_call 000000018004bf20 f   test_sfun_registry.obj
 0001:0004b150       sf_process_get_third_party_uses_info_call 000000018004c150 f   test_sfun_registry.obj
 0001:0004b380       sf_process_get_eml_resolved_functions_info_call 000000018004c380 f   test_sfun_registry.obj
 0001:0004b580       sf_mex_unlock_call         000000018004c580 f   test_sfun_registry.obj
 0001:0004b7d0       sf_machine_global_initializer_called 000000018004c7d0 f   test_sfun_registry.obj
 0001:0004b800       sf_machine_global_method_dispatcher 000000018004c800 f   test_sfun_registry.obj
 0001:0004b860       sf_machine_global_terminator 000000018004c860 f   test_sfun_registry.obj
 0001:0004b8b0       sf_register_machine_exported_symbols 000000018004c8b0 f   test_sfun_registry.obj
 0001:0004b8d0       callCustomFcn              000000018004c8d0 f   test_sfun_registry.obj
 0001:0004b8e0       sf_machine_global_initializer 000000018004c8e0 f   test_sfun_registry.obj
 0001:0004b960       ProcessMexSfunctionEveryCall 000000018004c960 f   test_sfun_registry.obj
 0001:0004c5d0       test_initializer           000000018004d5d0 f   test_sfun.obj
 0001:0004c5e0       test_terminator            000000018004d5e0 f   test_sfun.obj
 0001:0004c5f0       load_test_optimization_info 000000018004d5f0 f   test_sfun.obj
 0001:0004c640       unload_test_optimization_info 000000018004d640 f   test_sfun.obj
 0001:0004c670       sf_test_method_dispatcher  000000018004d670 f   test_sfun.obj
 0001:0004c760       sf_test_process_check_sum_call 000000018004d760 f   test_sfun.obj
 0001:0004ce70       sf_test_autoinheritance_info 000000018004de70 f   test_sfun.obj
 0001:0004d260       sf_test_get_eml_resolved_functions_info 000000018004e260 f   test_sfun.obj
 0001:0004d530       sf_test_third_party_uses_info 000000018004e530 f   test_sfun.obj
 0001:0004d840       test_debug_initialize      000000018004e840 f   test_sfun.obj
 0001:0004d8c0       test_register_exported_symbols 000000018004e8c0 f   test_sfun.obj
 0001:0004d8d0       sf_send_message_wrapper    000000018004e8d0 f   sfc_mex:sfc_sf.obj
 0001:0004d900       sf_receive_message_wrapper 000000018004e900 f   sfc_mex:sfc_sf.obj
 0001:0004d940       sf_check_out_message_wrapper 000000018004e940 f   sfc_mex:sfc_sf.obj
 0001:0004d980       sf_check_in_message_wrapper 000000018004e980 f   sfc_mex:sfc_sf.obj
 0001:0004d9c0       sf_no_message_wrapper      000000018004e9c0 f   sfc_mex:sfc_sf.obj
 0001:0004dd50       sim_mode_is_rtw_gen        000000018004ed50 f   sfc_mex:sfc_sf.obj
 0001:0004dd80       sim_mode_is_external       000000018004ed80 f   sfc_mex:sfc_sf.obj
 0001:0004dd90       sim_mode_is_modelref_sim   000000018004ed90 f   sfc_mex:sfc_sf.obj
 0001:0004ddb0       mdlInitializeSizes         000000018004edb0 f   sfc_mex:sfc_sf.obj
 0001:0004ddd0       mdlInitializeSampleTimes   000000018004edd0 f   sfc_mex:sfc_sf.obj
 0001:0004de10       mdlZeroCrossings           000000018004ee10 f   sfc_mex:sfc_sf.obj
 0001:0004df00       mdlDerivatives             000000018004ef00 f   sfc_mex:sfc_sf.obj
 0001:0004dfc0       mdl_initialize_conditions_processing 000000018004efc0 f   sfc_mex:sfc_sf.obj
 0001:0004dff0       mdlInitializeConditions    000000018004eff0 f   sfc_mex:sfc_sf.obj
 0001:0004e0b0       mdlGetSimState             000000018004f0b0 f   sfc_mex:sfc_sf.obj
 0001:0004e0c0       mdlSetSimState             000000018004f0c0 f   sfc_mex:sfc_sf.obj
 0001:0004e0d0       mdl_ext_mode_exec_processing 000000018004f0d0 f   sfc_mex:sfc_sf.obj
 0001:0004e0f0       mdlExtModeExec             000000018004f0f0 f   sfc_mex:sfc_sf.obj
 0001:0004e290       mdlTerminate               000000018004f290 f   sfc_mex:sfc_sf.obj
 0001:0004e300       mdlRTW                     000000018004f300 f   sfc_mex:sfc_sf.obj
 0001:0004e330       mdlSetWorkWidths           000000018004f330 f   sfc_mex:sfc_sf.obj
 0001:0004e340       mdlProcessParameters       000000018004f340 f   sfc_mex:sfc_sf.obj
 0001:0004e350       mdl_start_processing       000000018004f350 f   sfc_mex:sfc_sf.obj
 0001:0004e3b0       mdlStart                   000000018004f3b0 f   sfc_mex:sfc_sf.obj
 0001:0004e4c0       mdlEnable                  000000018004f4c0 f   sfc_mex:sfc_sf.obj
 0001:0004e5a0       mdlDisable                 000000018004f5a0 f   sfc_mex:sfc_sf.obj
 0001:0004e660       sf_get_chart_instance_ptr  000000018004f660 f   sfc_mex:sfc_sf.obj
 0001:0004e680       sf_load_rtw_optimization_info 000000018004f680 f   sfc_mex:sfc_sf.obj
 0001:0004e750       sf_update_buildInfo        000000018004f750 f   sfc_mex:sfc_sf.obj
 0001:0004e850       sf_rtw_info_uint_prop      000000018004f850 f   sfc_mex:sfc_sf.obj
 0001:0004e990       sf_is_chart_inlinable      000000018004f990 f   sfc_mex:sfc_sf.obj
 0001:0004e9b0       sf_mark_output_events_with_multiple_callers 000000018004f9b0 f   sfc_mex:sfc_sf.obj
 0001:0004eb40       sf_mark_chart_reusable_outputs 000000018004fb40 f   sfc_mex:sfc_sf.obj
 0001:0004eda0       sf_mark_chart_expressionable_inputs 000000018004fda0 f   sfc_mex:sfc_sf.obj
 0001:0004f000       sf_get_subchart_simstruct  0000000180050000 f   sfc_mex:sfc_sf.obj
 0001:0004f050       sf_get_fixpt_data_type_id  0000000180050050 f   sfc_mex:sfc_sf.obj
 0001:0004f090       sf_get_enum_data_type_id   0000000180050090 f   sfc_mex:sfc_sf.obj
 0001:0004f0d0       sf_get_param_data_type_id  00000001800500d0 f   sfc_mex:sfc_sf.obj
 0001:0004f100       sf_mex_listen_for_ctrl_c_force 0000000180050100 f   sfc_mex:sfc_sf.obj
 0001:0004f210       sf_mex_draw_now            0000000180050210 f   sfc_mex:sfc_sf.obj
 0001:0004f250       sf_mex_set_debugger_sim_status_listener_fcn 0000000180050250 f   sfc_mex:sfc_sf.obj
 0001:0004f260       sf_mex_listen_for_ctrl_c   0000000180050260 f   sfc_mex:sfc_sf.obj
 0001:0004f300       sf_mex_get_sfun_param      0000000180050300 f   sfc_mex:sfc_sf.obj
 0001:0004f350       sf_get_runtime_param_data  0000000180050350 f   sfc_mex:sfc_sf.obj
 0001:0004f390       sf_call_output_fcn_call    0000000180050390 f   sfc_mex:sfc_sf.obj
 0001:0004f4d0       sf_call_output_fcn_enable  00000001800504d0 f   sfc_mex:sfc_sf.obj
 0001:0004f560       sf_call_output_fcn_disable 0000000180050560 f   sfc_mex:sfc_sf.obj
 0001:0004f5f0       sf_clear_rtw_identifier    00000001800505f0 f   sfc_mex:sfc_sf.obj
 0001:0004fe10       sf_set_encoded_dwork_info  0000000180050e10 f   sfc_mex:sfc_sf.obj
 0001:0004fe60       sf_get_dwork_info_from_mat_file 0000000180050e60 f   sfc_mex:sfc_sf.obj
 0001:00050020       sf_set_rtw_dwork_info      0000000180051020 f   sfc_mex:sfc_sf.obj
 0001:00050190       mdlOutputs                 0000000180051190 f   sfc_mex:sfc_sf.obj
 0001:00050380       sf_mex_mx_is_numeric       0000000180051380 f   sfc_mex:sfc_mex.obj
 0001:000503c0       strcmp_ignore_ws           00000001800513c0 f   sfc_mex:sfc_mex.obj
 0001:00050500       sf_mex_duplicatearraysafe  0000000180051500 f   sfc_mex:sfc_mex.obj
 0001:00050660       sf_set_error_debugger_context_message_fcn 0000000180051660 f   sfc_mex:sfc_mex.obj
 0001:00050670       sf_set_debugger_matlab_error_fcn 0000000180051670 f   sfc_mex:sfc_mex.obj
 0001:000506b0       sf_set_error_prefix_string 00000001800516b0 f   sfc_mex:sfc_mex.obj
 0001:000506e0       sf_get_error_prefix_string 00000001800516e0 f   sfc_mex:sfc_mex.obj
 0001:000506f0       sf_mex_enter_parallel_region 00000001800516f0 f   sfc_mex:sfc_mex.obj
 0001:00050700       sf_mex_exit_parallel_region 0000000180051700 f   sfc_mex:sfc_mex.obj
 0001:00050710       sf_get_current_jmp_buf_ptr 0000000180051710 f   sfc_mex:sfc_mex.obj
 0001:00050720       sf_set_current_jmp_buf_ptr 0000000180051720 f   sfc_mex:sfc_mex.obj
 0001:00050730       sf_mex_set_halt_simulation 0000000180051730 f   sfc_mex:sfc_mex.obj
 0001:00050740       sf_mex_get_halt_simulation 0000000180051740 f   sfc_mex:sfc_mex.obj
 0001:00050750       sf_mex_clear_error_message 0000000180051750 f   sfc_mex:sfc_mex.obj
 0001:00050770       sf_mex_get_error_message_for_read 0000000180051770 f   sfc_mex:sfc_mex.obj
 0001:00050780       sf_mex_get_error_message_buffer_length 0000000180051780 f   sfc_mex:sfc_mex.obj
 0001:00050860       sf_mex_warning_message     0000000180051860 f   sfc_mex:sfc_mex.obj
 0001:000508d0       sf_mex_v_errbuf_createf    00000001800518d0 f   sfc_mex:sfc_mex.obj
 0001:000508e0       sf_mex_errbuf_createf      00000001800518e0 f   sfc_mex:sfc_mex.obj
 0001:00050910       sf_mex_v_errbuf_catf       0000000180051910 f   sfc_mex:sfc_mex.obj
 0001:00050950       sf_mex_errbuf_catf         0000000180051950 f   sfc_mex:sfc_mex.obj
 0001:000509a0       sf_mex_errbuf_copy         00000001800519a0 f   sfc_mex:sfc_mex.obj
 0001:000509b0       sf_mex_errbuf_clear        00000001800519b0 f   sfc_mex:sfc_mex.obj
 0001:000509c0       sf_mex_errbuf_isempty      00000001800519c0 f   sfc_mex:sfc_mex.obj
 0001:00050ac0       sf_mex_set_error_status    0000000180051ac0 f   sfc_mex:sfc_mex.obj
 0001:00050b10       sf_mex_error_direct_call   0000000180051b10 f   sfc_mex:sfc_mex.obj
 0001:00050b30       sf_mex_error_message_no_long_jump 0000000180051b30 f   sfc_mex:sfc_mex.obj
 0001:00050b50       sf_mex_long_jump_on_error  0000000180051b50 f   sfc_mex:sfc_mex.obj
 0001:00050b80       sf_mex_call_matlab         0000000180051b80 f   sfc_mex:sfc_mex.obj
 0001:00050ca0       sf_mex_check_builtin       0000000180051ca0 f   sfc_mex:sfc_mex.obj
 0001:00050d40       sf_mex_check_builtin_vs    0000000180051d40 f   sfc_mex:sfc_mex.obj
 0001:00050e00       sf_mex_check_enum          0000000180051e00 f   sfc_mex:sfc_mex.obj
 0001:00050e80       sf_mex_create_enum         0000000180051e80 f   sfc_mex:sfc_mex.obj
 0001:00050ef0       sf_mex_get_enum_element    0000000180051ef0 f   sfc_mex:sfc_mex.obj
 0001:00050f00       sf_mex_createcellarray     0000000180051f00 f   sfc_mex:sfc_mex.obj
 0001:00050f10       sf_mex_setcell             0000000180051f10 f   sfc_mex:sfc_mex.obj
 0001:00050f20       sf_mex_getcell             0000000180051f20 f   sfc_mex:sfc_mex.obj
 0001:00050f30       sf_mex_dup                 0000000180051f30 f   sfc_mex:sfc_mex.obj
 0001:00050f50       sf_mex_assign              0000000180051f50 f   sfc_mex:sfc_mex.obj
 0001:00050fd0       sf_mex_destroy             0000000180051fd0 f   sfc_mex:sfc_mex.obj
 0001:00051000       mx_array_has_fi_type       0000000180052000 f   sfc_mex:sfc_mex.obj
 0001:00051030       sf_mex_convert_from_fi     0000000180052030 f   sfc_mex:sfc_mex.obj
 0001:00051160       sf_mex_convert_to_double   0000000180052160 f   sfc_mex:sfc_mex.obj
 0001:00051280       sf_mex_import_fi_vs        0000000180052280 f   sfc_mex:sfc_mex.obj
 0001:000514b0       sf_matrix_matrix_index_ok  00000001800524b0 f   sfc_mex:sfc_mex.obj
 0001:00051540       sf_vector_vector_index_ok  0000000180052540 f   sfc_mex:sfc_mex.obj
 0001:00051570       ssGetCurrentInputPortDimensions_wrapper 0000000180052570 f   sfc_mex:sfc_mex.obj
 0001:00051590       ssGetCurrentOutputPortDimensions_wrapper 0000000180052590 f   sfc_mex:sfc_mex.obj
 0001:000515b0       sf_mex_emlrt_context_is_debug_mode 00000001800525b0 f   sfc_mex:sfc_mex.obj
 0001:000515c0       sf_mex_emlrt_context_set_debug_mode 00000001800525c0 f   sfc_mex:sfc_mex.obj
 0001:000515d0       sf_mex_emlrtNameCapturePostProcessR2012a 00000001800525d0 f   sfc_mex:sfc_mex.obj
 0001:00051640       sf_clear_error_manager_info 0000000180052640 f   sfc_mex:sfc_mex.obj
 0001:000516a0       sf_mex_stop_simulation_abruptly_wo_error 00000001800526a0 f   sfc_mex:sfc_mex.obj
 0001:000516e0       sf_mex_error_message       00000001800526e0 f   sfc_mex:sfc_mex.obj
 0001:00051750       sf_react_to_error_in_matlab_call 0000000180052750 f   sfc_mex:sfc_mex.obj
 0001:00051780       sf_mex_addfield            0000000180052780 f   sfc_mex:sfc_mex.obj
 0001:00051820       sf_mex_getfield            0000000180052820 f   sfc_mex:sfc_mex.obj
 0001:00051b20       sf_mex_check_class         0000000180052b20 f   sfc_mex:sfc_mex.obj
 0001:00051bc0       sf_mex_is_real             0000000180052bc0 f   sfc_mex:sfc_mex.obj
 0001:00052030       sf_mex_decode_encoded_mx_struct_array 0000000180053030 f   sfc_mex:sfc_mex.obj
 0001:00052320       sf_mex_lw_bounds_check     0000000180053320 f   sfc_mex:sfc_mex.obj
 0001:00052350       sf_mex_lw_size_eq_check_1d 0000000180053350 f   sfc_mex:sfc_mex.obj
 0001:00052370       sf_mex_lw_size_eq_check_nd 0000000180053370 f   sfc_mex:sfc_mex.obj
 0001:00052550       sf_mex_lw_dim_size_eq_check 0000000180053550 f   sfc_mex:sfc_mex.obj
 0001:00052580       sf_mex_lw_dim_size_geq_check 0000000180053580 f   sfc_mex:sfc_mex.obj
 0001:000525b0       sf_mex_lw_sub_assign_size_check_nd 00000001800535b0 f   sfc_mex:sfc_mex.obj
 0001:00052780       sf_mex_lw_runtime_error_msgid 0000000180053780 f   sfc_mex:sfc_mex.obj
 0001:00052870       sf_mex_lw_matrix_matrix_index_check 0000000180053870 f   sfc_mex:sfc_mex.obj
 0001:00052890       sf_mex_lw_vector_vector_index_check 0000000180053890 f   sfc_mex:sfc_mex.obj
 0001:000528d0       sf_mex_lw_for_loop_vector_check 00000001800538d0 f   sfc_mex:sfc_mex.obj
 0001:00052960       sf_mex_lw_non_negative_check 0000000180053960 f   sfc_mex:sfc_mex.obj
 0001:000529a0       sf_mex_overflow_error      00000001800539a0 f   sfc_mex:sfc_mex.obj
 0001:000529b0       sf_mex_dividebyzero_error  00000001800539b0 f   sfc_mex:sfc_mex.obj
 0001:000529c0       sf_mex_unsafe_enum_error   00000001800539c0 f   sfc_mex:sfc_mex.obj
 0001:000529d0       sf_emlrtErrHandler         00000001800539d0 f   sfc_mex:sfc_mex.obj
 0001:00052ab0       sf_mex_size_one_check      0000000180053ab0 f   sfc_mex:sfc_mex.obj
 0001:00052ad0       sf_mex_printf              0000000180053ad0 f   sfc_mex:sfc_mex.obj
 0001:00052ca0       sf_mex_check_size          0000000180053ca0 f   sfc_mex:sfc_mex.obj
 0001:00052f40       sf_mex_check_struct        0000000180053f40 f   sfc_mex:sfc_mex.obj
 0001:000531a0       sf_mex_check_struct_vs     00000001800541a0 f   sfc_mex:sfc_mex.obj
 0001:00053230       sf_mex_check_fi            0000000180054230 f   sfc_mex:sfc_mex.obj
 0001:00053330       sf_mex_check_fi_vs         0000000180054330 f   sfc_mex:sfc_mex.obj
 0001:000533d0       sf_echo_expression         00000001800543d0 f   sfc_mex:sfc_mex.obj
 0001:00053430       sf_assertion_failed        0000000180054430 f   sfc_mex:sfc_mex.obj
 0001:00053710       sf_mex_evalin              0000000180054710 f   sfc_mex:sfc_mex.obj
 0001:00053980       sf_mex_export              0000000180054980 f   sfc_mex:sfc_mex.obj
 0001:00053a40       sf_mex_get_ml_var_no_error 0000000180054a40 f   sfc_mex:sfc_mex.obj
 0001:00053be0       sf_mex_get_ml_var          0000000180054be0 f   sfc_mex:sfc_mex.obj
 0001:00054070       ml_set_element_value_in_array 0000000180055070 f   sfc_mex:sfc_mex.obj
 0001:00055130       sf_mex_call_impl           0000000180056130 f   sfc_mex:sfc_mex.obj
 0001:00055550       sf_mex_call_debug          0000000180056550 f   sfc_mex:sfc_mex.obj
 0001:00055580       sf_mex_call                0000000180056580 f   sfc_mex:sfc_mex.obj
 0001:00055bd0       sf_mex_createstruct        0000000180056bd0 f   sfc_mex:sfc_mex.obj
 0001:00055ce0       sf_mex_createstructarray   0000000180056ce0 f   sfc_mex:sfc_mex.obj
 0001:00055d60       sf_mex_get_mx_datatype_from_sf_datatype 0000000180056d60 f   sfc_mex:sfc_mex.obj
 0001:00056070       sf_mex_ml_var_sub          0000000180057070 f   sfc_mex:sfc_mex.obj
 0001:00056250       sf_mex_ml_var_subsasgn     0000000180057250 f   sfc_mex:sfc_mex.obj
 0001:00056650       sf_mex_sub                 0000000180057650 f   sfc_mex:sfc_mex.obj
 0001:00056860       sf_mex_subsasgn            0000000180057860 f   sfc_mex:sfc_mex.obj
 0001:00056d70       sf_mex_create              0000000180057d70 f   sfc_mex:sfc_mex.obj
 0001:00057710       sf_mex_import_named        0000000180058710 f   sfc_mex:sfc_mex.obj
 0001:00057770       sf_mex_import              0000000180058770 f   sfc_mex:sfc_mex.obj
 0001:000577c0       sf_mex_import_vs           00000001800587c0 f   sfc_mex:sfc_mex.obj
 0001:000578d0       sf_mex_lower_fixpt_mx_array 00000001800588d0 f   sfc_mex:sfc_mex.obj
 0001:00057bf0       sf_debug_chart_instance_initialized_quick 0000000180058bf0 f   sfc_debug:sfcdebug.obj
 0001:00057c70       sf_debug_disp              0000000180058c70 f   sfc_debug:sfcdebug.obj
 0001:00057f40       sf_debug_data_runtime_size_mismatch_error_check 0000000180058f40 f   sfc_debug:sfcdebug.obj
 0001:00057ff0       sf_debug_try_loading_machine 0000000180058ff0 f   sfc_debug:sfcdebug.obj
 0001:000580f0       sf_debug_reset_current_state_configuration 00000001800590f0 f   sfc_debug:sfcdebug.obj
 0001:00058170       sf_debug_store_current_state_configuration 0000000180059170 f   sfc_debug:sfcdebug.obj
 0001:000581f0       sf_debug_restore_previous_state_configuration 00000001800591f0 f   sfc_debug:sfcdebug.obj
 0001:00058270       sf_debug_restore_previous_state_configuration2 0000000180059270 f   sfc_debug:sfcdebug.obj
 0001:000582f0       sf_debug_get_event_scope   00000001800592f0 f   sfc_debug:sfcdebug.obj
 0001:00058460       use_debugger_step_animation 0000000180059460 f   sfc_debug:sfcdebug.obj
 0001:00058480       sf_debug_get_script_id     0000000180059480 f   sfc_debug:sfcdebug.obj
 0001:00058510       sf_debug_set_script_translation 0000000180059510 f   sfc_debug:sfcdebug.obj
 0001:00058690       sf_debug_extract_message_post_receive_info 0000000180059690 f   sfc_debug:sfcdebug.obj
 0001:00058850       sf_debug_get_current_machine_id 0000000180059850 f   sfc_debug:sfcdebug.obj
 0001:00058870       sf_debug_get_current_optional_integer 0000000180059870 f   sfc_debug:sfcdebug.obj
 0001:00058880       sf_debug_get_current_machine_number 0000000180059880 f   sfc_debug:sfcdebug.obj
 0001:000588a0       sf_debug_get_current_machine_name 00000001800598a0 f   sfc_debug:sfcdebug.obj
 0001:000588c0       sf_debug_get_current_chart_id 00000001800598c0 f   sfc_debug:sfcdebug.obj
 0001:00058900       sf_debug_get_current_chart_number 0000000180059900 f   sfc_debug:sfcdebug.obj
 0001:00058910       sf_debug_get_current_instance_number 0000000180059910 f   sfc_debug:sfcdebug.obj
 0001:00058920       sf_debug_get_current_is_minor_time_step 0000000180059920 f   sfc_debug:sfcdebug.obj
 0001:000589a0       sf_debug_get_current_object_type 00000001800599a0 f   sfc_debug:sfcdebug.obj
 0001:000589b0       sf_debug_get_current_instance_handle 00000001800599b0 f   sfc_debug:sfcdebug.obj
 0001:00058a10       sf_debug_get_current_event_type 0000000180059a10 f   sfc_debug:sfcdebug.obj
 0001:00058a20       sf_debug_get_current_object_id 0000000180059a20 f   sfc_debug:sfcdebug.obj
 0001:00058a60       sf_debug_get_current_active_event_type 0000000180059a60 f   sfc_debug:sfcdebug.obj
 0001:00058a70       sf_debug_get_current_active_event_id 0000000180059a70 f   sfc_debug:sfcdebug.obj
 0001:00058ab0       sf_debug_get_current_tag_type 0000000180059ab0 f   sfc_debug:sfcdebug.obj
 0001:00058ac0       sf_debug_get_current_simulation_time 0000000180059ac0 f   sfc_debug:sfcdebug.obj
 0001:00058ad0       sf_debug_get_current_coverage_percentage 0000000180059ad0 f   sfc_debug:sfcdebug.obj
 0001:00058ae0       sf_debug_current_statement_context 0000000180059ae0 f   sfc_debug:sfcdebug.obj
 0001:00058b60       sf_debug_get_current_statement_info 0000000180059b60 f   sfc_debug:sfcdebug.obj
 0001:00058d00       sf_debug_terminate_instance 0000000180059d00 f   sfc_debug:sfcdebug.obj
 0001:00059020       sf_debug_assertion_failed  000000018005a020 f   sfc_debug:sfcdebug.obj
 0001:000591f0       sf_debug_create_debug_instance_struct 000000018005a1f0 f   sfc_debug:sfcdebug.obj
 0001:00059240       sf_debug_set_number_of_data_with_change_event_for_machine 000000018005a240 f   sfc_debug:sfcdebug.obj
 0001:00059290       sf_debug_set_machine_event_thresholds 000000018005a290 f   sfc_debug:sfcdebug.obj
 0001:000592b0       sf_debug_set_machine_event_scope 000000018005a2b0 f   sfc_debug:sfcdebug.obj
 0001:00059300       sf_debug_set_machine_data_thresholds 000000018005a300 f   sfc_debug:sfcdebug.obj
 0001:00059350       sf_debug_set_machine_data_scope 000000018005a350 f   sfc_debug:sfcdebug.obj
 0001:000593f0       sf_debug_set_machine_data_name 000000018005a3f0 f   sfc_debug:sfcdebug.obj
 0001:000594a0       sf_debug_set_machine_data_size 000000018005a4a0 f   sfc_debug:sfcdebug.obj
 0001:000595f0       sf_debug_set_machine_data_type 000000018005a5f0 f   sfc_debug:sfcdebug.obj
 0001:00059760       sf_debug_get_chart_data_number 000000018005a760 f   sfc_debug:sfcdebug.obj
 0001:00059780       sf_debug_get_chart_event_number 000000018005a780 f   sfc_debug:sfcdebug.obj
 0001:000597a0       sf_debug_set_chart_state_info 000000018005a7a0 f   sfc_debug:sfcdebug.obj
 0001:00059830       sf_debug_set_chart_decomposition 000000018005a830 f   sfc_debug:sfcdebug.obj
 0001:000598a0       sf_debug_set_chart_substate_count 000000018005a8a0 f   sfc_debug:sfcdebug.obj
 0001:00059980       sf_debug_set_chart_substate_index 000000018005a980 f   sfc_debug:sfcdebug.obj
 0001:00059a00       sf_debug_set_chart_state_substate_count 000000018005aa00 f   sfc_debug:sfcdebug.obj
 0001:00059b20       sf_debug_set_chart_state_substate_index 000000018005ab20 f   sfc_debug:sfcdebug.obj
 0001:00059bb0       sf_debug_set_number_of_data_with_change_event_for_chart 000000018005abb0 f   sfc_debug:sfcdebug.obj
 0001:00059c40       sf_debug_set_number_of_states_with_entry_event_for_chart 000000018005ac40 f   sfc_debug:sfcdebug.obj
 0001:00059cc0       sf_debug_set_number_of_states_with_exit_event_for_chart 000000018005acc0 f   sfc_debug:sfcdebug.obj
 0001:00059d40       sf_debug_set_chart_disable_implicit_casting 000000018005ad40 f   sfc_debug:sfcdebug.obj
 0001:00059db0       sf_debug_set_chart_event_thresholds 000000018005adb0 f   sfc_debug:sfcdebug.obj
 0001:00059e30       sf_debug_set_chart_data_compiled_props 000000018005ae30 f   sfc_debug:sfcdebug.obj
 0001:0005a170       sf_debug_set_chart_data_props 000000018005b170 f   sfc_debug:sfcdebug.obj
 0001:0005a490       sf_debug_check_fi_license  000000018005b490 f   sfc_debug:sfcdebug.obj
 0001:0005a650       sf_debug_symbol_scope_push 000000018005b650 f   sfc_debug:sfcdebug.obj
 0001:0005a690       sf_debug_symbol_scope_push_eml 000000018005b690 f   sfc_debug:sfcdebug.obj
 0001:0005a6e0       sf_debug_symbol_scope_pop  000000018005b6e0 f   sfc_debug:sfcdebug.obj
 0001:0005a720       sf_debug_symbol_scope_add_importable 000000018005b720 f   sfc_debug:sfcdebug.obj
 0001:0005a7a0       sf_debug_symbol_scope_add  000000018005b7a0 f   sfc_debug:sfcdebug.obj
 0001:0005a820       sf_debug_symbol_scope_add_dyn_importable 000000018005b820 f   sfc_debug:sfcdebug.obj
 0001:0005a8e0       sf_debug_symbol_scope_add_dyn 000000018005b8e0 f   sfc_debug:sfcdebug.obj
 0001:0005a920       sf_debug_symbol_scope_add_eml_importable 000000018005b920 f   sfc_debug:sfcdebug.obj
 0001:0005a960       sf_debug_symbol_scope_add_eml 000000018005b960 f   sfc_debug:sfcdebug.obj
 0001:0005a9a0       sf_debug_symbol_scope_add_eml_dyn_importable 000000018005b9a0 f   sfc_debug:sfcdebug.obj
 0001:0005aa00       sf_debug_symbol_scope_add_eml_dyn 000000018005ba00 f   sfc_debug:sfcdebug.obj
 0001:0005aa60       sf_debug_symbol_switch     000000018005ba60 f   sfc_debug:sfcdebug.obj
 0001:0005aa80       sf_debug_symbol_scope_add_verbose 000000018005ba80 f   sfc_debug:sfcdebug.obj
 0001:0005ab50       sf_debug_set_machine_data_value_ptr 000000018005bb50 f   sfc_debug:sfcdebug.obj
 0001:0005ab90       sf_debug_set_instance_data_value_ptr 000000018005bb90 f   sfc_debug:sfcdebug.obj
 0001:0005ac60       sf_debug_unset_instance_data_value_ptr 000000018005bc60 f   sfc_debug:sfcdebug.obj
 0001:0005ad10       sf_debug_set_chart_event_scope 000000018005bd10 f   sfc_debug:sfcdebug.obj
 0001:0005ad90       sf_debug_set_chart_transition_coverage_maps 000000018005bd90 f   sfc_debug:sfcdebug.obj
 0001:0005ae90       sf_debug_set_chart_state_coverage_maps 000000018005be90 f   sfc_debug:sfcdebug.obj
 0001:0005af60       sf_debug_set_instance_transition_coverage_weights 000000018005bf60 f   sfc_debug:sfcdebug.obj
 0001:0005aff0       sf_debug_set_instance_state_coverage_weights 000000018005bff0 f   sfc_debug:sfcdebug.obj
 0001:0005b240       sf_debug_unload_machine    000000018005c240 f   sfc_debug:sfcdebug.obj
 0001:0005b290       sf_debug_load_machine      000000018005c290 f   sfc_debug:sfcdebug.obj
 0001:0005b3a0       sf_debug_set_active_instance_in_data_dictionary 000000018005c3a0 f   sfc_debug:sfcdebug.obj
 0001:0005b580       sf_debug_set_active_instance 000000018005c580 f   sfc_debug:sfcdebug.obj
 0001:0005b6e0       sf_debug_chart_visiblity_change 000000018005c6e0 f   sfc_debug:sfcdebug.obj
 0001:0005b7d0       sf_debug_select_chart      000000018005c7d0 f   sfc_debug:sfcdebug.obj
 0001:0005b930       sf_debug_set_instance_cv_ids 000000018005c930 f   sfc_debug:sfcdebug.obj
 0001:0005bc60       sf_debug_select_charts     000000018005cc60 f   sfc_debug:sfcdebug.obj
 0001:0005be10       sf_debug_initialized       000000018005ce10 f   sfc_debug:sfcdebug.obj
 0001:0005be30       sf_debug_is_uninterruptible 000000018005ce30 f   sfc_debug:sfcdebug.obj
 0001:0005be60       sf_debug_initialize_debugger_gui 000000018005ce60 f   sfc_debug:sfcdebug.obj
 0001:0005c240       sf_debug_resume            000000018005d240 f   sfc_debug:sfcdebug.obj
 0001:0005c260       sf_debug_go                000000018005d260 f   sfc_debug:sfcdebug.obj
 0001:0005c270       sf_debug_break             000000018005d270 f   sfc_debug:sfcdebug.obj
 0001:0005c280       sf_debug_step_over         000000018005d280 f   sfc_debug:sfcdebug.obj
 0001:0005c290       sf_debug_step_out          000000018005d290 f   sfc_debug:sfcdebug.obj
 0001:0005c2a0       sf_debug_set_disable_all_breakpoints 000000018005d2a0 f   sfc_debug:sfcdebug.obj
 0001:0005c2b0       sf_debug_disable_all_breakpoints_and_go 000000018005d2b0 f   sfc_debug:sfcdebug.obj
 0001:0005c2c0       sf_debug_break_on_chart_entry 000000018005d2c0 f   sfc_debug:sfcdebug.obj
 0001:0005c2d0       sf_debug_break_on_event_broadcast 000000018005d2d0 f   sfc_debug:sfcdebug.obj
 0001:0005c2e0       sf_debug_break_on_state_entry 000000018005d2e0 f   sfc_debug:sfcdebug.obj
 0001:0005c2f0       sf_debug_break_between_times 000000018005d2f0 f   sfc_debug:sfcdebug.obj
 0001:0005c310       sf_debug_browse_data       000000018005d310 f   sfc_debug:sfcdebug.obj
 0001:0005c320       sf_debug_watch_data        000000018005d320 f   sfc_debug:sfcdebug.obj
 0001:0005c350       sf_debug_assign_data       000000018005d350 f   sfc_debug:sfcdebug.obj
 0001:0005c360       sf_debug_whos              000000018005d360 f   sfc_debug:sfcdebug.obj
 0001:0005c380       sf_debug_get_consistency_info 000000018005d380 f   sfc_debug:sfcdebug.obj
 0001:0005c390       sf_debug_browse_trace      000000018005d390 f   sfc_debug:sfcdebug.obj
 0001:0005c3a0       sf_debug_set_breakpoints   000000018005d3a0 f   sfc_debug:sfcdebug.obj
 0001:0005c510       sf_debug_set_eml_breakpoints 000000018005d510 f   sfc_debug:sfcdebug.obj
 0001:0005c670       sf_debug_set_script_breakpoints 000000018005d670 f   sfc_debug:sfcdebug.obj
 0001:0005c6f0       sf_debug_add_script_breakpoints 000000018005d6f0 f   sfc_debug:sfcdebug.obj
 0001:0005c760       sf_debug_clear_script_breakpoints 000000018005d760 f   sfc_debug:sfcdebug.obj
 0001:0005c7d0       sf_debug_query_script_breakpoints 000000018005d7d0 f   sfc_debug:sfcdebug.obj
 0001:0005c880       sf_debug_get_eml_script_id 000000018005d880 f   sfc_debug:sfcdebug.obj
 0001:0005c8d0       sf_debug_set_watch         000000018005d8d0 f   sfc_debug:sfcdebug.obj
 0001:0005caf0       sf_debug_get_instance_handle 000000018005daf0 f   sfc_debug:sfcdebug.obj
 0001:0005cb80       sf_debug_get_active_states 000000018005db80 f   sfc_debug:sfcdebug.obj
 0001:0005cb90       sf_debug_set_honor_breakpoints 000000018005db90 f   sfc_debug:sfcdebug.obj
 0001:0005cba0       sf_debug_get_animation     000000018005dba0 f   sfc_debug:sfcdebug.obj
 0001:0005cbb0       sf_debug_set_animation     000000018005dbb0 f   sfc_debug:sfcdebug.obj
 0001:0005cbc0       sf_debug_animate           000000018005dbc0 f   sfc_debug:sfcdebug.obj
 0001:0005cbe0       sf_debug_cycle_detection_check 000000018005dbe0 f   sfc_debug:sfcdebug.obj
 0001:0005cbf0       sf_debug_data_range_check  000000018005dbf0 f   sfc_debug:sfcdebug.obj
 0001:0005cc00       sf_debug_transition_conflict_check 000000018005dc00 f   sfc_debug:sfcdebug.obj
 0001:0005cc10       sf_debug_state_consistency_check 000000018005dc10 f   sfc_debug:sfcdebug.obj
 0001:0005cc20       sf_debug_data_range_check_enabled 000000018005dc20 f   sfc_debug:sfcdebug.obj
 0001:0005cc40       sf_debug_transition_conflict_check_enabled 000000018005dc40 f   sfc_debug:sfcdebug.obj
 0001:0005cc60       sf_debug_transition_conflict_check_begin 000000018005dc60 f   sfc_debug:sfcdebug.obj
 0001:0005cc80       sf_debug_transition_conflict_check_end 000000018005dc80 f   sfc_debug:sfcdebug.obj
 0001:0005cca0       sf_debug_stop_debugging    000000018005dca0 f   sfc_debug:sfcdebug.obj
 0001:0005ccd0       sf_debug_is_cycle_detected 000000018005dcd0 f   sfc_debug:sfcdebug.obj
 0001:0005cce0       sf_debug_is_array_bounds_detected 000000018005dce0 f   sfc_debug:sfcdebug.obj
 0001:0005ccf0       sf_debug_get_state_vectors_data_size 000000018005dcf0 f   sfc_debug:sfcdebug.obj
 0001:0005cd30       sf_debug_get_state_vectors_data 000000018005dd30 f   sfc_debug:sfcdebug.obj
 0001:0005ce40       sf_debug_set_state_vectors_data 000000018005de40 f   sfc_debug:sfcdebug.obj
 0001:0005d0d0       sf_debug_get_script_index  000000018005e0d0 f   sfc_debug:sfcdebug.obj
 0001:0005d260       sf_debug_add_script        000000018005e260 f   sfc_debug:sfcdebug.obj
 0001:0005d3f0       cv_eval_point              000000018005e3f0 f   sfc_debug:sfcdebug.obj
 0001:0005d560       cv_eval_testobjective      000000018005e560 f   sfc_debug:sfcdebug.obj
 0001:0005d670       sf_debug_cv_init_state     000000018005e670 f   sfc_debug:sfcdebug.obj
 0001:0005d7a0       sf_debug_cv_init_chart     000000018005e7a0 f   sfc_debug:sfcdebug.obj
 0001:0005d890       sf_debug_cv_init_trans     000000018005e890 f   sfc_debug:sfcdebug.obj
 0001:0005d9a0       sf_debug_cv_init_saturation 000000018005e9a0 f   sfc_debug:sfcdebug.obj
 0001:0005daa0       sf_debug_cv_init_testobjectives 000000018005eaa0 f   sfc_debug:sfcdebug.obj
 0001:0005dc80       cv_eml_init_script         000000018005ec80 f   sfc_debug:sfcdebug.obj
 0001:0005dda0       cv_eml_init_fcn            000000018005eda0 f   sfc_debug:sfcdebug.obj
 0001:0005deb0       cv_eml_init_testobjective  000000018005eeb0 f   sfc_debug:sfcdebug.obj
 0001:0005df90       cv_eml_init_saturation     000000018005ef90 f   sfc_debug:sfcdebug.obj
 0001:0005e060       cv_eml_init_if             000000018005f060 f   sfc_debug:sfcdebug.obj
 0001:0005e140       cv_eml_init_for            000000018005f140 f   sfc_debug:sfcdebug.obj
 0001:0005e210       cv_eml_init_while          000000018005f210 f   sfc_debug:sfcdebug.obj
 0001:0005e2e0       cv_eml_init_mcdc           000000018005f2e0 f   sfc_debug:sfcdebug.obj
 0001:0005e400       cv_eml_init_switch         000000018005f400 f   sfc_debug:sfcdebug.obj
 0001:0005e500       cv_eml_eval                000000018005f500 f   sfc_debug:sfcdebug.obj
 0001:0005e5f0       sf_debug_bm_is_a_eml_breakpoint 000000018005f5f0 f   sfc_debug:sfcdebug.obj
 0001:0005e740       sf_debug_temporal_threshold 000000018005f740 f   sfc_debug:sfcdebug.obj
 0001:0005eab0       sf_debug_transition_conflict_error 000000018005fab0 f   sfc_debug:sfcdebug.obj
 0001:0005ee10       sf_debug_state_inconsistency_error 000000018005fe10 f   sfc_debug:sfcdebug.obj
 0001:0005ef30       sf_debug_check_for_state_inconsistency 000000018005ff30 f   sfc_debug:sfcdebug.obj
 0001:0005ef70       sf_debug_cycle_detecton_error 000000018005ff70 f   sfc_debug:sfcdebug.obj
 0001:0005f6c0       sf_debug_size_eq_check_1d  00000001800606c0 f   sfc_debug:sfcdebug.obj
 0001:0005f6e0       sf_debug_size_eq_check_nd  00000001800606e0 f   sfc_debug:sfcdebug.obj
 0001:0005f8e0       sf_debug_dim_size_eq_check 00000001800608e0 f   sfc_debug:sfcdebug.obj
 0001:0005f910       sf_debug_dim_size_geq_check 0000000180060910 f   sfc_debug:sfcdebug.obj
 0001:0005f940       sf_debug_sub_assign_size_check_nd 0000000180060940 f   sfc_debug:sfcdebug.obj
 0001:0005fb20       sf_debug_matrix_matrix_index_check 0000000180060b20 f   sfc_debug:sfcdebug.obj
 0001:0005fb70       sf_debug_vector_vector_index_check 0000000180060b70 f   sfc_debug:sfcdebug.obj
 0001:0005fbc0       sf_debug_for_loop_vector_check 0000000180060bc0 f   sfc_debug:sfcdebug.obj
 0001:0005fc60       sf_debug_runtime_error_msgid 0000000180060c60 f   sfc_debug:sfcdebug.obj
 0001:0005fd00       sf_debug_data_array_bounds_error_check 0000000180060d00 f   sfc_debug:sfcdebug.obj
 0001:0005fe10       sf_debug_eml_data_array_bounds_error_check 0000000180060e10 f   sfc_debug:sfcdebug.obj
 0001:000602d0       sf_debug_integer_check     00000001800612d0 f   sfc_debug:sfcdebug.obj
 0001:000603c0       sf_debug_not_nan_check     00000001800613c0 f   sfc_debug:sfcdebug.obj
 0001:00060490       sf_debug_non_negative_check 0000000180061490 f   sfc_debug:sfcdebug.obj
 0001:00060560       sf_debug_overflow_detection 0000000180061560 f   sfc_debug:sfcdebug.obj
 0001:00060bc0       sf_debug_cast_to_real32_T  0000000180061bc0 f   sfc_debug:sfcdebug.obj
 0001:00060c90       sf_debug_cast_to_int8_T    0000000180061c90 f   sfc_debug:sfcdebug.obj
 0001:00060d60       sf_debug_cast_to_uint8_T   0000000180061d60 f   sfc_debug:sfcdebug.obj
 0001:00060e30       sf_debug_cast_to_int16_T   0000000180061e30 f   sfc_debug:sfcdebug.obj
 0001:00060f00       sf_debug_cast_to_uint16_T  0000000180061f00 f   sfc_debug:sfcdebug.obj
 0001:00060fd0       sf_debug_cast_to_int32_T   0000000180061fd0 f   sfc_debug:sfcdebug.obj
 0001:000610a0       sf_debug_cast_to_uint32_T  00000001800620a0 f   sfc_debug:sfcdebug.obj
 0001:00061170       sf_debug_data_range_error  0000000180062170 f   sfc_debug:sfcdebug.obj
 0001:00061480       sf_debug_read_before_write_check 0000000180062480 f   sfc_debug:sfcdebug.obj
 0001:000618b0       sf_debug_data_range_error_wrapper_min_max 00000001800628b0 f   sfc_debug:sfcdebug.obj
 0001:000619d0       sf_debug_data_range_error_wrapper_min 00000001800629d0 f   sfc_debug:sfcdebug.obj
 0001:00061ae0       sf_debug_data_range_error_wrapper_max 0000000180062ae0 f   sfc_debug:sfcdebug.obj
 0001:00061bf0       sf_debug_data_range_wrapper 0000000180062bf0 f   sfc_debug:sfcdebug.obj
 0001:00061cb0       sf_debug_set_current_status_info 0000000180062cb0 f   sfc_debug:sfcdebug.obj
 0001:00062050       sf_debug_register_message_post_receive_info 0000000180063050 f   sfc_debug:sfcdebug.obj
 0001:000622a0       sf_debug_call              00000001800632a0 f   sfc_debug:sfcdebug.obj
 0001:00062c00       sf_debug_initialize_machine 0000000180063c00 f   sfc_debug:sfcdebug.obj
 0001:00062eb0       sf_debug_initialize_chart  0000000180063eb0 f   sfc_debug:sfcdebug.obj
 0001:00063300       sf_debug_ensure_script     0000000180064300 f   sfc_debug:sfcdebug.obj
 0001:000633b0       cv_eval_saturation         00000001800643b0 f   sfc_debug:sfcdebug.obj
 0001:00063530       cv_saturation_accum        0000000180064530 f   sfc_debug:sfcdebug.obj
 0001:00063670       cv_script_init_script      0000000180064670 f   sfc_debug:sfcdebug.obj
 0001:00063760       cv_script_init_fcn         0000000180064760 f   sfc_debug:sfcdebug.obj
 0001:00063820       cv_script_init_testobjective 0000000180064820 f   sfc_debug:sfcdebug.obj
 0001:000638e0       cv_script_init_saturation  00000001800648e0 f   sfc_debug:sfcdebug.obj
 0001:00063990       cv_script_init_if          0000000180064990 f   sfc_debug:sfcdebug.obj
 0001:00063a50       cv_script_init_for         0000000180064a50 f   sfc_debug:sfcdebug.obj
 0001:00063b00       cv_script_init_while       0000000180064b00 f   sfc_debug:sfcdebug.obj
 0001:00063bb0       cv_script_init_mcdc        0000000180064bb0 f   sfc_debug:sfcdebug.obj
 0001:00063cb0       cv_script_init_switch      0000000180064cb0 f   sfc_debug:sfcdebug.obj
 0001:00063d90       cv_script_eval             0000000180064d90 f   sfc_debug:sfcdebug.obj
 0001:00063e60       eml_debug_line_call        0000000180064e60 f   sfc_debug:sfcdebug.obj
 0001:00064030       sf_debug_terminate         0000000180065030 f   sfc_debug:sfcdebug.obj
 0001:00064240       sf_debug_set_script_cv_ids 0000000180065240 f   sfc_debug:sfcdebug.obj
 0001:00064370       sf_debug_api               0000000180065370 f   sfc_debug:sfc_api.obj
 0001:00065c60       sf_debug_sm_terminate      0000000180066c60 f   sfc_debug:sfdb_animation.obj
 0001:00065e10       sf_debug_reset_path_objects 0000000180066e10 f   sfc_debug:sfdb_animation.obj
 0001:00065e90       sf_debug_sm_reset_object_selection_status 0000000180066e90 f   sfc_debug:sfdb_animation.obj
 0001:00065f30       sf_debug_sm_reset_state_buffer 0000000180066f30 f   sfc_debug:sfdb_animation.obj
 0001:00066000       sf_debug_sm_store_state_buffer 0000000180067000 f   sfc_debug:sfdb_animation.obj
 0001:00066080       sf_debug_sm_restore_state_buffer1 0000000180067080 f   sfc_debug:sfdb_animation.obj
 0001:000660f0       sf_debug_sm_restore_state_buffer2 00000001800670f0 f   sfc_debug:sfdb_animation.obj
 0001:00066160       sf_debug_sm_chart_active   0000000180067160 f   sfc_debug:sfdb_animation.obj
 0001:000661b0       sf_debug_sm_select_active_objects 00000001800671b0 f   sfc_debug:sfdb_animation.obj
 0001:00066680       sf_debug_sm_is_chart_active 0000000180067680 f   sfc_debug:sfdb_animation.obj
 0001:000666c0       sf_debug_sm_is_state_active 00000001800676c0 f   sfc_debug:sfdb_animation.obj
 0001:00066900       sf_debug_sm_get_active_states 0000000180067900 f   sfc_debug:sfdb_animation.obj
 0001:00066eb0       sf_debug_sm_initialize_instance 0000000180067eb0 f   sfc_debug:sfdb_animation.obj
 0001:000670c0       sf_debug_sm_change_object_selection_status 00000001800680c0 f   sfc_debug:sfdb_animation.obj
 0001:00067390       cv_create_interface        0000000180068390 f   sfc_debug:cv_sfinterface.obj
 0001:000676a0       cv_init_trans              00000001800686a0 f   sfc_debug:cv_sfinterface.obj
 0001:000676f0       cv_init_saturation         00000001800686f0 f   sfc_debug:cv_sfinterface.obj
 0001:00067730       cv_init_testobjective      0000000180068730 f   sfc_debug:cv_sfinterface.obj
 0001:00067770       cv_init_state              0000000180068770 f   sfc_debug:cv_sfinterface.obj
 0001:000677e0       cv_init_chart              00000001800687e0 f   sfc_debug:cv_sfinterface.obj
 0001:00067830       cv_dec_update_call         0000000180068830 f   sfc_debug:cv_sfinterface.obj
 0001:00067870       cv_cond_update_call        0000000180068870 f   sfc_debug:cv_sfinterface.obj
 0001:000678b0       cv_saturation_update_call  00000001800688b0 f   sfc_debug:cv_sfinterface.obj
 0001:000678f0       cv_saturation_update_accum 00000001800688f0 f   sfc_debug:cv_sfinterface.obj
 0001:00067930       cv_testobjective_update_call 0000000180068930 f   sfc_debug:cv_sfinterface.obj
 0001:00067970       cv_sigrange_update         0000000180068970 f   sfc_debug:cv_sfinterface.obj
 0001:000679b0       cvsf_eml_eval              00000001800689b0 f   sfc_debug:cv_sfinterface.obj
 0001:00067a90       cvsf_eml_init_script       0000000180068a90 f   sfc_debug:cv_sfinterface.obj
 0001:00067b20       cvsf_eml_init_fcn          0000000180068b20 f   sfc_debug:cv_sfinterface.obj
 0001:00067b80       cvsf_eml_init_testobjective 0000000180068b80 f   sfc_debug:cv_sfinterface.obj
 0001:00067be0       cvsf_eml_init_saturation   0000000180068be0 f   sfc_debug:cv_sfinterface.obj
 0001:00067c30       cvsf_eml_init_if           0000000180068c30 f   sfc_debug:cv_sfinterface.obj
 0001:00067c90       cvsf_eml_init_for          0000000180068c90 f   sfc_debug:cv_sfinterface.obj
 0001:00067ce0       cvsf_eml_init_while        0000000180068ce0 f   sfc_debug:cv_sfinterface.obj
 0001:00067d30       cvsf_eml_init_mcdc         0000000180068d30 f   sfc_debug:cv_sfinterface.obj
 0001:00067dc0       cvsf_eml_init_switch       0000000180068dc0 f   sfc_debug:cv_sfinterface.obj
 0001:00067e30       cvsf_script_eval           0000000180068e30 f   sfc_debug:cv_sfinterface.obj
 0001:00067f10       cvsf_script_init_script    0000000180068f10 f   sfc_debug:cv_sfinterface.obj
 0001:00067fa0       cvsf_script_init_fcn       0000000180068fa0 f   sfc_debug:cv_sfinterface.obj
 0001:00068000       cvsf_script_init_testobjective 0000000180069000 f   sfc_debug:cv_sfinterface.obj
 0001:00068060       cvsf_script_init_saturation 0000000180069060 f   sfc_debug:cv_sfinterface.obj
 0001:000680b0       cvsf_script_init_if        00000001800690b0 f   sfc_debug:cv_sfinterface.obj
 0001:00068110       cvsf_script_init_for       0000000180069110 f   sfc_debug:cv_sfinterface.obj
 0001:00068160       cvsf_script_init_while     0000000180069160 f   sfc_debug:cv_sfinterface.obj
 0001:000681b0       cvsf_script_init_mcdc      00000001800691b0 f   sfc_debug:cv_sfinterface.obj
 0001:00068240       cvsf_script_init_switch    0000000180069240 f   sfc_debug:cv_sfinterface.obj
 0001:000682b0       cv_destroy_interface       00000001800692b0 f   sfc_debug:cv_sfinterface.obj
 0001:000682d0       cv_create_instance_objects 00000001800692d0 f   sfc_debug:cv_sfinterface.obj
 0001:00068740       cv_is_enabled              0000000180069740 f   sfc_debug:cv_sfinterface.obj
 0001:00068750       sf_debug_cv_initialize_script 0000000180069750 f   sfc_debug:cv_sfinterface.obj
 0001:000688e0       sf_debug_cv_initialize_instance 00000001800698e0 f   sfc_debug:cv_sfinterface.obj
 0001:00068c70       sf_debug_cv_terminate_chart 0000000180069c70 f   sfc_debug:cv_sfinterface.obj
 0001:00068d90       cv_call_trans_test         0000000180069d90 f   sfc_debug:cv_sfinterface.obj
 0001:00068da0       cv_call_sub_cond_test      0000000180069da0 f   sfc_debug:cv_sfinterface.obj
 0001:00068de0       sf_debug_st_initialize_machine 0000000180069de0 f   sfc_debug:sfdb_data_browse.obj
 0001:00068e90       sf_debug_st_initialize_instance 0000000180069e90 f   sfc_debug:sfdb_data_browse.obj
 0001:000690a0       sf_debug_st_terminate      000000018006a0a0 f   sfc_debug:sfdb_data_browse.obj
 0001:00069440       sf_debug_st_set_data_value_ptr_in_machine 000000018006a440 f   sfc_debug:sfdb_data_browse.obj
 0001:000694d0       sf_debug_st_set_data_value_ptr_in_instance 000000018006a4d0 f   sfc_debug:sfdb_data_browse.obj
 0001:000695b0       sf_debug_st_unset_data_value_ptr_in_machine 000000018006a5b0 f   sfc_debug:sfdb_data_browse.obj
 0001:00069620       sf_debug_st_unset_data_value_ptr_in_instance 000000018006a620 f   sfc_debug:sfdb_data_browse.obj
 0001:000698e0       sf_debug_mx_value          000000018006a8e0 f   sfc_debug:sfdb_data_browse.obj
 0001:00069940       sf_debug_mx_packed_vector  000000018006a940 f   sfc_debug:sfdb_data_browse.obj
 0001:00069a20       sf_debug_mx_uint_vector    000000018006aa20 f   sfc_debug:sfdb_data_browse.obj
 0001:00069ad0       sf_debug_st_get_double_value_from_void_ptr_vector 000000018006aad0 f   sfc_debug:sfdb_data_browse.obj
 0001:0006a5b0       sf_debug_st_browse_data    000000018006b5b0 f   sfc_debug:sfdb_data_browse.obj
 0001:0006adf0       sf_debug_hm_initialize_instance 000000018006bdf0 f   sfc_debug:sfdb_handle_management.obj
 0001:0006b2d0       sf_debug_hm_get_object_id  000000018006c2d0 f   sfc_debug:sfdb_handle_management.obj
 0001:0006be80       sf_debug_hm_update_chart_visibility 000000018006ce80 f   sfc_debug:sfdb_handle_management.obj
 0001:0006d070       sf_debug_object_is_eml_function 000000018006e070 f   sfc_debug:sfdb_handle_management.obj
 0001:0006d0e0       sf_debug_hm_initialize_ids_in_machine 000000018006e0e0 f   sfc_debug:sfdb_handle_management.obj
 0001:0006d250       sf_debug_hm_initialize_ids_in_chart 000000018006e250 f   sfc_debug:sfdb_handle_management.obj
 0001:0006d350       sf_debug_hm_initialize_chart 000000018006e350 f   sfc_debug:sfdb_handle_management.obj
 0001:0006da50       sf_debug_hm_terminate      000000018006ea50 f   sfc_debug:sfdb_handle_management.obj
 0001:0006dab0       sf_debug_hm_initialize_machine 000000018006eab0 f   sfc_debug:sfdb_handle_management.obj
 0001:0006e1d0       sf_debug_ss_initialize     000000018006f1d0 f   sfc_debug:sfdb_symbol_scope.obj
 0001:0006e1f0       sf_debug_ss_terminate      000000018006f1f0 f   sfc_debug:sfdb_symbol_scope.obj
 0001:0006e280       sf_debug_ss_push_symbol_scope 000000018006f280 f   sfc_debug:sfdb_symbol_scope.obj
 0001:0006e380       sf_debug_ss_push_symbol_scope_eml 000000018006f380 f   sfc_debug:sfdb_symbol_scope.obj
 0001:0006e3e0       sf_debug_ss_pop_symbol_scope 000000018006f3e0 f   sfc_debug:sfdb_symbol_scope.obj
 0001:0006e490       sf_debug_ss_add_symbol     000000018006f490 f   sfc_debug:sfdb_symbol_scope.obj
 0001:0006e600       sf_debug_ss_add_symbol_eml 000000018006f600 f   sfc_debug:sfdb_symbol_scope.obj
 0001:0006f500       sf_debug_ss_set_data_value 0000000180070500 f   sfc_debug:sfdb_symbol_scope.obj
 0001:0006f950       getInstanceNumber          0000000180070950 f   sfc_debug:sfdb_symbol_scope.obj
 0001:0006fa20       sf_debug_ss_watch_data     0000000180070a20 f   sfc_debug:sfdb_symbol_scope.obj
 0001:0006fc10       sf_debug_ss_assign_data    0000000180070c10 f   sfc_debug:sfdb_symbol_scope.obj
 0001:00070620       get_data_entry_name        0000000180071620 f   sfc_debug:sfdb_symbol_scope.obj
 0001:00070670       sf_debug_ss_whos           0000000180071670 f   sfc_debug:sfdb_symbol_scope.obj
 0001:00070cc0       sf_debug_cc_initialize_chart 0000000180071cc0 f   sfc_debug:sfdb_coverage.obj
 0001:000716b0       sf_debug_cc_initialize_instance 00000001800726b0 f   sfc_debug:sfdb_coverage.obj
 0001:000723f0       sf_debug_cc_terminate      00000001800733f0 f   sfc_debug:sfdb_coverage.obj
 0001:000724e0       sf_debug_cc_set_transition_maps 00000001800734e0 f   sfc_debug:sfdb_coverage.obj
 0001:00072610       sf_debug_cc_set_state_maps 0000000180073610 f   sfc_debug:sfdb_coverage.obj
 0001:000726f0       sf_debug_cc_set_transition_weights 00000001800736f0 f   sfc_debug:sfdb_coverage.obj
 0001:000729b0       sf_debug_cc_set_state_weights 00000001800739b0 f   sfc_debug:sfdb_coverage.obj
 0001:00072c80       sf_debug_cc_mark_transition_guard 0000000180073c80 f   sfc_debug:sfdb_coverage.obj
 0001:00072d10       sf_debug_cc_mark_transition_trigger 0000000180073d10 f   sfc_debug:sfdb_coverage.obj
 0001:00072da0       sf_debug_cc_mark_transition_decision 0000000180073da0 f   sfc_debug:sfdb_coverage.obj
 0001:00072e10       sf_debug_cc_mark_transition_condition_action 0000000180073e10 f   sfc_debug:sfdb_coverage.obj
 0001:00072e60       sf_debug_cc_mark_transition_transition_action 0000000180073e60 f   sfc_debug:sfdb_coverage.obj
 0001:00072eb0       sf_debug_cc_mark_state_entry 0000000180073eb0 f   sfc_debug:sfdb_coverage.obj
 0001:00072f00       sf_debug_cc_mark_state_during 0000000180073f00 f   sfc_debug:sfdb_coverage.obj
 0001:00072f50       sf_debug_cc_mark_state_exit 0000000180073f50 f   sfc_debug:sfdb_coverage.obj
 0001:00072fa0       sf_debug_bm_clear_script_breakpoints 0000000180073fa0 f   sfc_debug:sfdb_breakpoints.obj
 0001:00072fd0       sf_debug_bm_set_script_breakpoint 0000000180073fd0 f   sfc_debug:sfdb_breakpoints.obj
 0001:00073050       sf_debug_bm_clear_single_script_breakpoint 0000000180074050 f   sfc_debug:sfdb_breakpoints.obj
 0001:000730d0       sf_debug_bm_query_script_breakpoint 00000001800740d0 f   sfc_debug:sfdb_breakpoints.obj
 0001:00073120       sf_debug_bm_initialize_scripts 0000000180074120 f   sfc_debug:sfdb_breakpoints.obj
 0001:000737b0       sf_debug_bm_terminate      00000001800747b0 f   sfc_debug:sfdb_breakpoints.obj
 0001:00073a90       sf_debug_bm_remove_all_breakpoints_in_machine 0000000180074a90 f   sfc_debug:sfdb_breakpoints.obj
 0001:00073af0       sf_debug_bm_remove_all_breakpoints_in_chart 0000000180074af0 f   sfc_debug:sfdb_breakpoints.obj
 0001:00073c40       sf_debug_bm_initialize_global_breakpoints 0000000180074c40 f   sfc_debug:sfdb_breakpoints.obj
 0001:00073dc0       sf_debug_bm_set_breakpoint 0000000180074dc0 f   sfc_debug:sfdb_breakpoints.obj
 0001:00074380       sf_debug_bm_set_eml_breakpoint 0000000180075380 f   sfc_debug:sfdb_breakpoints.obj
 0001:00074410       sf_debug_bm_initialize_machine_breakpoint_map 0000000180075410 f   sfc_debug:sfdb_breakpoints.obj
 0001:00074830       sf_debug_bm_is_a_breakpoint 0000000180075830 f   sfc_debug:sfdb_breakpoints.obj
 0001:00074d50       sf_debug_bm_get_all_breakpoints_in_machine 0000000180075d50 f   sfc_debug:sfdb_breakpoints.obj
 0001:00075050       sf_debug_bm_get_all_breakpoints_in_chart 0000000180076050 f   sfc_debug:sfdb_breakpoints.obj
 0001:00075be0       sf_debug_bm_initialize_machine 0000000180076be0 f   sfc_debug:sfdb_breakpoints.obj
 0001:00075cb0       sf_debug_bm_initialize_chart 0000000180076cb0 f   sfc_debug:sfdb_breakpoints.obj
 0001:000760a0       sf_debug_sc_terminate      00000001800770a0 f   sfc_debug:sfdb_state_consistency.obj
 0001:000763c0       sf_debug_sc_is_chart_consistent 00000001800773c0 f   sfc_debug:sfdb_state_consistency.obj
 0001:00076670       sf_debug_sc_get_consistency_error_info 0000000180077670 f   sfc_debug:sfdb_state_consistency.obj
 0001:00076a80       sf_debug_tm_terminate      0000000180077a80 f   sfc_debug:sfdb_call_stack.obj
 0001:00076b30       sf_debug_tm_push_chart_instance 0000000180077b30 f   sfc_debug:sfdb_call_stack.obj
 0001:00076c70       sf_debug_tm_pop_chart_instance 0000000180077c70 f   sfc_debug:sfdb_call_stack.obj
 0001:00076cd0       sf_debug_tm_push_trace_node 0000000180077cd0 f   sfc_debug:sfdb_call_stack.obj
 0001:00076e50       sf_debug_tm_pop_trace_node 0000000180077e50 f   sfc_debug:sfdb_call_stack.obj
 0001:00076ed0       sf_debug_tm_get_current_global_trace_index 0000000180077ed0 f   sfc_debug:sfdb_call_stack.obj
 0001:00076ee0       sf_debug_tm_get_current_local_trace_index 0000000180077ee0 f   sfc_debug:sfdb_call_stack.obj
 0001:00076f10       sf_debug_tm_set_cycle_detected_flag 0000000180077f10 f   sfc_debug:sfdb_call_stack.obj
 0001:00076f50       sf_debug_tm_set_cycle_started_flag 0000000180077f50 f   sfc_debug:sfdb_call_stack.obj
 0001:00076f90       sf_debug_tm_get_chart_number_from_stack 0000000180077f90 f   sfc_debug:sfdb_call_stack.obj
 0001:00077190       sf_debug_tm_browse_trace   0000000180078190 f   sfc_debug:sfdb_call_stack.obj
 0001:000774a0       sf_debug_cd_initialize_instance 00000001800784a0 f   sfc_debug:sfdb_cycle_detection.obj
 0001:00077750       sf_debug_cd_mark_processed_transition_in_instance 0000000180078750 f   sfc_debug:sfdb_cycle_detection.obj
 0001:000777f0       sf_debug_cd_checksum_push  00000001800787f0 f   sfc_debug:sfdb_cycle_detection.obj
 0001:00077aa0       sf_debug_cd_checksum_pop   0000000180078aa0 f   sfc_debug:sfdb_cycle_detection.obj
 0001:00077b10       sf_debug_cd_turn_off_cycle_detection 0000000180078b10 f   sfc_debug:sfdb_cycle_detection.obj
 0001:00077b60       sf_debug_cd_terminate      0000000180078b60 f   sfc_debug:sfdb_cycle_detection.obj
 0001:00077d90       md5_initialize_state       0000000180078d90 f   sfc_debug:ckmd5.obj
 0001:00078820       md5_update_state           0000000180079820 f   sfc_debug:ckmd5.obj
 0001:00078840       md5_get_hash               0000000180079840 f   sfc_debug:ckmd5.obj
 0001:00078870       md5_get_hash_for_a_single_string 0000000180079870 f   sfc_debug:ckmd5.obj
 0001:000788d0       mxGetPr                    00000001800798d0 f   libmx:libmx.dll
 0001:000788d6       mxSetField_730             00000001800798d6 f   libmx:libmx.dll
 0001:000788dc       mxDestroyArray             00000001800798dc f   libmx:libmx.dll
 0001:000788e2       mxCreateDoubleMatrix_730   00000001800798e2 f   libmx:libmx.dll
 0001:000788e8       mxCreateDoubleScalar       00000001800798e8 f   libmx:libmx.dll
 0001:000788ee       mxCreateString             00000001800798ee f   libmx:libmx.dll
 0001:000788f4       mxCreateCellMatrix_730     00000001800798f4 f   libmx:libmx.dll
 0001:000788fa       mxCreateStructMatrix_730   00000001800798fa f   libmx:libmx.dll
 0001:00078900       mxDuplicateArray           0000000180079900 f   libmx:libmx.dll
 0001:00078906       mxIsEmpty                  0000000180079906 f   libmx:libmx.dll
 0001:0007890c       mxCalloc                   000000018007990c f   libmx:libmx.dll
 0001:00078912       mxGetClassID               0000000180079912 f   libmx:libmx.dll
 0001:00078918       mxIsNumeric                0000000180079918 f   libmx:libmx.dll
 0001:0007891e       mxIsChar                   000000018007991e f   libmx:libmx.dll
 0001:00078924       mxIsComplex                0000000180079924 f   libmx:libmx.dll
 0001:0007892a       mxGetM                     000000018007992a f   libmx:libmx.dll
 0001:00078930       mxGetN                     0000000180079930 f   libmx:libmx.dll
 0001:00078936       mxGetString_730            0000000180079936 f   libmx:libmx.dll
 0001:0007893c       mxGetScalar                000000018007993c f   libmx:libmx.dll
 0001:00078942       mxGetString_700            0000000180079942 f   libmx:libmx.dll
 0001:00078948       mxFree                     0000000180079948 f   libmx:libmx.dll
 0001:0007894e       mxArrayToString            000000018007994e f   libmx:libmx.dll
 0001:00078954       mxGetNumberOfElements      0000000180079954 f   libmx:libmx.dll
 0001:0007895a       mxGetField_700             000000018007995a f   libmx:libmx.dll
 0001:00078960       mxSetFieldByNumber_700     0000000180079960 f   libmx:libmx.dll
 0001:00078966       mxCreateStructArray_700    0000000180079966 f   libmx:libmx.dll
 0001:0007896c       mxGetData                  000000018007996c f   libmx:libmx.dll
 0001:00078972       mxCreateNumericArray_700   0000000180079972 f   libmx:libmx.dll
 0001:00078978       mxIsLogical                0000000180079978 f   libmx:libmx.dll
 0001:0007897e       mxCreateDoubleMatrix_700   000000018007997e f   libmx:libmx.dll
 0001:00078984       mxCreateCellMatrix_700     0000000180079984 f   libmx:libmx.dll
 0001:0007898a       mxSetCell_700              000000018007998a f   libmx:libmx.dll
 0001:00078990       mxGetCell_700              0000000180079990 f   libmx:libmx.dll
 0001:00078996       mxGetClassName             0000000180079996 f   libmx:libmx.dll
 0001:0007899c       mxSetField_700             000000018007999c f   libmx:libmx.dll
 0001:000789a2       mxAddField                 00000001800799a2 f   libmx:libmx.dll
 0001:000789a8       mxIsStruct                 00000001800799a8 f   libmx:libmx.dll
 0001:000789ae       mxIsA                      00000001800799ae f   libmx:libmx.dll
 0001:000789b4       mxIsClass                  00000001800799b4 f   libmx:libmx.dll
 0001:000789ba       mxGetLogicals              00000001800799ba f   libmx:libmx.dll
 0001:000789c0       mxIsSparse                 00000001800799c0 f   libmx:libmx.dll
 0001:000789c6       mxGetFieldByNumber_700     00000001800799c6 f   libmx:libmx.dll
 0001:000789cc       mxGetFieldNameByNumber     00000001800799cc f   libmx:libmx.dll
 0001:000789d2       mxGetNumberOfFields        00000001800799d2 f   libmx:libmx.dll
 0001:000789d8       mxCreateStructMatrix_700   00000001800799d8 f   libmx:libmx.dll
 0001:000789de       mxGetFieldNumber           00000001800799de f   libmx:libmx.dll
 0001:000789e4       mxIsNaN                    00000001800799e4 f   libmx:libmx.dll
 0001:000789ea       mxGetImagData              00000001800799ea f   libmx:libmx.dll
 0001:000789f0       mxArrayClassIDName         00000001800799f0 f   libmx:libmx.dll
 0001:000789f6       mxCreateNumericMatrix_700  00000001800799f6 f   libmx:libmx.dll
 0001:000789fc       mxCalcSingleSubscript_700  00000001800799fc f   libmx:libmx.dll
 0001:00078a02       mxGetDimensions_700        0000000180079a02 f   libmx:libmx.dll
 0001:00078a08       mxGetNumberOfDimensions_700 0000000180079a08 f   libmx:libmx.dll
 0001:00078a0e       mxGetElementSize           0000000180079a0e f   libmx:libmx.dll
 0001:00078a14       mxCreateStringFromNChars_700 0000000180079a14 f   libmx:libmx.dll
 0001:00078a1a       mxIsLogicalScalarTrue      0000000180079a1a f   libmx:libmx.dll
 0001:00078a20       mxCreateLogicalScalar      0000000180079a20 f   libmx:libmx.dll
 0001:00078a26       mexErrMsgTxt               0000000180079a26 f   libmex:libmex.dll
 0001:00078a2c       mexWarnMsgTxt              0000000180079a2c f   libmex:libmex.dll
 0001:00078a32       mexCallMATLAB              0000000180079a32 f   libmex:libmex.dll
 0001:00078a38       mexUnlock                  0000000180079a38 f   libmex:libmex.dll
 0001:00078a3e       mexIsLocked                0000000180079a3e f   libmex:libmex.dll
 0001:00078a44       mexMakeArrayPersistent     0000000180079a44 f   libmex:libmex.dll
 0001:00078a4a       mexLock                    0000000180079a4a f   libmex:libmex.dll
 0001:00078a50       mexMakeMemoryPersistent    0000000180079a50 f   libmex:libmex.dll
 0001:00078a56       mexSetTrapFlag             0000000180079a56 f   libmex:libmex.dll
 0001:00078a5c       mexPutVariable             0000000180079a5c f   libmex:libmex.dll
 0001:00078a62       mexGetVariable             0000000180079a62 f   libmex:libmex.dll
 0001:00078a68       mexFunctionName            0000000180079a68 f   libmex:libmex.dll
 0001:00078a6e       ssRegisterDataTypeFxpFSlopeFixExpBias 0000000180079a6e f   libfixedpoint:libfixedpoint.dll
 0001:00078a74       ssRegisterDataTypeFxpScaledDouble 0000000180079a74 f   libfixedpoint:libfixedpoint.dll
 0001:00078a7a       utMalloc                   0000000180079a7a f   libut:libut.dll
 0001:00078a80       utFree                     0000000180079a80 f   libut:libut.dll
 0001:00078a86       utCPUtime                  0000000180079a86 f   libut:libut.dll
 0001:00078a8c       utVSNprintf                0000000180079a8c f   libut:libut.dll
 0001:00078a92       utCalloc                   0000000180079a92 f   libut:libut.dll
 0001:00078a98       utRealloc                  0000000180079a98 f   libut:libut.dll
 0001:00078a9e       muDoubleScalarAbs          0000000180079a9e f   libmwmathutil:libmwmathutil.dll
 0001:00078aa4       muDoubleScalarCos          0000000180079aa4 f   libmwmathutil:libmwmathutil.dll
 0001:00078aaa       muDoubleScalarSin          0000000180079aaa f   libmwmathutil:libmwmathutil.dll
 0001:00078ab0       muDoubleScalarAtan         0000000180079ab0 f   libmwmathutil:libmwmathutil.dll
 0001:00078ab6       muDoubleScalarAtan2        0000000180079ab6 f   libmwmathutil:libmwmathutil.dll
 0001:00078abc       muDoubleScalarSqrt         0000000180079abc f   libmwmathutil:libmwmathutil.dll
 0001:00078ac2       emlrtCreateRootTLS         0000000180079ac2 f   libemlrt:libemlrt.dll
 0001:00078ac8       emlrtDestroyRootTLS        0000000180079ac8 f   libemlrt:libemlrt.dll
 0001:00078ace       emlrtCheckBuiltInR2012b    0000000180079ace f   libemlrt:libemlrt.dll
 0001:00078ad4       emlrtCheckVsBuiltInR2012b  0000000180079ad4 f   libemlrt:libemlrt.dll
 0001:00078ada       emlrtCheckEnumR2012b       0000000180079ada f   libemlrt:libemlrt.dll
 0001:00078ae0       emlrtCreateEnumR2012b      0000000180079ae0 f   libemlrt:libemlrt.dll
 0001:00078ae6       emlrtGetEnumElementR2009a  0000000180079ae6 f   libemlrt:libemlrt.dll
 0001:00078aec       emlrtCreateReference       0000000180079aec f   libemlrt:libemlrt.dll
 0001:00078af2       emlrtImportVsFiArrayR2009b 0000000180079af2 f   libemlrt:libemlrt.dll
 0001:00078af8       emlrtNameCapturePostProcessR2012a 0000000180079af8 f   libemlrt:libemlrt.dll
 0001:00078afe       emlrtExtractMessageId      0000000180079afe f   libemlrt:libemlrt.dll
 0001:00078b04       emlrtTranslateMessageIDtoLCPstring 0000000180079b04 f   libemlrt:libemlrt.dll
 0001:00078b0a       emlrtForLoopVectorIsValidR2011b 0000000180079b0a f   libemlrt:libemlrt.dll
 0001:00078b10       emlrtTranslateUTF16MessagetoLCPstring 0000000180079b10 f   libemlrt:libemlrt.dll
 0001:00078b16       emlrtGetEnumUnderlyingArrayR2009a 0000000180079b16 f   libemlrt:libemlrt.dll
 0001:00078b1c       emlrtIsEnumR2009a          0000000180079b1c f   libemlrt:libemlrt.dll
 0001:00078b22       memset                     0000000180079b22 f   MSVCRT:MSVCR110.dll
 0001:00078b28       strlen                     0000000180079b28 f   MSVCRT:MSVCR110.dll
 0001:00078b30       __GSHandlerCheck           0000000180079b30 f   MSVCRT:gshandler.obj
 0001:00078b50       __GSHandlerCheckCommon     0000000180079b50 f   MSVCRT:gshandler.obj
 0001:00078bd0       __chkstk                   0000000180079bd0 f   MSVCRT:chkstk.obj
 0001:00078bd0       _alloca_probe              0000000180079bd0     MSVCRT:chkstk.obj
 0001:00078c30       __security_check_cookie    0000000180079c30 f   MSVCRT:amdsecgs.obj
 0001:00078c50       __raise_securityfailure    0000000180079c50 f   MSVCRT:gs_report.obj
 0001:00078c9c       __report_gsfailure         0000000180079c9c f   MSVCRT:gs_report.obj
 0001:00078d70       __report_rangecheckfailure 0000000180079d70 f   MSVCRT:gs_report.obj
 0001:00078d84       __report_securityfailure   0000000180079d84 f   MSVCRT:gs_report.obj
 0001:00078e20       __report_securityfailureEx 0000000180079e20 f   MSVCRT:gs_report.obj
 0001:00078f2e       memcpy                     0000000180079f2e f   MSVCRT:MSVCR110.dll
 0001:00078f34       strcat                     0000000180079f34 f   MSVCRT:MSVCR110.dll
 0001:00078f3a       strcmp                     0000000180079f3a f   MSVCRT:MSVCR110.dll
 0001:00078f40       sprintf                    0000000180079f40 f   MSVCRT:MSVCR110.dll
 0001:00078f46       free                       0000000180079f46 f   MSVCRT:MSVCR110.dll
 0001:00078f4c       malloc                     0000000180079f4c f   MSVCRT:MSVCR110.dll
 0001:00078fb4       NtCurrentTeb               0000000180079fb4 f i MSVCRT:crtdll.obj
 0001:00078fc0       _CRT_INIT                  0000000180079fc0 f   MSVCRT:crtdll.obj
 0001:0007920c       _DllMainCRTStartup         000000018007a20c f   MSVCRT:crtdll.obj
 0001:00079382       _setjmp                    000000018007a382 f   MSVCRT:MSVCR110.dll
 0001:00079388       strncpy                    000000018007a388 f   MSVCRT:MSVCR110.dll
 0001:0007938e       longjmp                    000000018007a38e f   MSVCRT:MSVCR110.dll
 0001:00079394       strncmp                    000000018007a394 f   MSVCRT:MSVCR110.dll
 0001:0007939a       ceil                       000000018007a39a f   MSVCRT:MSVCR110.dll
 0001:000793a0       strrchr                    000000018007a3a0 f   MSVCRT:MSVCR110.dll
 0001:000793a6       ldexp                      000000018007a3a6 f   MSVCRT:MSVCR110.dll
 0001:000793ac       __crt_debugger_hook        000000018007a3ac f   MSVCRT:MSVCR110.dll
 0001:000793b2       __crtUnhandledException    000000018007a3b2 f   MSVCRT:MSVCR110.dll
 0001:000793b8       __crtTerminateProcess      000000018007a3b8 f   MSVCRT:MSVCR110.dll
 0001:000793be       __crtCaptureCurrentContext 000000018007a3be f   MSVCRT:MSVCR110.dll
 0001:000793c4       __crtCapturePreviousContext 000000018007a3c4 f   MSVCRT:MSVCR110.dll
 0001:000793ca       __CppXcptFilter            000000018007a3ca f   MSVCRT:MSVCR110.dll
 0001:000793d0       _amsg_exit                 000000018007a3d0 f   MSVCRT:MSVCR110.dll
 0001:000793e0       _FindPESection             000000018007a3e0 f   MSVCRT:pesect.obj
 0001:00079430       _IsNonwritableInCurrentImage 000000018007a430 f   MSVCRT:pesect.obj
 0001:00079480       _ValidateImageBase         000000018007a480 f   MSVCRT:pesect.obj
 0001:000794b0       __atonexitinit             000000018007a4b0 f   MSVCRT:atonexit.obj
 0001:00079500       _onexit                    000000018007a500 f   MSVCRT:atonexit.obj
 0001:000795b0       atexit                     000000018007a5b0 f   MSVCRT:atonexit.obj
 0001:000795c8       __security_init_cookie     000000018007a5c8 f   MSVCRT:gs_support.obj
 0001:00079680       DllMain                    000000018007a680 f   MSVCRT:dllmain.obj
 0001:000796a4       _malloc_crt                000000018007a6a4 f   MSVCRT:MSVCR110.dll
 0001:000796ac       _RTC_Initialize            000000018007a6ac f   MSVCRT:initsect.obj
 0001:000796e4       _RTC_Terminate             000000018007a6e4 f   MSVCRT:initsect.obj
 0001:0007971c       _initterm                  000000018007a71c f   MSVCRT:MSVCR110.dll
 0001:00079722       _initterm_e                000000018007a722 f   MSVCRT:MSVCR110.dll
 0001:00079728       __clean_type_info_names    000000018007a728 f   MSVCRT:tncleanup.obj
 0001:00079734       __C_specific_handler       000000018007a734 f   MSVCRT:MSVCR110.dll
 0001:0007973a       _lock                      000000018007a73a f   MSVCRT:MSVCR110.dll
 0001:00079740       _unlock                    000000018007a740 f   MSVCRT:MSVCR110.dll
 0001:00079746       _calloc_crt                000000018007a746 f   MSVCRT:MSVCR110.dll
 0001:0007974c       __dllonexit                000000018007a74c f   MSVCRT:MSVCR110.dll
 0001:00079752       __clean_type_info_names_internal 000000018007a752 f   MSVCRT:MSVCR110.dll
 0001:00079758       IsDebuggerPresent          000000018007a758 f   kernel32:KERNEL32.dll
 0001:0007975e       IsProcessorFeaturePresent  000000018007a75e f   kernel32:KERNEL32.dll
 0001:00079764       EncodePointer              000000018007a764 f   kernel32:KERNEL32.dll
 0001:0007976a       DecodePointer              000000018007a76a f   kernel32:KERNEL32.dll
 0001:00079770       QueryPerformanceCounter    000000018007a770 f   kernel32:KERNEL32.dll
 0001:00079776       GetCurrentThreadId         000000018007a776 f   kernel32:KERNEL32.dll
 0001:0007977c       GetSystemTimeAsFileTime    000000018007a77c f   kernel32:KERNEL32.dll
 0001:00079782       GetTickCount64             000000018007a782 f   kernel32:KERNEL32.dll
 0001:00079788       DisableThreadLibraryCalls  000000018007a788 f   kernel32:KERNEL32.dll
 0002:00000000       __imp_IsProcessorFeaturePresent 000000018007b000     kernel32:KERNEL32.dll
 0002:00000008       __imp_IsDebuggerPresent    000000018007b008     kernel32:KERNEL32.dll
 0002:00000010       __imp_DecodePointer        000000018007b010     kernel32:KERNEL32.dll
 0002:00000018       __imp_QueryPerformanceCounter 000000018007b018     kernel32:KERNEL32.dll
 0002:00000020       __imp_GetCurrentThreadId   000000018007b020     kernel32:KERNEL32.dll
 0002:00000028       __imp_GetSystemTimeAsFileTime 000000018007b028     kernel32:KERNEL32.dll
 0002:00000030       __imp_GetTickCount64       000000018007b030     kernel32:KERNEL32.dll
 0002:00000038       __imp_DisableThreadLibraryCalls 000000018007b038     kernel32:KERNEL32.dll
 0002:00000040       __imp_EncodePointer        000000018007b040     kernel32:KERNEL32.dll
 0002:00000048       \177KERNEL32_NULL_THUNK_DATA 000000018007b048     kernel32:KERNEL32.dll
 0002:00000050       __imp___clean_type_info_names_internal 000000018007b050     MSVCRT:MSVCR110.dll
 0002:00000058       __imp__onexit              000000018007b058     MSVCRT:MSVCR110.dll
 0002:00000060       __imp___dllonexit          000000018007b060     MSVCRT:MSVCR110.dll
 0002:00000068       __imp__calloc_crt          000000018007b068     MSVCRT:MSVCR110.dll
 0002:00000070       __imp__unlock              000000018007b070     MSVCRT:MSVCR110.dll
 0002:00000078       __imp__lock                000000018007b078     MSVCRT:MSVCR110.dll
 0002:00000080       __imp___C_specific_handler 000000018007b080     MSVCRT:MSVCR110.dll
 0002:00000088       __imp__initterm_e          000000018007b088     MSVCRT:MSVCR110.dll
 0002:00000090       __imp__initterm            000000018007b090     MSVCRT:MSVCR110.dll
 0002:00000098       __imp__malloc_crt          000000018007b098     MSVCRT:MSVCR110.dll
 0002:000000a0       __imp__amsg_exit           000000018007b0a0     MSVCRT:MSVCR110.dll
 0002:000000a8       __imp___CppXcptFilter      000000018007b0a8     MSVCRT:MSVCR110.dll
 0002:000000b0       __imp___crtCapturePreviousContext 000000018007b0b0     MSVCRT:MSVCR110.dll
 0002:000000b8       __imp___crtCaptureCurrentContext 000000018007b0b8     MSVCRT:MSVCR110.dll
 0002:000000c0       __imp___crtTerminateProcess 000000018007b0c0     MSVCRT:MSVCR110.dll
 0002:000000c8       __imp___crtUnhandledException 000000018007b0c8     MSVCRT:MSVCR110.dll
 0002:000000d0       __imp___crt_debugger_hook  000000018007b0d0     MSVCRT:MSVCR110.dll
 0002:000000d8       __imp_ldexp                000000018007b0d8     MSVCRT:MSVCR110.dll
 0002:000000e0       __imp_strrchr              000000018007b0e0     MSVCRT:MSVCR110.dll
 0002:000000e8       __imp_ceil                 000000018007b0e8     MSVCRT:MSVCR110.dll
 0002:000000f0       __imp_strncmp              000000018007b0f0     MSVCRT:MSVCR110.dll
 0002:000000f8       __imp_longjmp              000000018007b0f8     MSVCRT:MSVCR110.dll
 0002:00000100       __imp_strncpy              000000018007b100     MSVCRT:MSVCR110.dll
 0002:00000108       __imp__setjmp              000000018007b108     MSVCRT:MSVCR110.dll
 0002:00000110       __imp_malloc               000000018007b110     MSVCRT:MSVCR110.dll
 0002:00000118       __imp_free                 000000018007b118     MSVCRT:MSVCR110.dll
 0002:00000120       __imp_sprintf              000000018007b120     MSVCRT:MSVCR110.dll
 0002:00000128       __imp_strcmp               000000018007b128     MSVCRT:MSVCR110.dll
 0002:00000130       __imp_strcat               000000018007b130     MSVCRT:MSVCR110.dll
 0002:00000138       __imp_memcpy               000000018007b138     MSVCRT:MSVCR110.dll
 0002:00000140       __imp_strlen               000000018007b140     MSVCRT:MSVCR110.dll
 0002:00000148       __imp_memset               000000018007b148     MSVCRT:MSVCR110.dll
 0002:00000150       \177MSVCR110_NULL_THUNK_DATA 000000018007b150     MSVCRT:MSVCR110.dll
 0002:00000158       __imp_emlrtIsEnumR2009a    000000018007b158     libemlrt:libemlrt.dll
 0002:00000160       __imp_emlrtGetEnumUnderlyingArrayR2009a 000000018007b160     libemlrt:libemlrt.dll
 0002:00000168       __imp_emlrtTranslateUTF16MessagetoLCPstring 000000018007b168     libemlrt:libemlrt.dll
 0002:00000170       __imp_emlrtForLoopVectorIsValidR2011b 000000018007b170     libemlrt:libemlrt.dll
 0002:00000178       __imp_emlrtTranslateMessageIDtoLCPstring 000000018007b178     libemlrt:libemlrt.dll
 0002:00000180       __imp_emlrtExtractMessageId 000000018007b180     libemlrt:libemlrt.dll
 0002:00000188       __imp_emlrtNameCapturePostProcessR2012a 000000018007b188     libemlrt:libemlrt.dll
 0002:00000190       __imp_emlrtImportVsFiArrayR2009b 000000018007b190     libemlrt:libemlrt.dll
 0002:00000198       __imp_emlrtCreateReference 000000018007b198     libemlrt:libemlrt.dll
 0002:000001a0       __imp_emlrtGetEnumElementR2009a 000000018007b1a0     libemlrt:libemlrt.dll
 0002:000001a8       __imp_emlrtCreateEnumR2012b 000000018007b1a8     libemlrt:libemlrt.dll
 0002:000001b0       __imp_emlrtCheckEnumR2012b 000000018007b1b0     libemlrt:libemlrt.dll
 0002:000001b8       __imp_emlrtCheckVsBuiltInR2012b 000000018007b1b8     libemlrt:libemlrt.dll
 0002:000001c0       __imp_emlrtCheckBuiltInR2012b 000000018007b1c0     libemlrt:libemlrt.dll
 0002:000001c8       __imp_emlrtDestroyRootTLS  000000018007b1c8     libemlrt:libemlrt.dll
 0002:000001d0       __imp_emlrtCreateRootTLS   000000018007b1d0     libemlrt:libemlrt.dll
 0002:000001d8       \177libemlrt_NULL_THUNK_DATA 000000018007b1d8     libemlrt:libemlrt.dll
 0002:000001e0       __imp_ssRegisterDataTypeFxpScaledDouble 000000018007b1e0     libfixedpoint:libfixedpoint.dll
 0002:000001e8       __imp_ssRegisterDataTypeFxpFSlopeFixExpBias 000000018007b1e8     libfixedpoint:libfixedpoint.dll
 0002:000001f0       \177libfixedpoint_NULL_THUNK_DATA 000000018007b1f0     libfixedpoint:libfixedpoint.dll
 0002:000001f8       __imp_mexMakeArrayPersistent 000000018007b1f8     libmex:libmex.dll
 0002:00000200       __imp_mexLock              000000018007b200     libmex:libmex.dll
 0002:00000208       __imp_mexMakeMemoryPersistent 000000018007b208     libmex:libmex.dll
 0002:00000210       __imp_mexIsLocked          000000018007b210     libmex:libmex.dll
 0002:00000218       __imp_mexPutVariable       000000018007b218     libmex:libmex.dll
 0002:00000220       __imp_mexGetVariable       000000018007b220     libmex:libmex.dll
 0002:00000228       __imp_mexFunctionName      000000018007b228     libmex:libmex.dll
 0002:00000230       __imp_mexErrMsgTxt         000000018007b230     libmex:libmex.dll
 0002:00000238       __imp_mexUnlock            000000018007b238     libmex:libmex.dll
 0002:00000240       __imp_mexCallMATLAB        000000018007b240     libmex:libmex.dll
 0002:00000248       __imp_mexSetTrapFlag       000000018007b248     libmex:libmex.dll
 0002:00000250       __imp_mexWarnMsgTxt        000000018007b250     libmex:libmex.dll
 0002:00000258       \177libmex_NULL_THUNK_DATA 000000018007b258     libmex:libmex.dll
 0002:00000260       __imp_muDoubleScalarCos    000000018007b260     libmwmathutil:libmwmathutil.dll
 0002:00000268       __imp_muDoubleScalarSqrt   000000018007b268     libmwmathutil:libmwmathutil.dll
 0002:00000270       __imp_muDoubleScalarAtan2  000000018007b270     libmwmathutil:libmwmathutil.dll
 0002:00000278       __imp_muDoubleScalarAtan   000000018007b278     libmwmathutil:libmwmathutil.dll
 0002:00000280       __imp_muDoubleScalarSin    000000018007b280     libmwmathutil:libmwmathutil.dll
 0002:00000288       __imp_muDoubleScalarAbs    000000018007b288     libmwmathutil:libmwmathutil.dll
 0002:00000290       \177libmwmathutil_NULL_THUNK_DATA 000000018007b290     libmwmathutil:libmwmathutil.dll
 0002:00000298       __imp_mxCreateDoubleScalar 000000018007b298     libmx:libmx.dll
 0002:000002a0       __imp_mxCreateString       000000018007b2a0     libmx:libmx.dll
 0002:000002a8       __imp_mxCreateCellMatrix_730 000000018007b2a8     libmx:libmx.dll
 0002:000002b0       __imp_mxCreateStructMatrix_730 000000018007b2b0     libmx:libmx.dll
 0002:000002b8       __imp_mxCreateDoubleMatrix_730 000000018007b2b8     libmx:libmx.dll
 0002:000002c0       __imp_mxDuplicateArray     000000018007b2c0     libmx:libmx.dll
 0002:000002c8       __imp_mxIsEmpty            000000018007b2c8     libmx:libmx.dll
 0002:000002d0       __imp_mxCreateLogicalScalar 000000018007b2d0     libmx:libmx.dll
 0002:000002d8       __imp_mxIsLogicalScalarTrue 000000018007b2d8     libmx:libmx.dll
 0002:000002e0       __imp_mxCreateStringFromNChars_700 000000018007b2e0     libmx:libmx.dll
 0002:000002e8       __imp_mxGetElementSize     000000018007b2e8     libmx:libmx.dll
 0002:000002f0       __imp_mxGetNumberOfDimensions_700 000000018007b2f0     libmx:libmx.dll
 0002:000002f8       __imp_mxGetDimensions_700  000000018007b2f8     libmx:libmx.dll
 0002:00000300       __imp_mxCalcSingleSubscript_700 000000018007b300     libmx:libmx.dll
 0002:00000308       __imp_mxCreateNumericMatrix_700 000000018007b308     libmx:libmx.dll
 0002:00000310       __imp_mxArrayClassIDName   000000018007b310     libmx:libmx.dll
 0002:00000318       __imp_mxGetImagData        000000018007b318     libmx:libmx.dll
 0002:00000320       __imp_mxIsNaN              000000018007b320     libmx:libmx.dll
 0002:00000328       __imp_mxGetFieldNumber     000000018007b328     libmx:libmx.dll
 0002:00000330       __imp_mxCreateStructMatrix_700 000000018007b330     libmx:libmx.dll
 0002:00000338       __imp_mxGetNumberOfFields  000000018007b338     libmx:libmx.dll
 0002:00000340       __imp_mxGetFieldNameByNumber 000000018007b340     libmx:libmx.dll
 0002:00000348       __imp_mxGetFieldByNumber_700 000000018007b348     libmx:libmx.dll
 0002:00000350       __imp_mxIsSparse           000000018007b350     libmx:libmx.dll
 0002:00000358       __imp_mxGetLogicals        000000018007b358     libmx:libmx.dll
 0002:00000360       __imp_mxIsClass            000000018007b360     libmx:libmx.dll
 0002:00000368       __imp_mxIsA                000000018007b368     libmx:libmx.dll
 0002:00000370       __imp_mxIsStruct           000000018007b370     libmx:libmx.dll
 0002:00000378       __imp_mxAddField           000000018007b378     libmx:libmx.dll
 0002:00000380       __imp_mxSetField_700       000000018007b380     libmx:libmx.dll
 0002:00000388       __imp_mxGetClassName       000000018007b388     libmx:libmx.dll
 0002:00000390       __imp_mxGetCell_700        000000018007b390     libmx:libmx.dll
 0002:00000398       __imp_mxSetCell_700        000000018007b398     libmx:libmx.dll
 0002:000003a0       __imp_mxCreateCellMatrix_700 000000018007b3a0     libmx:libmx.dll
 0002:000003a8       __imp_mxCreateDoubleMatrix_700 000000018007b3a8     libmx:libmx.dll
 0002:000003b0       __imp_mxIsLogical          000000018007b3b0     libmx:libmx.dll
 0002:000003b8       __imp_mxCreateNumericArray_700 000000018007b3b8     libmx:libmx.dll
 0002:000003c0       __imp_mxGetData            000000018007b3c0     libmx:libmx.dll
 0002:000003c8       __imp_mxCreateStructArray_700 000000018007b3c8     libmx:libmx.dll
 0002:000003d0       __imp_mxSetFieldByNumber_700 000000018007b3d0     libmx:libmx.dll
 0002:000003d8       __imp_mxGetField_700       000000018007b3d8     libmx:libmx.dll
 0002:000003e0       __imp_mxGetNumberOfElements 000000018007b3e0     libmx:libmx.dll
 0002:000003e8       __imp_mxArrayToString      000000018007b3e8     libmx:libmx.dll
 0002:000003f0       __imp_mxFree               000000018007b3f0     libmx:libmx.dll
 0002:000003f8       __imp_mxGetString_700      000000018007b3f8     libmx:libmx.dll
 0002:00000400       __imp_mxGetScalar          000000018007b400     libmx:libmx.dll
 0002:00000408       __imp_mxGetString_730      000000018007b408     libmx:libmx.dll
 0002:00000410       __imp_mxGetN               000000018007b410     libmx:libmx.dll
 0002:00000418       __imp_mxGetM               000000018007b418     libmx:libmx.dll
 0002:00000420       __imp_mxIsComplex          000000018007b420     libmx:libmx.dll
 0002:00000428       __imp_mxIsChar             000000018007b428     libmx:libmx.dll
 0002:00000430       __imp_mxIsNumeric          000000018007b430     libmx:libmx.dll
 0002:00000438       __imp_mxGetClassID         000000018007b438     libmx:libmx.dll
 0002:00000440       __imp_mxGetPr              000000018007b440     libmx:libmx.dll
 0002:00000448       __imp_mxDestroyArray       000000018007b448     libmx:libmx.dll
 0002:00000450       __imp_mxSetField_730       000000018007b450     libmx:libmx.dll
 0002:00000458       __imp_mxCalloc             000000018007b458     libmx:libmx.dll
 0002:00000460       \177libmx_NULL_THUNK_DATA  000000018007b460     libmx:libmx.dll
 0002:00000468       __imp_utRealloc            000000018007b468     libut:libut.dll
 0002:00000470       __imp_utCalloc             000000018007b470     libut:libut.dll
 0002:00000478       __imp_utVSNprintf          000000018007b478     libut:libut.dll
 0002:00000480       __imp_utCPUtime            000000018007b480     libut:libut.dll
 0002:00000488       __imp_utFree               000000018007b488     libut:libut.dll
 0002:00000490       __imp_utMalloc             000000018007b490     libut:libut.dll
 0002:00000498       \177libut_NULL_THUNK_DATA  000000018007b498     libut:libut.dll
 0002:000004a0       __xc_a                     000000018007b4a0     MSVCRT:cinitexe.obj
 0002:000004a8       __xc_z                     000000018007b4a8     MSVCRT:cinitexe.obj
 0002:000004b0       __xi_a                     000000018007b4b0     MSVCRT:cinitexe.obj
 0002:000004c8       __xi_z                     000000018007b4c8     MSVCRT:cinitexe.obj
 0002:000004d0       __real@0000000000000000    000000018007b4d0     c1_test.obj
 0002:000004d8       __real@3fe0000000000000    000000018007b4d8     c1_test.obj
 0002:000004e0       __real@3febb67ae8584caa    000000018007b4e0     c1_test.obj
 0002:000004e8       __real@3ff0000000000000    000000018007b4e8     c1_test.obj
 0002:000004f0       __real@4010000000000000    000000018007b4f0     c1_test.obj
 0002:000004f8       __real@4018000000000000    000000018007b4f8     c1_test.obj
 0002:00000500       __real@4024000000000000    000000018007b500     c1_test.obj
 0002:00000508       __real@41987b5f10000000    000000018007b508     c1_test.obj
 0002:00000510       __real@41994b5c9c000000    000000018007b510     c1_test.obj
 0002:00000518       __real@41d9079ef8800000    000000018007b518     c1_test.obj
 0002:00000520       __real@41d975b569400000    000000018007b520     c1_test.obj
 0002:00000528       __real@bfe0000000000000    000000018007b528     c1_test.obj
 0002:00000530       __real@bfebb67ae8584caa    000000018007b530     c1_test.obj
 0002:00000538       __real@bff0000000000000    000000018007b538     c1_test.obj
 0002:00000540       __xmm@80000000000000008000000000000000 000000018007b540     c1_test.obj
 0002:00000550       __real@4000000000000000    000000018007b550     c2_test.obj
 0002:00000558       __real@4008000000000000    000000018007b558     c2_test.obj
 0002:00000560       __real@41c1cc4dc9000000    000000018007b560     c2_test.obj
 0002:00000568       __real@41d4b98267c00000    000000018007b568     c2_test.obj
 0002:00000570       __real@41e1856bbd200000    000000018007b570     c2_test.obj
 0002:00000578       __real@41ee0a7cef800000    000000018007b578     c2_test.obj
 0002:00000580       __real@41c8942505000000    000000018007b580     c3_test.obj
 0002:00000588       __real@41d1710afd800000    000000018007b588     c3_test.obj
 0002:00000590       __real@41d7163987000000    000000018007b590     c3_test.obj
 0002:00000598       __real@41ec360f01600000    000000018007b598     c3_test.obj
 0002:000005a0       __real@3fb999999999999a    000000018007b5a0     c4_test.obj
 0002:000005a8       __real@41bae8f924000000    000000018007b5a8     c4_test.obj
 0002:000005b0       __real@41d2c92f65000000    000000018007b5b0     c4_test.obj
 0002:000005b8       __real@41eb943a08200000    000000018007b5b8     c4_test.obj
 0002:000005c0       __real@41eeb53030e00000    000000018007b5c0     c4_test.obj
 0002:000005c8       __real@3f55c41f9188c059    000000018007b5c8     c5_test.obj
 0002:000005d0       __real@4014000000000000    000000018007b5d0     c5_test.obj
 0002:000005d8       __real@406e000000000000    000000018007b5d8     c5_test.obj
 0002:000005e0       __real@4074000000000000    000000018007b5e0     c5_test.obj
 0002:000005e8       __real@407e000000000000    000000018007b5e8     c5_test.obj
 0002:000005f0       __real@4084000000000000    000000018007b5f0     c5_test.obj
 0002:000005f8       __real@41dbf8623c400000    000000018007b5f8     c5_test.obj
 0002:00000600       __real@41e0eceb90c00000    000000018007b600     c5_test.obj
 0002:00000608       __real@41ecf7084f800000    000000018007b608     c5_test.obj
 0002:00000610       __real@41ef1323c7200000    000000018007b610     c5_test.obj
 0002:00000618       __real@3fa999999999999a    000000018007b618     c6_test.obj
 0002:00000620       __real@3fd0000000000000    000000018007b620     c6_test.obj
 0002:00000628       __real@41d203e1e0800000    000000018007b628     c6_test.obj
 0002:00000630       __real@41d8d5873e800000    000000018007b630     c6_test.obj
 0002:00000638       __real@41e6bb623f000000    000000018007b638     c6_test.obj
 0002:00000640       __real@41e6e5246ec00000    000000018007b640     c6_test.obj
 0002:00000648       __real@bfa999999999999a    000000018007b648     c6_test.obj
 0002:00000650       __real@c010000000000000    000000018007b650     c6_test.obj
 0002:00000660       DYNAMIC_DIMENSION_DEF      000000018007b660     test_sfun_registry.obj
 0002:00000680       _ssBadLevel2InputAccessMsg 000000018007b680     test_sfun_registry.obj
 0002:00000810       _ssBadLevel2DirectFeedMsg  000000018007b810     test_sfun_registry.obj
 0002:00000950       _ssBadLevel2DirectFeedSolutionMsg 000000018007b950     test_sfun_registry.obj
 0002:000009c0       _ssBadLevel2ZeroDirectFeedMsg 000000018007b9c0     test_sfun_registry.obj
 0002:00000b00       _ssBadLevel2ZeroDirectFeedMsg2 000000018007bb00     test_sfun_registry.obj
 0002:00000be8       __real@41602cbca0000000    000000018007bbe8     test_sfun_registry.obj
 0002:00000bf0       __real@4174e22010000000    000000018007bbf0     test_sfun.obj
 0002:00000bf8       __real@41c09a7e98800000    000000018007bbf8     test_sfun.obj
 0002:00000c00       __real@41c439d4aa000000    000000018007bc00     test_sfun.obj
 0002:00000c08       __real@41c5a82d37000000    000000018007bc08     test_sfun.obj
 0002:00000c10       __real@41d03fc151000000    000000018007bc10     test_sfun.obj
 0002:00000c18       __real@41da0d56b0000000    000000018007bc18     test_sfun.obj
 0002:00000c20       __real@41dcff2f77c00000    000000018007bc20     test_sfun.obj
 0002:00000c28       __real@41e256c095400000    000000018007bc28     test_sfun.obj
 0002:00000c30       __real@41e4e67ac3600000    000000018007bc30     test_sfun.obj
 0002:00000c38       __real@41e62c886f200000    000000018007bc38     test_sfun.obj
 0002:00000c40       __real@41ea8f1e72e00000    000000018007bc40     test_sfun.obj
 0002:00000c48       __real@41ea9b1cf3400000    000000018007bc48     test_sfun.obj
 0002:00000c50       __real@41eb5a136b000000    000000018007bc50     test_sfun.obj
 0002:00000c58       __real@41ec173492400000    000000018007bc58     test_sfun.obj
 0002:00000c60       __real@41ed08af7be00000    000000018007bc60     test_sfun.obj
 0002:00000c68       __real@41edc4a9cbe00000    000000018007bc68     test_sfun.obj
 0002:00000c70       ??_C@_09GIFEIFFL@sfprivate?$AA@ 000000018007bc70     sfc_mex:sfc_sf.obj
 0002:00000c80       ??_C@_0CC@JDELABLI@get_machine_and_chart_file_numbe@ 000000018007bc80     sfc_mex:sfc_sf.obj
 0002:00000ca8       ??_C@_0BO@JCKKMPIB@get_sfun_block_specialization?$AA@ 000000018007bca8     sfc_mex:sfc_sf.obj
 0002:00000cd0       ??_C@_0FP@OGBKADON@The?5chart?5name?5?4?4?4?$CFs?5is?5not?5pres@ 000000018007bcd0     sfc_mex:sfc_sf.obj
 0002:00000d30       ??_C@_0FM@KEMGDKHM@The?5chart?5name?5?$CFs?5is?5not?5present@ 000000018007bd30     sfc_mex:sfc_sf.obj
 0002:00000d90       ??_C@_0BD@NMFAPBEK@mdlInitializeSizes?$AA@ 000000018007bd90     sfc_mex:sfc_sf.obj
 0002:00000da4       ??_C@_06EJFCAODB@sfc_sf?$AA@ 000000018007bda4     sfc_mex:sfc_sf.obj
 0002:00000db0       ??_C@_0BJ@PBIFPMMD@mdlInitializeSampleTimes?$AA@ 000000018007bdb0     sfc_mex:sfc_sf.obj
 0002:00000dd0       ??_C@_0FI@CPPGBPPK@Stateflow?5Internal?5Error?3?5?6Error@ 000000018007bdd0     sfc_mex:sfc_sf.obj
 0002:00000e28       ??_C@_02GFKODMMF@sf?$AA@   000000018007be28     sfc_mex:sfc_sf.obj
 0002:00000e30       ??_C@_0CN@GACCLMJH@preload_infomatman_for_rtw_optim@ 000000018007be30     sfc_mex:sfc_sf.obj
 0002:00000e60       ??_C@_07CFINJGKH@Private?$AA@ 000000018007be60     sfc_mex:sfc_sf.obj
 0002:00000e70       ??_C@_0EK@MLFDFPLJ@Stateflow?5Internal?5Error?3?5?6Inter@ 000000018007be70     sfc_mex:sfc_sf.obj
 0002:00000ec0       ??_C@_0BA@OAHFHIKJ@updateBuildInfo?$AA@ 000000018007bec0     sfc_mex:sfc_sf.obj
 0002:00000ed0       ??_C@_0BG@PNKGMGHF@rtw_optimization_info?$AA@ 000000018007bed0     sfc_mex:sfc_sf.obj
 0002:00000ef0       ??_C@_0GC@KEKNFKIJ@Stateflow?5Internal?5Error?3?5?6rtw_o@ 000000018007bef0     sfc_mex:sfc_sf.obj
 0002:00000f58       ??_C@_0BA@PHPHFLPF@chart_inlinable?$AA@ 000000018007bf58     sfc_mex:sfc_sf.obj
 0002:00000f70       ??_C@_0MB@KGDKCEKF@Stateflow?5Internal?5Error?3?5?6Numbe@ 000000018007bf70     sfc_mex:sfc_sf.obj
 0002:00001040       ??_C@_0GN@DNCJEGHD@Stateflow?5Internal?5Error?3?5?6Error@ 000000018007c040     sfc_mex:sfc_sf.obj
 0002:000010b0       ??_C@_0CA@GOKFFBBO@outputEventsWithMultipleCallers?$AA@ 000000018007c0b0     sfc_mex:sfc_sf.obj
 0002:000010d0       ??_C@_0LH@NDHODBLK@Stateflow?5Internal?5Error?3?5?6Numbe@ 000000018007c0d0     sfc_mex:sfc_sf.obj
 0002:00001188       ??_C@_0BB@GEEDBOGK@reusable_outputs?$AA@ 000000018007c188     sfc_mex:sfc_sf.obj
 0002:000011a0       ??_C@_0II@FEBCOBGA@Stateflow?5Internal?5Error?3?5?6Numbe@ 000000018007c1a0     sfc_mex:sfc_sf.obj
 0002:00001228       ??_C@_0BG@HMMHPAKE@expressionable_inputs?$AA@ 000000018007c228     sfc_mex:sfc_sf.obj
 0002:00001240       ??_C@_0BB@MBBOKNEL@listen_for_ctrlc?$AA@ 000000018007c240     sfc_mex:sfc_sf.obj
 0002:00001254       ??_C@_03LOANPFAI@mex?$AA@  000000018007c254     sfc_mex:sfc_sf.obj
 0002:00001258       ??_C@_07HLHKBCBI@sfdebug?$AA@ 000000018007c258     sfc_mex:sfc_sf.obj
 0002:00001260       ??_C@_07MFNNEMOJ@drawnow?$AA@ 000000018007c260     sfc_mex:sfc_sf.obj
 0002:00001268       __real@3fd3333333333333    000000018007c268     sfc_mex:sfc_sf.obj
 0002:00001270       ??_C@_0DG@OJBAPEMA@Internal?5Error?3?5paramsIndex?5?$DN?5?$CFd@ 000000018007c270     sfc_mex:sfc_sf.obj
 0002:000012b0       ??_C@_0BAI@GPDPHGCD@Cannot?5broadcast?5function?5call?5o@ 000000018007c2b0     sfc_mex:sfc_sf.obj
 0002:000013c0       ??_C@_0BBC@NGKHEJAF@Cannot?5enable?1disable?5function?5c@ 000000018007c3c0     sfc_mex:sfc_sf.obj
 0002:000014d8       ??_C@_08HDNBGBNP@bitWidth?$AA@ 000000018007c4d8     sfc_mex:sfc_sf.obj
 0002:000014e8       ??_C@_0BG@MDDFDLDC@resolveToSignalObject?$AA@ 000000018007c4e8     sfc_mex:sfc_sf.obj
 0002:00001500       ??_C@_07KHBFOCMF@varName?$AA@ 000000018007c500     sfc_mex:sfc_sf.obj
 0002:00001508       ??_C@_09LHPHPAOE@isComplex?$AA@ 000000018007c508     sfc_mex:sfc_sf.obj
 0002:00001518       ??_C@_0CM@OAMAJMIG@Failed?5to?5register?5type?5?8?$CFs?8?5wit@ 000000018007c518     sfc_mex:sfc_sf.obj
 0002:00001548       ??_C@_08MLIGMCAH@typeSize?$AA@ 000000018007c548     sfc_mex:sfc_sf.obj
 0002:00001554       ??_C@_05OOLPEHEB@void?$CK?$AA@ 000000018007c554     sfc_mex:sfc_sf.obj
 0002:00001560       ??_C@_0BI@OFLHAMB@vector_of_void_pointers?$AA@ 000000018007c560     sfc_mex:sfc_sf.obj
 0002:00001578       ??_C@_04NBAGBPGE@bias?$AA@ 000000018007c578     sfc_mex:sfc_sf.obj
 0002:00001580       ??_C@_08EGJNFMPO@exponent?$AA@ 000000018007c580     sfc_mex:sfc_sf.obj
 0002:0000158c       ??_C@_05LAHHKLJI@slope?$AA@ 000000018007c58c     sfc_mex:sfc_sf.obj
 0002:00001598       ??_C@_0L@EMMELFNN@wordLength?$AA@ 000000018007c598     sfc_mex:sfc_sf.obj
 0002:000015a8       ??_C@_08EJEJGLGA@isSigned?$AA@ 000000018007c5a8     sfc_mex:sfc_sf.obj
 0002:000015b8       ??_C@_0P@MJIKALJF@isScaledDouble?$AA@ 000000018007c5b8     sfc_mex:sfc_sf.obj
 0002:000015c8       ??_C@_05LFJLPLPG@fixpt?$AA@ 000000018007c5c8     sfc_mex:sfc_sf.obj
 0002:000015d0       ??_C@_07GOBOHMJA@boolean?$AA@ 000000018007c5d0     sfc_mex:sfc_sf.obj
 0002:000015d8       ??_C@_06PKDKHAMA@uint32?$AA@ 000000018007c5d8     sfc_mex:sfc_sf.obj
 0002:000015e0       ??_C@_05GIMEPBJB@int32?$AA@ 000000018007c5e0     sfc_mex:sfc_sf.obj
 0002:000015e8       ??_C@_06JNNCGBKK@uint16?$AA@ 000000018007c5e8     sfc_mex:sfc_sf.obj
 0002:000015f0       ??_C@_05PCMOAPL@int16?$AA@ 000000018007c5f0     sfc_mex:sfc_sf.obj
 0002:000015f8       ??_C@_05BOGOCLFF@uint8?$AA@ 000000018007c5f8     sfc_mex:sfc_sf.obj
 0002:00001600       ??_C@_04DCGBOBJJ@int8?$AA@ 000000018007c600     sfc_mex:sfc_sf.obj
 0002:00001608       ??_C@_06EJFMBPJF@single?$AA@ 000000018007c608     sfc_mex:sfc_sf.obj
 0002:00001610       ??_C@_06BNJCAIGJ@double?$AA@ 000000018007c610     sfc_mex:sfc_sf.obj
 0002:00001618       ??_C@_04GPMDFGEJ@type?$AA@ 000000018007c618     sfc_mex:sfc_sf.obj
 0002:00001620       ??_C@_0O@EIPJLOAA@extModeUpload?$AA@ 000000018007c620     sfc_mex:sfc_sf.obj
 0002:00001630       ??_C@_04IAGNFIBA@size?$AA@ 000000018007c630     sfc_mex:sfc_sf.obj
 0002:00001638       __real@43e0000000000000    000000018007c638     sfc_mex:sfc_sf.obj
 0002:00001640       ??_C@_00CNPNBAHC@?$AA@     000000018007c640     sfc_mex:sfc_sf.obj
 0002:00001644       ??_C@_03PLHFFLIH@ptr?$AA@  000000018007c644     sfc_mex:sfc_sf.obj
 0002:00001648       ??_C@_0BC@HMCIKMPA@requiredStackSize?$AA@ 000000018007c648     sfc_mex:sfc_sf.obj
 0002:00001660       ??_C@_0CB@OCGIMAKA@RegisterMachineParentedDataDwork@ 000000018007c660     sfc_mex:sfc_sf.obj
 0002:00001688       ??_C@_0BD@LFPAKDFC@machineDataVarInfo?$AA@ 000000018007c688     sfc_mex:sfc_sf.obj
 0002:000016a0       ??_C@_09GAJBGLOB@dworkInfo?$AA@ 000000018007c6a0     sfc_mex:sfc_sf.obj
 0002:000016ac       ??_C@_05DGLCPCBN@?$CFsx?$CFd?$AA@ 000000018007c6ac     sfc_mex:sfc_mex.obj
 0002:000016b4       ??_C@_02DPKJAMEF@?$CFd?$AA@ 000000018007c6b4     sfc_mex:sfc_mex.obj
 0002:000016b8       ??_C@_0CC@DJOAOECF@Unknown?5MATLAB?5error?5encountered@ 000000018007c6b8     sfc_mex:sfc_mex.obj
 0002:000016e0       ??_C@_0CJ@DAIIKGLI@?$CFs?5in?5?$CFs?5should?5never?5be?5called?5@ 000000018007c6e0     sfc_mex:sfc_mex.obj
 0002:00001710       ??_C@_0CE@ICKLNELB@Error?5calling?5MATLAB?5function?5?8?$CF@ 000000018007c710     sfc_mex:sfc_mex.obj
 0002:00001734       ??_C@_02DKCKIIND@?$CFs?$AA@ 000000018007c734     sfc_mex:sfc_mex.obj
 0002:00001738       ??_C@_07PHDIELCI@lasterr?$AA@ 000000018007c738     sfc_mex:sfc_mex.obj
 0002:00001740       ??_C@_09HKCBALOK@embedded?4?$AA@ 000000018007c740     sfc_mex:sfc_mex.obj
 0002:0000174c       ??_C@_06KKKLBFKN@uint64?$AA@ 000000018007c74c     sfc_mex:sfc_mex.obj
 0002:00001754       ??_C@_05DIFFJEPM@int64?$AA@ 000000018007c754     sfc_mex:sfc_mex.obj
 0002:0000175c       ??_C@_04KBDJOJNB@?$FL?$CFd?$FN?$AA@ 000000018007c75c     sfc_mex:sfc_mex.obj
 0002:00001768       ??_C@_0CD@NFPEPNBJ@Cannot?5add?5field?5?$CFs?5to?5struct?5?$CFs@ 000000018007c768     sfc_mex:sfc_mex.obj
 0002:00001790       ??_C@_0CF@PLDCCEBG@Cannot?5get?5field?5?$CFs?5from?5struct?5@ 000000018007c790     sfc_mex:sfc_mex.obj
 0002:000017b8       ??_C@_0CO@MFJLJCHI@Struct?5array?5?8?$CFs?8?5does?5not?5have?5@ 000000018007c7b8     sfc_mex:sfc_mex.obj
 0002:000017e8       ??_C@_0DF@IPGEGIDM@Object?5?8?$CFs?8?5is?5not?5a?5struct?3?5can@ 000000018007c7e8     sfc_mex:sfc_mex.obj
 0002:00001820       ??_C@_0BL@KEKJNNL@MATLAB?5expression?5?8?$CFs?8?5?$CFs?4?$AA@ 000000018007c820     sfc_mex:sfc_mex.obj
 0002:00001840       ??_C@_0GH@JOEOEBFA@Size?5mismatch?5for?5?8?$CFs?8?5on?5dimens@ 000000018007c840     sfc_mex:sfc_mex.obj
 0002:000018a8       ??_C@_0DN@DNLDLJNN@is?5not?5of?5the?5correct?5class?3?5exp@ 000000018007c8a8     sfc_mex:sfc_mex.obj
 0002:000018e8       ??_C@_06POLMGHPK@isreal?$AA@ 000000018007c8e8     sfc_mex:sfc_mex.obj
 0002:000018f0       ??_C@_0CC@EDDDCJDC@is?5not?5of?5the?5correct?5complexnes@ 000000018007c8f0     sfc_mex:sfc_mex.obj
 0002:00001918       ??_C@_0CB@POBCEEOP@is?5not?5of?5the?5correct?5sparseness@ 000000018007c918     sfc_mex:sfc_mex.obj
 0002:00001940       ??_C@_0CC@JOFDGEBC@is?5not?5of?5the?5correct?5numerictyp@ 000000018007c940     sfc_mex:sfc_mex.obj
 0002:00001968       ??_C@_07MIMONDDE@isequal?$AA@ 000000018007c968     sfc_mex:sfc_mex.obj
 0002:00001970       ??_C@_0M@NAPEIPJI@numerictype?$AA@ 000000018007c970     sfc_mex:sfc_mex.obj
 0002:00001980       ??_C@_0BN@IMIABIKK@is?5not?5of?5the?5correct?5fimath?$AA@ 000000018007c980     sfc_mex:sfc_mex.obj
 0002:000019a0       ??_C@_06LJOKAFHF@fimath?$AA@ 000000018007c9a0     sfc_mex:sfc_mex.obj
 0002:000019b0       ??_C@_0EP@IAFBLFNF@Stateflow?5Internal?5Error?3?5?6Error@ 000000018007c9b0     sfc_mex:sfc_mex.obj
 0002:00001a00       ??_C@_08MJJBNONC@mxDecode?$AA@ 000000018007ca00     sfc_mex:sfc_mex.obj
 0002:00001a10       ??_C@_0GH@OOBFJADG@Simulation?5stopped?5due?5to?5out?5of@ 000000018007ca10     sfc_mex:sfc_mex.obj
 0002:00001a80       ??_C@_0HC@JODLBNFO@Simulation?5stopped?5due?5to?5size?5m@ 000000018007ca80     sfc_mex:sfc_mex.obj
 0002:00001b00       ??_C@_0HC@PPOAOPGB@Simulation?5stopped?5due?5to?5size?5m@ 000000018007cb00     sfc_mex:sfc_mex.obj
 0002:00001b80       ??_C@_0JM@OFMOAAGL@Simulation?5stopped?5due?5to?5size?5m@ 000000018007cb80     sfc_mex:sfc_mex.obj
 0002:00001c20       ??_C@_0KC@ODCGHMPH@Simulation?5stopped?5due?5to?5size?5o@ 000000018007cc20     sfc_mex:sfc_mex.obj
 0002:00001cd0       ??_C@_0GO@BKNPNGBP@Subscripted?5assignment?5dimension@ 000000018007ccd0     sfc_mex:sfc_mex.obj
 0002:00001d40       ??_C@_0DJ@MEDANBMA@Enable?5debugging?5to?5pinpoint?5the@ 000000018007cd40     sfc_mex:sfc_mex.obj
 0002:00001d7c       ??_C@_01CLKCMJKC@?5?$AA@   000000018007cd7c     sfc_mex:sfc_mex.obj
 0002:00001d80       ??_C@_0BAO@DDKKHLGF@Matrix?$CImatrix?$CJ?5subscript?5turned?5@ 000000018007cd80     sfc_mex:sfc_mex.obj
 0002:00001e90       ??_C@_0BAO@MGKOAKHL@Vector?$CIvector?$CJ?5subscript?5turned?5@ 000000018007ce90     sfc_mex:sfc_mex.obj
 0002:00001fa0       ??_C@_0FA@KAHDAHHI@Cannot?5determine?5the?5exact?5numbe@ 000000018007cfa0     sfc_mex:sfc_mex.obj
 0002:00001ff0       ??_C@_0FC@HJKNPCCF@Negative?5value?5detected?4?5Enable?5@ 000000018007cff0     sfc_mex:sfc_mex.obj
 0002:00002048       ??_C@_0DK@JJKHINMK@Overflow?5detected?4?5Enable?5debugg@ 000000018007d048     sfc_mex:sfc_mex.obj
 0002:00002090       ??_C@_0EA@POIJMBCP@Divide?5by?5zero?5detected?4?5Enable?5@ 000000018007d090     sfc_mex:sfc_mex.obj
 0002:000020d0       ??_C@_0EK@CFEMECLL@Nonconforming?5enum?5value?5detecte@ 000000018007d0d0     sfc_mex:sfc_mex.obj
 0002:00002120       ??_C@_0EE@BPGAOMO@Size?5mismatch?5for?5MATLAB?5express@ 000000018007d120     sfc_mex:sfc_mex.obj
 0002:00002170       ??_C@_0EJ@KLNPHOFG@Dimension?5of?5fixed?5size?5one?5?$CI1?$CJ?5@ 000000018007d170     sfc_mex:sfc_mex.obj
 0002:000021c0       ??_C@_07JFPGMOK@fprintf?$AA@ 000000018007d1c0     sfc_mex:sfc_mex.obj
 0002:000021d0       ??_C@_0FE@EHCFPDEG@In?5MATLAB?5expression?5?8?$CFs?8?0?5field@ 000000018007d1d0     sfc_mex:sfc_mex.obj
 0002:00002228       ??_C@_0DE@IJIFCHLH@In?5MATLAB?5expression?5?8?$CFs?8?0?5field@ 000000018007d228     sfc_mex:sfc_mex.obj
 0002:00002260       ??_C@_0FK@JKPMKGDE@MATLAB?5expression?5?8?$CFs?8?5does?5not?5@ 000000018007d260     sfc_mex:sfc_mex.obj
 0002:000022bc       ??_C@_06PBJBIPGK@struct?$AA@ 000000018007d2bc     sfc_mex:sfc_mex.obj
 0002:000022c8       ??_C@_0O@NFNPPCGN@isfimathlocal?$AA@ 000000018007d2c8     sfc_mex:sfc_mex.obj
 0002:000022d8       ??_C@_0M@MLCGNPLD@embedded?4fi?$AA@ 000000018007d2d8     sfc_mex:sfc_mex.obj
 0002:000022e8       ??_C@_0M@EGMNDJHO@?$CFs?5?$DN?5?$CF?415g?6?$AA@ 000000018007d2e8     sfc_mex:sfc_mex.obj
 0002:000022f4       ??_C@_03OFAPEBGM@?$CFs?6?$AA@ 000000018007d2f4     sfc_mex:sfc_mex.obj
 0002:000022f8       ??_C@_0CL@LLBJDFID@failed?5sf_assertion?5in?5?$CFs?5at?5lin@ 000000018007d2f8     sfc_mex:sfc_mex.obj
 0002:00002330       ??_C@_0EJ@MIHEOKKA@?8?$CFs?8?3?5Array?5with?5number?5of?5dimen@ 000000018007d330     sfc_mex:sfc_mex.obj
 0002:00002380       ??_C@_09JCLLFAHO@sfc_mex?4c?$AA@ 000000018007d380     sfc_mex:sfc_mex.obj
 0002:00002390       ??_C@_0O@FCFMOEOA@aNumDims?5?$DO?$DN?50?$AA@ 000000018007d390     sfc_mex:sfc_mex.obj
 0002:000023a0       ??_C@_0CK@KDIMGCCA@?8?$CFs?8?3?5Sparse?5matrices?5are?5not?5su@ 000000018007d3a0     sfc_mex:sfc_mex.obj
 0002:000023d0       ??_C@_0CI@KBLJAMNB@MATLAB?5expression?5?8?$CFs?8?5is?5not?5nu@ 000000018007d3d0     sfc_mex:sfc_mex.obj
 0002:000023f8       ??_C@_0P@LCMMCGDM@aSrcMx?5?$CB?$DN?5NULL?$AA@ 000000018007d3f8     sfc_mex:sfc_mex.obj
 0002:00002410       ??_C@_0EI@HJNNACGI@Eval?5of?5MATLAB?5expression?5?8?$CFs?8?5i@ 000000018007d410     sfc_mex:sfc_mex.obj
 0002:00002458       ??_C@_0DM@BJICAGGK@Stateflow?5currently?5only?5support@ 000000018007d458     sfc_mex:sfc_mex.obj
 0002:00002494       ??_C@_05LAPONLG@false?$AA@ 000000018007d494     sfc_mex:sfc_mex.obj
 0002:0000249c       ??_C@_03LHCJEHON@nan?$AA@  000000018007d49c     sfc_mex:sfc_mex.obj
 0002:000024a0       ??_C@_04BHIIPFEC@base?$AA@ 000000018007d4a0     sfc_mex:sfc_mex.obj
 0002:000024a8       ??_C@_06PLMANNP@evalin?$AA@ 000000018007d4a8     sfc_mex:sfc_mex.obj
 0002:000024b0       ??_C@_06GFECGKEO@caller?$AA@ 000000018007d4b0     sfc_mex:sfc_mex.obj
 0002:000024b8       ??_C@_0CM@LOMLNLMC@Invalid?5workspace?5type?5for?5sf_ma@ 000000018007d4b8     sfc_mex:sfc_mex.obj
 0002:000024e4       ??_C@_01GBGANLPD@0?$AA@    000000018007d4e4     sfc_mex:sfc_mex.obj
 0002:000024e8       ??_C@_06FJKEMHGD@global?$AA@ 000000018007d4e8     sfc_mex:sfc_mex.obj
 0002:000024f0       ??_C@_08KHPDDPHG@getfield?$AA@ 000000018007d4f0     sfc_mex:sfc_mex.obj
 0002:000024fc       ??_C@_05LPIJGKJ@Value?$AA@ 000000018007d4fc     sfc_mex:sfc_mex.obj
 0002:00002508       ??_C@_0BH@HNIMIIFD@Unknown?5workspace?5type?$AA@ 000000018007d508     sfc_mex:sfc_mex.obj
 0002:00002520       ??_C@_0DA@IPMLFPJI@MATLAB?5expression?5?8?$CFs?8?5could?5not@ 000000018007d520     sfc_mex:sfc_mex.obj
 0002:00002550       ??_C@_0EB@HHPLBHBA@Parameter?5value?5out?5of?5bounds?4?5?$CF@ 000000018007d550     sfc_mex:sfc_mex.obj
 0002:000025a0       __mask@@NegDouble@         000000018007d5a0     sfc_mex:sfc_mex.obj
 0002:000025b0       ??_C@_0CB@DBMOOMDL@Unsupported?5class?5type?5?$CFs?5for?5?$CFs@ 000000018007d5b0     sfc_mex:sfc_mex.obj
 0002:000025d8       ??_C@_0BI@OPNKAIOC@mxIsComplex?$CImxArrayPtr?$CJ?$AA@ 000000018007d5d8     sfc_mex:sfc_mex.obj
 0002:000025f0       ??_C@_0GA@OFLPCMBM@Stateflow?5Runtime?5Warning?3?5Loss?5@ 000000018007d5f0     sfc_mex:sfc_mex.obj
 0002:00002650       __real@3810000000000000    000000018007d650     sfc_mex:sfc_mex.obj
 0002:00002658       __real@47efffffe0000000    000000018007d658     sfc_mex:sfc_mex.obj
 0002:00002660       __real@c060000000000000    000000018007d660     sfc_mex:sfc_mex.obj
 0002:00002668       __real@405fc00000000000    000000018007d668     sfc_mex:sfc_mex.obj
 0002:00002670       __real@406fe00000000000    000000018007d670     sfc_mex:sfc_mex.obj
 0002:00002678       __real@c0e0000000000000    000000018007d678     sfc_mex:sfc_mex.obj
 0002:00002680       __real@40dfffc000000000    000000018007d680     sfc_mex:sfc_mex.obj
 0002:00002688       __real@40efffe000000000    000000018007d688     sfc_mex:sfc_mex.obj
 0002:00002690       __real@c1e0000000000000    000000018007d690     sfc_mex:sfc_mex.obj
 0002:00002698       __real@41dfffffffc00000    000000018007d698     sfc_mex:sfc_mex.obj
 0002:000026a0       __real@41efffffffe00000    000000018007d6a0     sfc_mex:sfc_mex.obj
 0002:000026a8       ??_C@_0DO@JIJMNCAH@Class?5mismatch?5for?5variable?5?8?$CFs?8@ 000000018007d6a8     sfc_mex:sfc_mex.obj
 0002:000026e8       ??_C@_03BBKEAIF@?$DP?$DP?$DP?$AA@ 000000018007d6e8     sfc_mex:sfc_mex.obj
 0002:000026f0       ??_C@_0DE@HICLJLJO@Assignment?5of?5complex?5data?5to?5no@ 000000018007d6f0     sfc_mex:sfc_mex.obj
 0002:00002728       ??_C@_0CF@NHFFCIEB@MATLAB?5function?5?8?$CFs?8?5returned?5NU@ 000000018007d728     sfc_mex:sfc_mex.obj
 0002:00002750       ??_C@_0GP@JPKMBIEI@Array?5bounds?5error?5in?5MATLAB?5exp@ 000000018007d750     sfc_mex:sfc_mex.obj
 0002:000027c0       ??_C@_0P@FLJFOPHI@pIndex?$FLi?$FN?5?$DO?$DN?50?$AA@ 000000018007d7c0     sfc_mex:sfc_mex.obj
 0002:000027d0       ??_C@_0DI@IGEABFHB@MATLAB?5expression?5?8?$CFs?8?5has?5?$CFd?5di@ 000000018007d7d0     sfc_mex:sfc_mex.obj
 0002:00002808       ??_C@_0L@EFLJKPA@mxArrayPtr?$AA@ 000000018007d808     sfc_mex:sfc_mex.obj
 0002:00002818       ??_C@_0CK@FHKKOEPH@numDims?5?$DO?$DN?50?5?$CG?$CG?5numDims?5?$DM?$DN?5MAX_D@ 000000018007d818     sfc_mex:sfc_mex.obj
 0002:00002850       ??_C@_0EM@MPIDLJBF@MATLAB?5expression?5?8?$CFs?8?5subscript@ 000000018007d850     sfc_mex:sfc_mex.obj
 0002:0000289c       ??_C@_04IGKKBJEE@?$DN?$CFg?$DL?$AA@ 000000018007d89c     sfc_mex:sfc_mex.obj
 0002:000028a4       ??_C@_01PKGAHCOL@?$CJ?$AA@ 000000018007d8a4     sfc_mex:sfc_mex.obj
 0002:000028a8       ??_C@_03LEIBKMN@?0?$CFd?$AA@ 000000018007d8a8     sfc_mex:sfc_mex.obj
 0002:000028ac       ??_C@_03IECKINJK@?$CI?$CFd?$AA@ 000000018007d8ac     sfc_mex:sfc_mex.obj
 0002:000028b0       ??_C@_0FB@HKJNNBFK@Stateflow?5ml?5type?5data?5?8?$CFs?8?5subs@ 000000018007d8b0     sfc_mex:sfc_mex.obj
 0002:00002908       ??_C@_0CN@HPHHCDPK@Stateflow?5ml?5type?5data?5?8?$CFs?8?5is?5n@ 000000018007d908     sfc_mex:sfc_mex.obj
 0002:00002938       ??_C@_0CG@JIOBALFE@Stateflow?5ml?5type?5data?5?8?$CFs?8?5is?5e@ 000000018007d938     sfc_mex:sfc_mex.obj
 0002:00002960       ??_C@_0BD@GAHDCPBG@mxArrayPtr?5?$CB?$DN?5NULL?$AA@ 000000018007d960     sfc_mex:sfc_mex.obj
 0002:00002978       ??_C@_0CF@HCINMAFF@result?5?$DN?5mxCreateDoubleScalar?$CIva@ 000000018007d978     sfc_mex:sfc_mex.obj
 0002:000029a0       ??_C@_0BF@GAJKLFOH@fixpt_lower_mx_array?$AA@ 000000018007d9a0     sfc_mex:sfc_mex.obj
 0002:000029b8       ??_C@_02FINOOIBE@Cg?$AA@   000000018007d9b8     sfc_mex:sfc_mex.obj
 0002:000029c0       sf_uint_bits_log2          000000018007d9c0     sfc_debug:sfcdebug.obj
 0002:000029e0       ??_C@_04GKMJMOBJ@disp?$AA@ 000000018007d9e0     sfc_debug:sfcdebug.obj
 0002:000029e8       ??_C@_0DJ@GEKCDEED@Runtime?5size?5mismatch?5for?5dimens@ 000000018007d9e8     sfc_debug:sfcdebug.obj
 0002:00002a28       ??_C@_0N@IHFJDIPG@load_machine?$AA@ 000000018007da28     sfc_debug:sfcdebug.obj
 0002:00002a38       ??_C@_0P@NOFOFJMO@ScriptCacheGet?$AA@ 000000018007da38     sfc_debug:sfcdebug.obj
 0002:00002a48       ??_C@_0P@HCIIHGKN@simulationTime?$AA@ 000000018007da48     sfc_debug:sfcdebug.obj
 0002:00002a58       ??_C@_06MBJIKMHL@isSend?$AA@ 000000018007da58     sfc_debug:sfcdebug.obj
 0002:00002a60       ??_C@_0BC@HKLNGIIJ@messagePortNumber?$AA@ 000000018007da60     sfc_debug:sfcdebug.obj
 0002:00002a78       ??_C@_07KGNNMFDL@chartId?$AA@ 000000018007da78     sfc_debug:sfcdebug.obj
 0002:00002a80       ??_C@_0BD@LPIHANBP@State?5Entry?5Action?$AA@ 000000018007da80     sfc_debug:sfcdebug.obj
 0002:00002a98       ??_C@_0BE@EDAKPKIF@State?5During?5Action?$AA@ 000000018007da98     sfc_debug:sfcdebug.obj
 0002:00002ab0       ??_C@_0BC@FKIGLKJE@State?5Exit?5Action?$AA@ 000000018007dab0     sfc_debug:sfcdebug.obj
 0002:00002ac4       ??_C@_04CGFJFPFD@none?$AA@ 000000018007dac4     sfc_debug:sfcdebug.obj
 0002:00002ad0       ??_C@_0BD@JMJALEKH@Transition?5Trigger?$AA@ 000000018007dad0     sfc_debug:sfcdebug.obj
 0002:00002ae8       ??_C@_0BO@JIGLNAHF@Transition?5Guarding?5Condition?$AA@ 000000018007dae8     sfc_debug:sfcdebug.obj
 0002:00002b08       ??_C@_0BB@ODEGBFLN@Condition?5Action?$AA@ 000000018007db08     sfc_debug:sfcdebug.obj
 0002:00002b20       ??_C@_0BC@EPJNNAPA@Transition?5Action?$AA@ 000000018007db20     sfc_debug:sfcdebug.obj
 0002:00002b38       ??_C@_0DI@JGHJOLLJ@INTERNAL?5ERROR?4?5Failed?5assertion@ 000000018007db38     sfc_debug:sfcdebug.obj
 0002:00002b70       ??_C@_01EEMJAFIK@?6?$AA@   000000018007db70     sfc_debug:sfcdebug.obj
 0002:00002b78       ??_C@_0P@HHNBJNJA@context_string?$AA@ 000000018007db78     sfc_debug:sfcdebug.obj
 0002:00002b88       ??_C@_0L@GJHMCDGO@sfcdebug?4c?$AA@ 000000018007db88     sfc_debug:sfcdebug.obj
 0002:00002b98       ??_C@_0BG@GIIBDCKK@debugInstance?5?$CB?$DN?5NULL?$AA@ 000000018007db98     sfc_debug:sfcdebug.obj
 0002:00002bb0       ??_C@_0DL@EPKGPGLC@?$CImachine?9?$DOdataCompInfo?4fixedPoin@ 000000018007dbb0     sfc_debug:sfcdebug.obj
 0002:00002bf0       ??_C@_0DE@CBCLKIAM@?$CImachine?9?$DOdataCompInfo?4isComplex@ 000000018007dbf0     sfc_debug:sfcdebug.obj
 0002:00002c28       ??_C@_0DP@MDOJBFKE@?$CIinstance?9?$DOdataCompInfo?4fixedPoi@ 000000018007dc28     sfc_debug:sfcdebug.obj
 0002:00002c68       ??_C@_0DM@KFHGIBMB@?$CIinstance?9?$DOdataCompInfo?4fixedPoi@ 000000018007dc68     sfc_debug:sfcdebug.obj
 0002:00002ca8       ??_C@_0DF@IIPJPBAH@?$CIinstance?9?$DOdataCompInfo?4isComple@ 000000018007dca8     sfc_debug:sfcdebug.obj
 0002:00002ce0       ??_C@_0DA@OMEPAHNH@?$CIchart?9?$DOdata?4outputDataFlags?$CJ?4le@ 000000018007dce0     sfc_debug:sfcdebug.obj
 0002:00002d10       ??_C@_0CP@JPBDBJBK@?$CIchart?9?$DOdata?4inputDataFlags?$CJ?4len@ 000000018007dd10     sfc_debug:sfcdebug.obj
 0002:00002d40       ??_C@_03KGJNKAJD@lic?$AA@  000000018007dd40     sfc_debug:sfcdebug.obj
 0002:00002d44       ??_C@_04PNMLDJAE@ense?$AA@ 000000018007dd44     sfc_debug:sfcdebug.obj
 0002:00002d50       ??_C@_0L@ONMHLBPB@?$CFs?$CFs?$CFslbox?$AA@ 000000018007dd50     sfc_debug:sfcdebug.obj
 0002:00002d5c       ??_C@_04CLOJJEIM@fixe?$AA@ 000000018007dd5c     sfc_debug:sfcdebug.obj
 0002:00002d64       ??_C@_05CBHOIFCP@t_too?$AA@ 000000018007dd64     sfc_debug:sfcdebug.obj
 0002:00002d6c       ??_C@_06MGFNEDEJ@d_poin?$AA@ 000000018007dd6c     sfc_debug:sfcdebug.obj
 0002:00002d74       ??_C@_04HDOCAJNK@?$CFs?$CFs?$AA@ 000000018007dd74     sfc_debug:sfcdebug.obj
 0002:00002d7c       ??_C@_04BJBBOLDM@chec?$AA@ 000000018007dd7c     sfc_debug:sfcdebug.obj
 0002:00002d84       ??_C@_04KNBDLPKC@kout?$AA@ 000000018007dd84     sfc_debug:sfcdebug.obj
 0002:00002d90       ??_C@_0BA@FKECJMCE@active_instance?$AA@ 000000018007dd90     sfc_debug:sfcdebug.obj
 0002:00002da0       ??_C@_0DD@MJFCMKPO@transCnt?5?$DN?$DN?5instance?9?$DOcvToolIds?4@ 000000018007dda0     sfc_debug:sfcdebug.obj
 0002:00002dd8       ??_C@_0CO@MONEMJEL@stateCnt?5?$DN?$DN?5instance?9?$DOcvToolIds?4@ 000000018007ddd8     sfc_debug:sfcdebug.obj
 0002:00002e08       ??_C@_0O@ELHBEDAD@init_debugger?$AA@ 000000018007de08     sfc_debug:sfcdebug.obj
 0002:00002e18       ??_C@_0L@PKOFOKNN@break_here?$AA@ 000000018007de18     sfc_debug:sfcdebug.obj
 0002:00002e28       ??_C@_0BH@KBPHNGCH@script?4activeMachineId?$AA@ 000000018007de28     sfc_debug:sfcdebug.obj
 0002:00002e40       ??_C@_03KCHOJKKI@set?$AA@  000000018007de40     sfc_debug:sfcdebug.obj
 0002:00002e48       ??_C@_0DD@PKMAPHBF@?$CImachine?9?$DOdata?4watchFlags?$CJ?4lengt@ 000000018007de48     sfc_debug:sfcdebug.obj
 0002:00002e80       ??_C@_0FE@KLPHIMDI@?$CIchart?9?$DOdata?4watchFlags?$CJ?4length?$DO@ 000000018007de80     sfc_debug:sfcdebug.obj
 0002:00002ed8       ??_C@_0BO@GFBPGEIL@bufferSizeGet?5?$DN?$DN?5totalSizeGet?$AA@ 000000018007ded8     sfc_debug:sfcdebug.obj
 0002:00002ef8       ??_C@_0BO@BEEPOEDP@bufferSizeSet?5?$DN?$DN?5totalSizeSet?$AA@ 000000018007def8     sfc_debug:sfcdebug.obj
 0002:00002f18       ??_C@_0BG@NNAKOPEK@get_script_line_count?$AA@ 000000018007df18     sfc_debug:sfcdebug.obj
 0002:00002f30       ??_C@_0BJ@GADAHKGG@temporal_threshold_error?$AA@ 000000018007df30     sfc_debug:sfcdebug.obj
 0002:00002f50       ??_C@_0BK@KABIOMCC@transition_conflict_error?$AA@ 000000018007df50     sfc_debug:sfcdebug.obj
 0002:00002f70       ??_C@_0BK@HLPANOPJ@state_inconsistency_error?$AA@ 000000018007df70     sfc_debug:sfcdebug.obj
 0002:00002f90       ??_C@_0BA@PCEGODO@cycle_detection?$AA@ 000000018007df90     sfc_debug:sfcdebug.obj
 0002:00002fa0       ??_C@_0CP@HMOGACCG@Simulation?5stopped?5due?5to?5out?5of@ 000000018007dfa0     sfc_debug:sfcdebug.obj
 0002:00002fd0       ??_C@_0BD@LFFFHIJG@array_bounds_error?$AA@ 000000018007dfd0     sfc_debug:sfcdebug.obj
 0002:00002fe8       ??_C@_0O@IENBAMNA@runtime_error?$AA@ 000000018007dfe8     sfc_debug:sfcdebug.obj
 0002:00002ff8       ??_C@_0CC@EDKHOOPE@Call?5to?5MATLAB?5function?5aborted?3@ 000000018007dff8     sfc_debug:sfcdebug.obj
 0002:00003020       ??_C@_0DJ@JBGHLJFL@Simulation?5stopped?5due?5to?5size?5m@ 000000018007e020     sfc_debug:sfcdebug.obj
 0002:00003060       ??_C@_0DJ@EAKPCDBG@Simulation?5stopped?5due?5to?5size?5m@ 000000018007e060     sfc_debug:sfcdebug.obj
 0002:000030a0       ??_C@_0GD@BJCLDBKO@Simulation?5stopped?5due?5to?5size?5m@ 000000018007e0a0     sfc_debug:sfcdebug.obj
 0002:00003110       ??_C@_0GJ@OHCOIONE@Simulation?5stopped?5due?5to?5size?5o@ 000000018007e110     sfc_debug:sfcdebug.obj
 0002:00003180       ??_C@_0DF@BOMHHCNB@Subscripted?5assignment?5dimension@ 000000018007e180     sfc_debug:sfcdebug.obj
 0002:000031c0       ??_C@_0NG@BOPFGKBO@Matrix?$CImatrix?$CJ?5subscript?5turned?5@ 000000018007e1c0     sfc_debug:sfcdebug.obj
 0002:000032a0       ??_C@_0HE@FPEPCMDA@Matrix?$CImatrix?$CJ?5subscript?5turned?5@ 000000018007e2a0     sfc_debug:sfcdebug.obj
 0002:00003320       ??_C@_0NG@MLJIHJIH@Vector?$CIvector?$CJ?5subscript?5turned?5@ 000000018007e320     sfc_debug:sfcdebug.obj
 0002:00003400       ??_C@_0HE@BHPDCNDF@Vector?$CIvector?$CJ?5subscript?5turned?5@ 000000018007e400     sfc_debug:sfcdebug.obj
 0002:00003478       ??_C@_0BL@HKADOJK@Unknown?5runtime?5error?3?5?$CFs?4?$AA@ 000000018007e478     sfc_debug:sfcdebug.obj
 0002:00003498       ??_C@_0P@FIEIFKHH@dataName?$CB?$DNNULL?$AA@ 000000018007e498     sfc_debug:sfcdebug.obj
 0002:000034a8       ??_C@_0BC@JKFOPCCM@non_integer_error?$AA@ 000000018007e4a8     sfc_debug:sfcdebug.obj
 0002:000034c0       ??_C@_09MMCAMPEC@nan_error?$AA@ 000000018007e4c0     sfc_debug:sfcdebug.obj
 0002:000034d0       ??_C@_0P@KGNBONIG@negative_error?$AA@ 000000018007e4d0     sfc_debug:sfcdebug.obj
 0002:000034e0       ??_C@_0DA@OEGHOJFO@Simulation?5stopped?5due?5to?5divide@ 000000018007e4e0     sfc_debug:sfcdebug.obj
 0002:00003510       ??_C@_0P@DAGNNBKM@overflow_error?$AA@ 000000018007e510     sfc_debug:sfcdebug.obj
 0002:00003520       ??_C@_0BF@IEPBJJM@divide_by_zero_error?$AA@ 000000018007e520     sfc_debug:sfcdebug.obj
 0002:00003538       ??_C@_0BC@CNIFONOF@unsafe_enum_error?$AA@ 000000018007e538     sfc_debug:sfcdebug.obj
 0002:00003550       ??_C@_0BA@GLGJGIFO@data_loss_error?$AA@ 000000018007e550     sfc_debug:sfcdebug.obj
 0002:00003560       ??_C@_0BB@LFNCDKMF@data_range_error?$AA@ 000000018007e560     sfc_debug:sfcdebug.obj
 0002:00003580       ??_C@_0FA@OJFHKNAF@Simulation?5stopped?5because?5a?5dat@ 000000018007e580     sfc_debug:sfcdebug.obj
 0002:000035d0       ??_C@_0BI@LLOJJCOG@read_before_write_error?$AA@ 000000018007e5d0     sfc_debug:sfcdebug.obj
 0002:000035e8       __real@4059000000000000    000000018007e5e8     sfc_debug:sfcdebug.obj
 0002:000035f0       ??_C@_0EL@LHLCBPON@objectType?$DN?$DNEVENT_OBJECT?5?$CG?$CG?5obje@ 000000018007e5f0     sfc_debug:sfcdebug.obj
 0002:00003640       ??_C@_0CK@BGKNIJPH@Simulation?5stopped?5due?5to?5infini@ 000000018007e640     sfc_debug:sfcdebug.obj
 0002:00003670       ??_C@_0BC@OGHOEIO@draw_message_post?$AA@ 000000018007e670     sfc_debug:sfcdebug.obj
 0002:00003690       ??_C@_0EC@EKMLJIIP@strlen?$CItargetName?$CJ?$DMsizeof?$CIdebugI@ 000000018007e690     sfc_debug:sfcdebug.obj
 0002:000036e0       ??_C@_0EE@LPPEFNLK@strlen?$CImachineName?$CJ?$DMsizeof?$CIdebug@ 000000018007e6e0     sfc_debug:sfcdebug.obj
 0002:00003728       ??_C@_0BO@OEBODAF@charts?9?$DOlength?5?$DM?5charts?9?$DOsize?$AA@ 000000018007e728     sfc_debug:sfcdebug.obj
 0002:00003748       ??_C@_0P@NDNBPAGO@charts?9?$DOsize?$DO0?$AA@ 000000018007e748     sfc_debug:sfcdebug.obj
 0002:00003758       ??_C@_09DACGJFPO@terminate?$AA@ 000000018007e758     sfc_debug:sfcdebug.obj
 0002:00003768       ??_C@_0BH@BOIPOAMD@currentoptionalinteger?$AA@ 000000018007e768     sfc_debug:sfc_api.obj
 0002:00003780       ??_C@_0BI@KDFLIHKN@currentstatementcontext?$AA@ 000000018007e780     sfc_debug:sfc_api.obj
 0002:00003798       ??_C@_0BF@CJJCNHOP@currentstatementinfo?$AA@ 000000018007e798     sfc_debug:sfc_api.obj
 0002:000037b0       ??_C@_0BA@EEHAMBBL@currentcoverage?$AA@ 000000018007e7b0     sfc_debug:sfc_api.obj
 0002:000037c0       ??_C@_0BD@CPIGBEHM@currentmachinename?$AA@ 000000018007e7c0     sfc_debug:sfc_api.obj
 0002:000037d8       ??_C@_0BF@MPNFKHIK@currentmachinenumber?$AA@ 000000018007e7d8     sfc_debug:sfc_api.obj
 0002:000037f0       ??_C@_0BB@EAGFPGEG@currentmachineid?$AA@ 000000018007e7f0     sfc_debug:sfc_api.obj
 0002:00003808       ??_C@_0P@LDEJFJKJ@simulationtime?$AA@ 000000018007e808     sfc_debug:sfc_api.obj
 0002:00003818       ??_C@_0P@CKMPNBM@currenttagtype?$AA@ 000000018007e818     sfc_debug:sfc_api.obj
 0002:00003828       ??_C@_0BH@EMAALFDO@currentactiveeventtype?$AA@ 000000018007e828     sfc_debug:sfc_api.obj
 0002:00003840       ??_C@_0BF@BIDFPCPF@currentactiveeventid?$AA@ 000000018007e840     sfc_debug:sfc_api.obj
 0002:00003858       ??_C@_0BA@LAPNNELA@currentobjectid?$AA@ 000000018007e858     sfc_debug:sfc_api.obj
 0002:00003868       ??_C@_0BB@LLJHHKEI@currenteventtype?$AA@ 000000018007e868     sfc_debug:sfc_api.obj
 0002:00003880       ??_C@_0BC@BDADCDEL@currentobjecttype?$AA@ 000000018007e880     sfc_debug:sfc_api.obj
 0002:00003898       ??_C@_0BH@HDHFFKCN@currentisminortimestep?$AA@ 000000018007e898     sfc_debug:sfc_api.obj
 0002:000038b0       ??_C@_0BG@PKFJEKLL@currentinstancehandle?$AA@ 000000018007e8b0     sfc_debug:sfc_api.obj
 0002:000038c8       ??_C@_0BG@GJFHKFBJ@currentinstancenumber?$AA@ 000000018007e8c8     sfc_debug:sfc_api.obj
 0002:000038e0       ??_C@_0BD@DKAMMHEE@currentchartnumber?$AA@ 000000018007e8e0     sfc_debug:sfc_api.obj
 0002:000038f8       ??_C@_0P@EANFOHCD@currentchartid?$AA@ 000000018007e8f8     sfc_debug:sfc_api.obj
 0002:00003908       ??_C@_0CC@JILMFDHL@extract_message_post_receive_inf@ 000000018007e908     sfc_debug:sfc_api.obj
 0002:0000392c       ??_C@_06IMFOKBKF@assign?$AA@ 000000018007e92c     sfc_debug:sfc_api.obj
 0002:00003938       ??_C@_0BC@CMFMGKCG@set_script_cv_ids?$AA@ 000000018007e938     sfc_debug:sfc_api.obj
 0002:00003950       ??_C@_0BE@ONNFKBAC@set_instance_cv_ids?$AA@ 000000018007e950     sfc_debug:sfc_api.obj
 0002:00003968       ??_C@_0BE@CDIKCKCD@get_instance_handle?$AA@ 000000018007e968     sfc_debug:sfc_api.obj
 0002:00003980       ??_C@_0BE@GPEMFILK@break_between_times?$AA@ 000000018007e980     sfc_debug:sfc_api.obj
 0002:00003998       ??_C@_0O@KGONFDDG@active_states?$AA@ 000000018007e998     sfc_debug:sfc_api.obj
 0002:000039a8       ??_C@_0BC@LHALNGBC@state_consistency?$AA@ 000000018007e9a8     sfc_debug:sfc_api.obj
 0002:000039c0       ??_C@_0BE@JNDELHDH@transition_conflict?$AA@ 000000018007e9c0     sfc_debug:sfc_api.obj
 0002:000039d8       ??_C@_0L@ECJAFPAF@data_range?$AA@ 000000018007e9d8     sfc_debug:sfc_api.obj
 0002:000039e8       ??_C@_0O@NAKDKJME@select_charts?$AA@ 000000018007e9e8     sfc_debug:sfc_api.obj
 0002:000039f8       ??_C@_0N@KLDBDGD@select_chart?$AA@ 000000018007e9f8     sfc_debug:sfc_api.obj
 0002:00003a08       ??_C@_0O@NJPMKBAC@set_animation?$AA@ 000000018007ea08     sfc_debug:sfc_api.obj
 0002:00003a18       ??_C@_09FLOFKLFE@set_watch?$AA@ 000000018007ea18     sfc_debug:sfc_api.obj
 0002:00003a28       ??_C@_0O@ECMAEPOC@get_script_id?$AA@ 000000018007ea28     sfc_debug:sfc_api.obj
 0002:00003a38       ??_C@_0BJ@KFGPCNG@query_script_breakpoints?$AA@ 000000018007ea38     sfc_debug:sfc_api.obj
 0002:00003a58       ??_C@_0BJ@CAAHLJNF@clear_script_breakpoints?$AA@ 000000018007ea58     sfc_debug:sfc_api.obj
 0002:00003a78       ??_C@_0BH@BAILBHDP@add_script_breakpoints?$AA@ 000000018007ea78     sfc_debug:sfc_api.obj
 0002:00003a90       ??_C@_0BH@KAKDDELG@set_script_breakpoints?$AA@ 000000018007ea90     sfc_debug:sfc_api.obj
 0002:00003aa8       ??_C@_0BE@GAGDJPKA@set_eml_breakpoints?$AA@ 000000018007eaa8     sfc_debug:sfc_api.obj
 0002:00003ac0       ??_C@_0BA@NHOBHLLJ@set_breakpoints?$AA@ 000000018007eac0     sfc_debug:sfc_api.obj
 0002:00003ad0       ??_C@_0BF@GOGOODJG@break_on_state_entry?$AA@ 000000018007ead0     sfc_debug:sfc_api.obj
 0002:00003ae8       ??_C@_0BJ@FPOJDFBP@break_on_event_broadcast?$AA@ 000000018007eae8     sfc_debug:sfc_api.obj
 0002:00003b08       ??_C@_0BF@FJBBAFJ@break_on_chart_entry?$AA@ 000000018007eb08     sfc_debug:sfc_api.obj
 0002:00003b20       ??_C@_0N@MHHEHLAI@browse_trace?$AA@ 000000018007eb20     sfc_debug:sfc_api.obj
 0002:00003b30       ??_C@_0BB@JEAJMJMI@consistency_info?$AA@ 000000018007eb30     sfc_debug:sfc_api.obj
 0002:00003b44       ??_C@_04MLCEENPJ@whos?$AA@ 000000018007eb44     sfc_debug:sfc_api.obj
 0002:00003b50       ??_C@_0L@LNIDAIN@watch_data?$AA@ 000000018007eb50     sfc_debug:sfc_api.obj
 0002:00003b60       ??_C@_0M@JEJMEFEG@browse_data?$AA@ 000000018007eb60     sfc_debug:sfc_api.obj
 0002:00003b6c       ??_C@_03HNAFFKGA@get?$AA@  000000018007eb6c     sfc_debug:sfc_api.obj
 0002:00003b70       ??_C@_05LBOHBHFK@close?$AA@ 000000018007eb70     sfc_debug:sfc_api.obj
 0002:00003b78       ??_C@_0BM@ICDFOOIE@set_disable_all_breakpoints?$AA@ 000000018007eb78     sfc_debug:sfc_api.obj
 0002:00003b98       ??_C@_0BP@IBIALPGH@disable_all_breakpoints_and_go?$AA@ 000000018007eb98     sfc_debug:sfc_api.obj
 0002:00003bb8       ??_C@_0BJ@BOMFHJBD@is_array_bounds_detected?$AA@ 000000018007ebb8     sfc_debug:sfc_api.obj
 0002:00003bd8       ??_C@_0BC@LKOOEAAH@is_cycle_detected?$AA@ 000000018007ebd8     sfc_debug:sfc_api.obj
 0002:00003bf0       ??_C@_0P@NIBPNIDJ@stop_debugging?$AA@ 000000018007ebf0     sfc_debug:sfc_api.obj
 0002:00003c00       ??_C@_05ELPHFHOI@break?$AA@ 000000018007ec00     sfc_debug:sfc_api.obj
 0002:00003c08       ??_C@_06PLELHCEK@resume?$AA@ 000000018007ec08     sfc_debug:sfc_api.obj
 0002:00003c10       ??_C@_08OKABEMKO@step_out?$AA@ 000000018007ec10     sfc_debug:sfc_api.obj
 0002:00003c20       ??_C@_09CDNMPCHO@step_over?$AA@ 000000018007ec20     sfc_debug:sfc_api.obj
 0002:00003c2c       ??_C@_02KPEDIMCA@go?$AA@   000000018007ec2c     sfc_debug:sfc_api.obj
 0002:00003c30       ??_C@_0P@MMCMIGPN@debugger_alive?$AA@ 000000018007ec30     sfc_debug:sfc_api.obj
 0002:00003c40       ??_C@_0N@GHFBLJDM@machine_load?$AA@ 000000018007ec40     sfc_debug:sfc_api.obj
 0002:00003c50       ??_C@_0O@GIBFCMLF@chart_visible?$AA@ 000000018007ec50     sfc_debug:sfc_api.obj
 0002:00004070       ??_C@_05JEMLEKKA@found?$AA@ 000000018007f070     sfc_debug:sfc_api.obj
 0002:00004078       ??_C@_09KFNMLIAN@sfc_api?4c?$AA@ 000000018007f078     sfc_debug:sfc_api.obj
 0002:00004088       ??_C@_0N@PFBMDOLG@sf_debug_api?$AA@ 000000018007f088     sfc_debug:sfc_api.obj
 0002:00004098       ??_C@_07KEAHHHLK@nrhs?$DN?$DN3?$AA@ 000000018007f098     sfc_debug:sfc_api.obj
 0002:000040a0       ??_C@_0BC@HOOMKBNL@mxIsChar?$CIprhs?$FL0?$FN?$CJ?$AA@ 000000018007f0a0     sfc_debug:sfc_api.obj
 0002:000040b8       ??_C@_0BF@NGLAGMHA@mxIsNumeric?$CIprhs?$FL0?$FN?$CJ?$AA@ 000000018007f0b8     sfc_debug:sfc_api.obj
 0002:000040d0       ??_C@_07IEIELKNG@nrhs?$DO?$DN1?$AA@ 000000018007f0d0     sfc_debug:sfc_api.obj
 0002:000040d8       ??_C@_07LNBMEGPL@nrhs?$DN?$DN2?$AA@ 000000018007f0d8     sfc_debug:sfc_api.obj
 0002:000040e0       ??_C@_0BD@DPNMCCEH@nrhs?$DN?$DN1?5?$HM?$HM?5nrhs?$DN?$DN3?$AA@ 000000018007f0e0     sfc_debug:sfc_api.obj
 0002:000040f8       ??_C@_09FKOBHCEN@nrhs?5?$DN?$DN?52?$AA@ 000000018007f0f8     sfc_debug:sfc_api.obj
 0002:00004108       ??_C@_09EMKMAIDO@nrhs?5?$DM?$DN?51?$AA@ 000000018007f108     sfc_debug:sfc_api.obj
 0002:00004118       ??_C@_07OLEGOBHN@nrhs?$DN?$DN4?$AA@ 000000018007f118     sfc_debug:sfc_api.obj
 0002:00004120       ??_C@_07PCFNNADM@nrhs?$DN?$DN5?$AA@ 000000018007f120     sfc_debug:sfc_api.obj
 0002:00004128       ??_C@_07JGDBBFDI@nrhs?$DN?$DN1?$AA@ 000000018007f128     sfc_debug:sfc_api.obj
 0002:00004130       ??_C@_07KBNAPCKL@nlhs?$DN?$DN1?$AA@ 000000018007f130     sfc_debug:sfc_api.obj
 0002:00004138       ??_C@_08PAMHJLPB@statusOk?$AA@ 000000018007f138     sfc_debug:sfc_api.obj
 0002:00004148       ??_C@_07NJHAIDPP@nrhs?$DN?$DN6?$AA@ 000000018007f148     sfc_debug:sfc_api.obj
 0002:00004150       ??_C@_0L@EMNHGDGL@nlhs?$DN?$DNnrhs?$AA@ 000000018007f150     sfc_debug:sfc_api.obj
 0002:00004160       ??_C@_0P@BLJCAHMG@select_objects?$AA@ 000000018007f160     sfc_debug:sfdb_animation.obj
 0002:00004170       ??_C@_06CFKBOPCI@states?$AA@ 000000018007f170     sfc_debug:sfdb_animation.obj
 0002:00004178       ??_C@_0P@KHIIFDEG@instanceHandle?$AA@ 000000018007f178     sfc_debug:sfdb_animation.obj
 0002:00004188       ??_C@_0P@DEIGLMOE@instanceNumber?$AA@ 000000018007f188     sfc_debug:sfdb_animation.obj
 0002:00004198       ??_C@_0N@HACOJJON@instanceName?$AA@ 000000018007f198     sfc_debug:sfdb_animation.obj
 0002:000041a8       ??_C@_0M@BFNIOHPP@chartNumber?$AA@ 000000018007f1a8     sfc_debug:sfdb_animation.obj
 0002:000041b8       ??_C@_09KMHJEGJ@chartName?$AA@ 000000018007f1b8     sfc_debug:sfdb_animation.obj
 0002:000041c4       ??_C@_06OOECHJN@charts?$AA@ 000000018007f1c4     sfc_debug:sfdb_animation.obj
 0002:000041d0       ??_C@_0O@LOMGGENK@machineNumber?$AA@ 000000018007f1d0     sfc_debug:sfdb_animation.obj
 0002:000041e0       ??_C@_09OOJCKABH@machineId?$AA@ 000000018007f1e0     sfc_debug:sfdb_animation.obj
 0002:000041f0       ??_C@_0M@OCOCCFP@machineName?$AA@ 000000018007f1f0     sfc_debug:sfdb_animation.obj
 0002:00004200       ??_C@_0CN@CCJEMGOM@?$CIinstance?9?$DOsm?4statePack?$CJ?4length?$DO@ 000000018007f200     sfc_debug:sfdb_animation.obj
 0002:00004230       ??_C@_0DC@DKAJIDPA@?$CIinstance?9?$DOsm?4transitionPack?$CJ?4le@ 000000018007f230     sfc_debug:sfdb_animation.obj
 0002:00004268       ??_C@_0BB@EGGLBLCL@sfdb_animation?4c?$AA@ 000000018007f268     sfc_debug:sfdb_animation.obj
 0002:00004280       ??_C@_09ODDKEGMC@cvprivate?$AA@ 000000018007f280     sfc_debug:cv_sfinterface.obj
 0002:00004290       ??_C@_0BB@GDGPIGLB@cv_model_enabled?$AA@ 000000018007f290     sfc_debug:cv_sfinterface.obj
 0002:000042a8       ??_C@_09DDDNMFIJ@get_param?$AA@ 000000018007f2a8     sfc_debug:cv_sfinterface.obj
 0002:000042b8       ??_C@_0L@BODNDPN@CoverageId?$AA@ 000000018007f2b8     sfc_debug:cv_sfinterface.obj
 0002:000042c4       ??_C@_05IEGMLJMJ@exist?$AA@ 000000018007f2c4     sfc_debug:cv_sfinterface.obj
 0002:000042cc       ??_C@_02DDEKINOE@cv?$AA@   000000018007f2cc     sfc_debug:cv_sfinterface.obj
 0002:000042d0       __real@4082c00000000000    000000018007f2d0     sfc_debug:cv_sfinterface.obj
 0002:000042d8       ??_C@_0O@HGNEKHDK@MatlabVersion?$AA@ 000000018007f2d8     sfc_debug:cv_sfinterface.obj
 0002:000042e8       ??_C@_0M@IIAIMKFO@status?5?$DN?$DN?50?$AA@ 000000018007f2e8     sfc_debug:cv_sfinterface.obj
 0002:000042f8       ??_C@_0BB@ENEMAMMG@cv_sfinterface?4c?$AA@ 000000018007f2f8     sfc_debug:cv_sfinterface.obj
 0002:00004310       ??_C@_0CC@JMPFGLON@mxGetNumberOfElements?$CIplhs?$FL3?$FN?$CJ?$DN?$DN@ 000000018007f310     sfc_debug:cv_sfinterface.obj
 0002:00004338       ??_C@_0P@MCDOIOOF@plhs?$FL3?$FN?5?$CB?$DNNULL?$AA@ 000000018007f338     sfc_debug:cv_sfinterface.obj
 0002:00004348       ??_C@_0P@HAMLCBNF@len?$DM?$DNdataCount?$AA@ 000000018007f348     sfc_debug:cv_sfinterface.obj
 0002:00004358       ??_C@_0BA@FJOAHKLL@len?$DN?$DNtransCount?$AA@ 000000018007f358     sfc_debug:cv_sfinterface.obj
 0002:00004368       ??_C@_0BA@JELAJLGI@len?$DN?$DNstateCount?$AA@ 000000018007f368     sfc_debug:cv_sfinterface.obj
 0002:00004378       ??_C@_0BC@NEFBEIHN@InitChartInstance?$AA@ 000000018007f378     sfc_debug:cv_sfinterface.obj
 0002:0000438c       ??_C@_04MMALOABH@cvsf?$AA@ 000000018007f38c     sfc_debug:cv_sfinterface.obj
 0002:00004398       ??_C@_0L@GIEKKEHF@InitScript?$AA@ 000000018007f398     sfc_debug:cv_sfinterface.obj
 0002:000043a8       ??_C@_08DNDOONPK@sigrange?$AA@ 000000018007f3a8     sfc_debug:cv_sfinterface.obj
 0002:000043b8       ??_C@_0O@KGBGEHIN@MetricEnabled?$AA@ 000000018007f3b8     sfc_debug:cv_sfinterface.obj
 0002:000043c8       ??_C@_0BC@NKPEPJDJ@chart?9?$DOchartId?$CB?$DN0?$AA@ 000000018007f3c8     sfc_debug:cv_sfinterface.obj
 0002:000043dc       ??_C@_02GMHACPFF@?$CFu?$AA@ 000000018007f3dc     sfc_debug:sfdb_data_browse.obj
 0002:000043e0       ??_C@_02NJPGOMH@?$CFf?$AA@ 000000018007f3e0     sfc_debug:sfdb_data_browse.obj
 0002:000043e8       ??_C@_0BD@PCGIEHBF@sfdb_data_browse?4c?$AA@ 000000018007f3e8     sfc_debug:sfdb_data_browse.obj
 0002:00004400       __real@c2a2309ce53fffcd    000000018007f400     sfc_debug:sfdb_data_browse.obj
 0002:00004408       ??_C@_0CK@JKBFHDPL@result?5?$DN?5mxCreateDoubleMatrix?$CI1?0@ 000000018007f408     sfc_debug:sfdb_data_browse.obj
 0002:00004438       ??_C@_0DK@FJDNFCNK@result?5?$DN?5mxCreateDoubleMatrix?$CI1?0@ 000000018007f438     sfc_debug:sfdb_data_browse.obj
 0002:00004478       ??_C@_0DL@OAKPHGJG@result?5?$DN?5mxCreateDoubleMatrix?$CI1?0@ 000000018007f478     sfc_debug:sfdb_data_browse.obj
 0002:000044b8       ??_C@_0N@MNGHGLAH@isFixedPoint?$AA@ 000000018007f4b8     sfc_debug:sfdb_data_browse.obj
 0002:000044c8       ??_C@_06DLEPGFEF@format?$AA@ 000000018007f4c8     sfc_debug:sfdb_data_browse.obj
 0002:000044d0       ??_C@_05MFEJDJP@value?$AA@ 000000018007f4d0     sfc_debug:sfdb_data_browse.obj
 0002:000044d8       ??_C@_05DCCHDMEJ@scope?$AA@ 000000018007f4d8     sfc_debug:sfdb_data_browse.obj
 0002:000044e0       ??_C@_02EGCJHIOB@id?$AA@   000000018007f4e0     sfc_debug:sfdb_data_browse.obj
 0002:000044e4       ??_C@_04PJOLNDGD@data?$AA@ 000000018007f4e4     sfc_debug:sfdb_data_browse.obj
 0002:000044ec       ??_C@_06LIBBAANI@len?$DN?$DN1?$AA@ 000000018007f4ec     sfc_debug:sfdb_handle_management.obj
 0002:000044f8       ??_C@_0BJ@IEEBKHME@sfdb_handle_management?4c?$AA@ 000000018007f4f8     sfc_debug:sfdb_handle_management.obj
 0002:00004514       ??_C@_06NCGDPKCC@handle?$AA@ 000000018007f514     sfc_debug:sfdb_handle_management.obj
 0002:00004520       ??_C@_0BP@NAIIDBEE@parentObjectType?$DN?$DNCHART_OBJECT?$AA@ 000000018007f520     sfc_debug:sfdb_handle_management.obj
 0002:00004540       ??_C@_0BD@JOOOIBOE@get_machine_option?$AA@ 000000018007f540     sfc_debug:sfdb_handle_management.obj
 0002:00004558       ??_C@_0P@KGLBOIAN@get_machine_id?$AA@ 000000018007f558     sfc_debug:sfdb_handle_management.obj
 0002:00004568       ??_C@_0N@OBHOGINE@get_chart_id?$AA@ 000000018007f568     sfc_debug:sfdb_handle_management.obj
 0002:00004578       ??_C@_0BD@DICPGEAM@register_sfunction?$AA@ 000000018007f578     sfc_debug:sfdb_handle_management.obj
 0002:00004590       ??_C@_0BF@FENDCECP@get_chart_visibility?$AA@ 000000018007f590     sfc_debug:sfdb_handle_management.obj
 0002:000045a8       ??_C@_0BM@FDGIEMLG@objectProperties?9?$DOlength?$DN?$DN0?$AA@ 000000018007f5a8     sfc_debug:sfdb_handle_management.obj
 0002:000045c8       ??_C@_0CE@KBPIEDGG@?$CI?$CI?$CKobjectProperties?$CJ?$CJ?4length?$DOnum@ 000000018007f5c8     sfc_debug:sfdb_handle_management.obj
 0002:000045f0       ??_C@_0CA@HFGDFECP@len?5?$DN?$DN?5objectProperties?9?$DOlength?$AA@ 000000018007f5f0     sfc_debug:sfdb_handle_management.obj
 0002:00004610       ??_C@_0P@BHPLCHGJ@get_object_ids?$AA@ 000000018007f610     sfc_debug:sfdb_handle_management.obj
 0002:00004620       ??_C@_0BK@IFFOLHLE@objectProperties?9?$DOsize?$DN?$DN0?$AA@ 000000018007f620     sfc_debug:sfdb_handle_management.obj
 0002:00004640       ??_C@_0BO@GFLPGHHM@len?5?$DO?$DN?5objectProperties?9?$DOsize?$AA@ 000000018007f640     sfc_debug:sfdb_handle_management.obj
 0002:00004660       ??_C@_05GFHEIIDD@event?$AA@ 000000018007f660     sfc_debug:sfdb_handle_management.obj
 0002:00004668       ??_C@_0M@BFOKCNLA@debug?4watch?$AA@ 000000018007f668     sfc_debug:sfdb_handle_management.obj
 0002:00004678       ??_C@_0CE@OILCPIFA@machine?4debug?4disableAllBreakpoi@ 000000018007f678     sfc_debug:sfdb_handle_management.obj
 0002:000046a0       ??_C@_0DA@JMDEGBBH@machine?4debug?4runTimeCheck?4state@ 000000018007f6a0     sfc_debug:sfdb_handle_management.obj
 0002:000046d0       ??_C@_0CP@IPHIMGFA@machine?4debug?4runTimeCheck?4trans@ 000000018007f6d0     sfc_debug:sfdb_handle_management.obj
 0002:00004700       ??_C@_0CL@LENOAAKD@machine?4debug?4runTimeCheck?4dataR@ 000000018007f700     sfc_debug:sfdb_handle_management.obj
 0002:00004730       ??_C@_0CK@MBMAMLGE@machine?4debug?4runTimeCheck?4cycle@ 000000018007f730     sfc_debug:sfdb_handle_management.obj
 0002:00004760       ??_C@_0CA@EGLALCO@machine?4debug?4animation?4enabled?$AA@ 000000018007f760     sfc_debug:sfdb_handle_management.obj
 0002:00004780       ??_C@_0L@KGLELNDP@transition?$AA@ 000000018007f780     sfc_debug:sfdb_handle_management.obj
 0002:0000478c       ??_C@_06JKPEPHBG@dst?4id?$AA@ 000000018007f78c     sfc_debug:sfdb_handle_management.obj
 0002:00004794       ??_C@_05HDBKIDE@state?$AA@ 000000018007f794     sfc_debug:sfdb_handle_management.obj
 0002:000047a0       ??_C@_0EG@MFIKDIJB@strlen?$CImachineName?$CJ?5?$DM?5sizeof?$CIdeb@ 000000018007f7a0     sfc_debug:sfdb_handle_management.obj
 0002:000047e8       ??_C@_0BM@DEONCIBN@stackPtr?5?$DN?$DN?5symScope?9?$DOstack?$AA@ 000000018007f7e8     sfc_debug:sfdb_symbol_scope.obj
 0002:00004808       ??_C@_0BE@PIKAOBFK@sfdb_symbol_scope?4c?$AA@ 000000018007f808     sfc_debug:sfdb_symbol_scope.obj
 0002:00004820       ??_C@_0BP@MJGDIBPE@symScope?9?$DOcurrentScope?5?$CB?$DN?5NULL?$AA@ 000000018007f820     sfc_debug:sfdb_symbol_scope.obj
 0002:00004840       ??_C@_0BP@OCHHKFJA@symScope?9?$DOcurrentScope?5?$DN?$DN?5NULL?$AA@ 000000018007f840     sfc_debug:sfdb_symbol_scope.obj
 0002:00004860       ??_C@_0BM@KCIKANPA@symScope?9?$DOstack?5?$DN?$DN?5stackPtr?$AA@ 000000018007f860     sfc_debug:sfdb_symbol_scope.obj
 0002:00004880       ??_C@_0DK@NCABFGD@symScope?9?$DOcurrentScope?5?$CB?$DN?5NULL?5?$CG@ 000000018007f880     sfc_debug:sfdb_symbol_scope.obj
 0002:000048c0       ??_C@_0DL@LDAGNOEE@currScope?9?$DOsymbolTable?4count?5?$DM?5c@ 000000018007f8c0     sfc_debug:sfdb_symbol_scope.obj
 0002:00004900       ??_C@_0BK@PHCKFGOO@numDims?5?$DM?$DN?5MAX_DIMENSIONS?$AA@ 000000018007f900     sfc_debug:sfdb_symbol_scope.obj
 0002:00004920       ??_C@_0EE@CLCFNFKP@Warning?3?5Can?8t?5display?5value?4?5Nu@ 000000018007f920     sfc_debug:sfdb_symbol_scope.obj
 0002:00004968       ??_C@_0BB@NPDHFBEP@valuePtr?5?$CB?$DN?5NULL?$AA@ 000000018007f968     sfc_debug:sfdb_symbol_scope.obj
 0002:00004980       ??_C@_0O@CHHKIHJE@chart?5?$CB?$DN?5NULL?$AA@ 000000018007f980     sfc_debug:sfdb_symbol_scope.obj
 0002:00004990       ??_C@_0BH@JFKFJEAI@dataInfo?5?$CG?$CG?5data?5?$CG?$CG?5st?$AA@ 000000018007f990     sfc_debug:sfdb_symbol_scope.obj
 0002:000049b0       ??_C@_0PC@ENOLANEC@Cannot?5change?5value?5of?5?8?$CFs?8?5at?5d@ 000000018007f9b0     sfc_debug:sfdb_symbol_scope.obj
 0002:00004aa4       ??_C@_02PINLEBJB@fi?$AA@   000000018007faa4     sfc_debug:sfdb_symbol_scope.obj
 0002:00004aa8       ??_C@_06FDANFAAP@sim2fi?$AA@ 000000018007faa8     sfc_debug:sfdb_symbol_scope.obj
 0002:00004ab0       ??_C@_0N@PGGMJAFA@Out?5of?5Scope?$AA@ 000000018007fab0     sfc_debug:sfdb_symbol_scope.obj
 0002:00004ac0       ??_C@_0BF@KFJKGDMO@Unrecognized?5symbol?4?$AA@ 000000018007fac0     sfc_debug:sfdb_symbol_scope.obj
 0002:00004ad8       ??_C@_0L@INJGJGAM@?5?$CIcomplex?$CJ?$AA@ 000000018007fad8     sfc_debug:sfdb_symbol_scope.obj
 0002:00004ae8       ??_C@_0O@MHGLJPE@fixpt?5?$CI?$CFs?5?$CFs?$CJ?$AA@ 000000018007fae8     sfc_debug:sfdb_symbol_scope.obj
 0002:00004af8       ??_C@_08FFKICJMO@?$CFs?$CL?$CF?416g?$AA@ 000000018007faf8     sfc_debug:sfdb_symbol_scope.obj
 0002:00004b04       ??_C@_02EPPPECEI@SI?$AA@   000000018007fb04     sfc_debug:sfdb_symbol_scope.obj
 0002:00004b08       ??_C@_09LKFGHFHF@?$CFs?$CI2?$FO?$CFd?$CJ?$CK?$AA@ 000000018007fb08     sfc_debug:sfdb_symbol_scope.obj
 0002:00004b14       ??_C@_06KJECHFDK@?$CF?416g?$CK?$AA@ 000000018007fb14     sfc_debug:sfdb_symbol_scope.obj
 0002:00004b1c       ??_C@_02IJPJFKDF@ml?$AA@   000000018007fb1c     sfc_debug:sfdb_symbol_scope.obj
 0002:00004b20       ??_C@_0O@NJOJHIHO@logical?5array?$AA@ 000000018007fb20     sfc_debug:sfdb_symbol_scope.obj
 0002:00004b30       ??_C@_0L@MDMKKENH@char?5array?$AA@ 000000018007fb30     sfc_debug:sfdb_symbol_scope.obj
 0002:00004b40       ??_C@_0N@DGCGENML@uint32?5array?$AA@ 000000018007fb40     sfc_debug:sfdb_symbol_scope.obj
 0002:00004b50       ??_C@_0M@OFFMACLB@int32?5array?$AA@ 000000018007fb50     sfc_debug:sfdb_symbol_scope.obj
 0002:00004b60       ??_C@_0N@JMJKGLLH@uint16?5array?$AA@ 000000018007fb60     sfc_debug:sfdb_symbol_scope.obj
 0002:00004b70       ??_C@_0M@EPOACEMN@int16?5array?$AA@ 000000018007fb70     sfc_debug:sfdb_symbol_scope.obj
 0002:00004b80       ??_C@_0M@NOMKNEGI@uint8?5array?$AA@ 000000018007fb80     sfc_debug:sfdb_symbol_scope.obj
 0002:00004b90       ??_C@_0L@HCHBFFAP@int8?5array?$AA@ 000000018007fb90     sfc_debug:sfdb_symbol_scope.obj
 0002:00004ba0       ??_C@_0N@KIFCNMIF@single?5array?$AA@ 000000018007fba0     sfc_debug:sfdb_symbol_scope.obj
 0002:00004bb0       ??_C@_0N@OFOFFBCM@double?5array?$AA@ 000000018007fbb0     sfc_debug:sfdb_symbol_scope.obj
 0002:00004bc0       ??_C@_04BIAHPGJI@?$CFdx1?$AA@ 000000018007fbc0     sfc_debug:sfdb_symbol_scope.obj
 0002:00004bc8       ??_C@_04CADIJHHA@?$CFd?9D?$AA@ 000000018007fbc8     sfc_debug:sfdb_symbol_scope.obj
 0002:00004bd0       ??_C@_05JIPKJPMI@?$CFs?$CFdx?$AA@ 000000018007fbd0     sfc_debug:sfdb_symbol_scope.obj
 0002:00004bd8       ??_C@_0BH@GLACFBLP@?5?$CIvariable?5sized?3?5MAX?5?$AA@ 000000018007fbd8     sfc_debug:sfdb_symbol_scope.obj
 0002:00004bf0       ??_C@_07CIFAGBMG@unknown?$AA@ 000000018007fbf0     sfc_debug:sfdb_symbol_scope.obj
 0002:00004bf8       ??_C@_05ENKANFLO@class?$AA@ 000000018007fbf8     sfc_debug:sfdb_symbol_scope.obj
 0002:00004c00       ??_C@_05FBJAGGIG@bytes?$AA@ 000000018007fc00     sfc_debug:sfdb_symbol_scope.obj
 0002:00004c08       ??_C@_04MEMAJGDJ@name?$AA@ 000000018007fc08     sfc_debug:sfdb_symbol_scope.obj
 0002:00004c10       ??_C@_0CF@NELOECCL@coverageVector?9?$DOlength?$DOcoverageI@ 000000018007fc10     sfc_debug:sfdb_coverage.obj
 0002:00004c38       ??_C@_0BA@CBMBNBFB@sfdb_coverage?4c?$AA@ 000000018007fc38     sfc_debug:sfdb_coverage.obj
 0002:00004c48       ??_C@_0DN@FAEHHEAM@?$CIscript?9?$DObm?4breakpoints?$CJ?4length?$DO@ 000000018007fc48     sfc_debug:sfdb_breakpoints.obj
 0002:00004c88       ??_C@_0BD@BABBLJFB@sfdb_breakpoints?4c?$AA@ 000000018007fc88     sfc_debug:sfdb_breakpoints.obj
 0002:00004ca0       ??_C@_0P@IGHKOFID@get_script_bps?$AA@ 000000018007fca0     sfc_debug:sfdb_breakpoints.obj
 0002:00004cb0       ??_C@_0BA@ICOJJJDD@get_all_scripts?$AA@ 000000018007fcb0     sfc_debug:sfdb_breakpoints.obj
 0002:00004cc0       ??_C@_0EI@EDDFBGGP@?$CIunsigned?5int?$CJ?$CImxGetM?$CIplhs?$FL0?$FN?$CJ?5?$CK@ 000000018007fcc0     sfc_debug:sfdb_breakpoints.obj
 0002:00004d08       ??_C@_0BE@PNADEEOB@get_eml_line_counts?$AA@ 000000018007fd08     sfc_debug:sfdb_breakpoints.obj
 0002:00004d20       ??_C@_0CC@JPCLBDPC@mxGetNumberOfElements?$CIplhs?$FL0?$FN?$CJ?$DN?$DN@ 000000018007fd20     sfc_debug:sfdb_breakpoints.obj
 0002:00004d48       ??_C@_0P@EHJHKHLL@get_global_bps?$AA@ 000000018007fd48     sfc_debug:sfdb_breakpoints.obj
 0002:00004d58       ??_C@_0CE@NADCJCF@?$CIchart?9?$DObm?4chart?$FLtagType?$FN?$CJ?4lengt@ 000000018007fd58     sfc_debug:sfdb_breakpoints.obj
 0002:00004d80       ??_C@_0CP@JOFCMAIP@?$CIchart?9?$DObm?4state?$FLtagType?$FN?$CJ?4lengt@ 000000018007fd80     sfc_debug:sfdb_breakpoints.obj
 0002:00004db0       ??_C@_0DE@GNPGALGC@?$CIchart?9?$DObm?4transition?$FLtagType?$FN?$CJ?4@ 000000018007fdb0     sfc_debug:sfdb_breakpoints.obj
 0002:00004de8       ??_C@_0DB@PCFIPMMH@?$CImachine?9?$DObm?4event?$FLtagType?$FN?$CJ?4len@ 000000018007fde8     sfc_debug:sfdb_breakpoints.obj
 0002:00004e20       ??_C@_0CP@FENPPAOI@?$CIchart?9?$DObm?4event?$FLtagType?$FN?$CJ?4lengt@ 000000018007fe20     sfc_debug:sfdb_breakpoints.obj
 0002:00004e50       ??_C@_0CH@EKAIFOIL@numCols?5?$DN?$DN?5TOTAL_EVENT_BREAKPOIN@ 000000018007fe50     sfc_debug:sfdb_breakpoints.obj
 0002:00004e78       ??_C@_0CA@BECONEOF@numRows?5?$DN?$DN?5machine?9?$DOevent?4count?$AA@ 000000018007fe78     sfc_debug:sfdb_breakpoints.obj
 0002:00004e98       ??_C@_07HCEBIAFG@get_bps?$AA@ 000000018007fe98     sfc_debug:sfdb_breakpoints.obj
 0002:00004ea0       ??_C@_0N@CNOINHPD@numCols?5?$DN?$DN?51?$AA@ 000000018007fea0     sfc_debug:sfdb_breakpoints.obj
 0002:00004eb0       ??_C@_0M@NNPJEEAE@get_eml_bps?$AA@ 000000018007feb0     sfc_debug:sfdb_breakpoints.obj
 0002:00004ec0       ??_C@_0BO@CDPAPHEM@numRows?5?$DN?$DN?5chart?9?$DOevent?4count?$AA@ 000000018007fec0     sfc_debug:sfdb_breakpoints.obj
 0002:00004ee0       ??_C@_0CM@FFJFHNEO@numCols?5?$DN?$DN?5TOTAL_TRANSITION_BREA@ 000000018007fee0     sfc_debug:sfdb_breakpoints.obj
 0002:00004f10       ??_C@_0CD@IOIMPEBN@numRows?5?$DN?$DN?5chart?9?$DOtransition?4cou@ 000000018007ff10     sfc_debug:sfdb_breakpoints.obj
 0002:00004f38       ??_C@_0CH@JEIBGOOJ@numCols?5?$DN?$DN?5TOTAL_STATE_BREAKPOIN@ 000000018007ff38     sfc_debug:sfdb_breakpoints.obj
 0002:00004f60       ??_C@_0BO@BIKNFPLB@numRows?5?$DN?$DN?5chart?9?$DOstate?4count?$AA@ 000000018007ff60     sfc_debug:sfdb_breakpoints.obj
 0002:00004f80       ??_C@_0CH@BNLENKGD@numCols?5?$DN?$DN?5TOTAL_CHART_BREAKPOIN@ 000000018007ff80     sfc_debug:sfdb_breakpoints.obj
 0002:00004fa8       ??_C@_0N@MEFFBAFI@numRows?5?$DN?$DN?51?$AA@ 000000018007ffa8     sfc_debug:sfdb_breakpoints.obj
 0002:00004fb8       ??_C@_0BJ@BLHBHILO@sfdb_state_consistency?4c?$AA@ 000000018007ffb8     sfc_debug:sfdb_state_consistency.obj
 0002:00004fd8       ??_C@_09LHFAMEGK@errorType?$AA@ 000000018007ffd8     sfc_debug:sfdb_state_consistency.obj
 0002:00004fe8       ??_C@_08DLAIKNBK@objectId?$AA@ 000000018007ffe8     sfc_debug:sfdb_state_consistency.obj
 0002:00004ff8       ??_C@_0L@GODCDFEF@objectType?$AA@ 000000018007fff8     sfc_debug:sfdb_state_consistency.obj
 0002:00005008       ??_C@_0L@CCGENCKP@errorStack?$AA@ 0000000180080008     sfc_debug:sfdb_state_consistency.obj
 0002:00005018       ??_C@_0O@PPHMCEKO@cycleDetected?$AA@ 0000000180080018     sfc_debug:sfdb_call_stack.obj
 0002:00005028       ??_C@_0N@MGKMJLEK@cycleStarted?$AA@ 0000000180080028     sfc_debug:sfdb_call_stack.obj
 0002:00005038       ??_C@_07BNCILGOA@tagType?$AA@ 0000000180080038     sfc_debug:sfdb_call_stack.obj
 0002:00005040       ??_C@_0L@POKIGEMP@eventScope?$AA@ 0000000180080040     sfc_debug:sfdb_call_stack.obj
 0002:00005050       ??_C@_0M@LKJJPLIC@traceVector?$AA@ 0000000180080050     sfc_debug:sfdb_call_stack.obj
 0002:00005060       ??_C@_0EC@MGCLADPL@?$CIinstance?9?$DOcycleDetection?4transi@ 0000000180080060     sfc_debug:sfdb_cycle_detection.obj
 0002:000050a8       ??_C@_0BH@ELCAAKDD@sfdb_cycle_detection?4c?$AA@ 00000001800800a8     sfc_debug:sfdb_cycle_detection.obj
 0002:000050c0       ??_C@_0O@PICIAFIK@newNode?$CB?$DNNULL?$AA@ 00000001800800c0     sfc_debug:sfdb_cycle_detection.obj
 0002:000050e0       _pDefaultRawDllMain        00000001800800e0     MSVCRT:crtdll.obj
 0002:000050e0       _pRawDllMain               00000001800800e0     MSVCRT:crtdll.obj
 0002:000050e8       ?ProcessDetach@NativeDll@<CrtImplementationDetails>@@0IB 00000001800800e8     MSVCRT:initsect.obj
 0002:000050ec       ?ProcessAttach@NativeDll@<CrtImplementationDetails>@@0IB 00000001800800ec     MSVCRT:initsect.obj
 0002:000050f0       ?ThreadAttach@NativeDll@<CrtImplementationDetails>@@0IB 00000001800800f0     MSVCRT:initsect.obj
 0002:000050f4       ?ThreadDetach@NativeDll@<CrtImplementationDetails>@@0IB 00000001800800f4     MSVCRT:initsect.obj
 0002:000050f8       ?ProcessVerifier@NativeDll@<CrtImplementationDetails>@@0IB 00000001800800f8     MSVCRT:initsect.obj
 0002:000050fc       ?value@?$integral_constant@_N$0A@@std@@2_NB 00000001800800fc     MSVCRT:tncleanup.obj
 0002:000050fd       ?value@?$integral_constant@_N$00@std@@2_NB 00000001800800fd     MSVCRT:tncleanup.obj
 0002:00005100       ?value@?$_Sizeof@U_Nil@std@@U12@U12@U12@U12@U12@U12@U12@@std@@2_KB 0000000180080100     MSVCRT:tncleanup.obj
 0002:00005110       _load_config_used          0000000180080110     MSVCRT:loadcfg.obj
 0002:00005180       __rtc_iaa                  0000000180080180     MSVCRT:initsect.obj
 0002:00005188       __rtc_izz                  0000000180080188     MSVCRT:initsect.obj
 0002:00005190       __rtc_taa                  0000000180080190     MSVCRT:initsect.obj
 0002:00005198       __rtc_tzz                  0000000180080198     MSVCRT:initsect.obj
 0002:00009dd4       __IMPORT_DESCRIPTOR_libmx  0000000180084dd4     libmx:libmx.dll
 0002:00009de8       __IMPORT_DESCRIPTOR_libmex 0000000180084de8     libmex:libmex.dll
 0002:00009dfc       __IMPORT_DESCRIPTOR_libfixedpoint 0000000180084dfc     libfixedpoint:libfixedpoint.dll
 0002:00009e10       __IMPORT_DESCRIPTOR_libut  0000000180084e10     libut:libut.dll
 0002:00009e24       __IMPORT_DESCRIPTOR_libmwmathutil 0000000180084e24     libmwmathutil:libmwmathutil.dll
 0002:00009e38       __IMPORT_DESCRIPTOR_libemlrt 0000000180084e38     libemlrt:libemlrt.dll
 0002:00009e4c       __IMPORT_DESCRIPTOR_MSVCR110 0000000180084e4c     MSVCRT:MSVCR110.dll
 0002:00009e60       __IMPORT_DESCRIPTOR_KERNEL32 0000000180084e60     kernel32:KERNEL32.dll
 0002:00009e74       __NULL_IMPORT_DESCRIPTOR   0000000180084e74     libmx:libmx.dll
 0003:00012448       DYNAMIC_DIMENSION          0000000180098448     test_sfun_registry.obj
 0003:00013260       emlrtContextGlobal         0000000180099260     sfc_mex:sfc_mex.obj
 0003:00013300       __security_cookie          0000000180099300     MSVCRT:gs_cookie.obj
 0003:00013308       __security_cookie_complement 0000000180099308     MSVCRT:gs_cookie.obj
 0003:00013310       _fltused                   0000000180099310     MSVCRT:dllsupp.obj
 0003:00013314       __native_dllmain_reason    0000000180099314     MSVCRT:natstart.obj
 0003:00013448       sfGlobalDebugInstanceStruct 0000000180099448     test_sfun_registry.obj
 0003:00014670       emlrtRootTLSGlobal         000000018009a670     sfc_mex:sfc_mex.obj
 0003:00015768       ?__type_info_root_node@@3U__type_info_node@@A 000000018009b768     MSVCRT:tncleanup.obj
 0003:00015778       _sfTime_                   000000018009b778     <common>
 0003:00015780       _testMachineNumber_        000000018009b780     <common>
 0003:000157a0       gSfComplexDataTypeOffsets  000000018009b7a0     <common>
 0003:00015800       gSfDataTypeOffsets         000000018009b800     <common>
 0003:00015848       gMaskBits                  000000018009b848     <common>
 0003:00015850       __native_startup_lock      000000018009b850     <common>
 0003:00015858       __native_startup_state     000000018009b858     <common>
 0003:00015860       __onexitend                000000018009b860     <common>
 0003:00015868       __onexitbegin              000000018009b868     <common>
 0003:00015870       __dyn_tls_init_callback    000000018009b870     <common>

 entry point at        0001:0007920c

 Static symbols

 0000:00000000       .debug$S                   0000000180000000     kernel32:KERNEL32.dll
 0000:00000000       .debug$S                   0000000180000000     kernel32:KERNEL32.dll
 0000:00000000       .debug$S                   0000000180000000     kernel32:KERNEL32.dll
 0000:00000000       .debug$S                   0000000180000000     kernel32:KERNEL32.dll
 0000:00000000       .debug$S                   0000000180000000     kernel32:KERNEL32.dll
 0000:00000000       .debug$S                   0000000180000000     kernel32:KERNEL32.dll
 0000:00000000       .debug$S                   0000000180000000     kernel32:KERNEL32.dll
 0000:00000000       .debug$S                   0000000180000000     kernel32:KERNEL32.dll
 0000:00000000       .debug$S                   0000000180000000     kernel32:KERNEL32.dll
 0000:00000000       .debug$S                   0000000180000000     libmx:libmx.dll
 0000:00000000       .debug$S                   0000000180000000     MSVCRT:MSVCR110.dll
 0000:00000000       .debug$S                   0000000180000000     MSVCRT:MSVCR110.dll
 0000:00000000       .debug$S                   0000000180000000     MSVCRT:MSVCR110.dll
 0000:00000000       .debug$S                   0000000180000000     MSVCRT:MSVCR110.dll
 0000:00000000       .debug$S                   0000000180000000     MSVCRT:MSVCR110.dll
 0000:00000000       .debug$S                   0000000180000000     MSVCRT:MSVCR110.dll
 0000:00000000       .debug$S                   0000000180000000     MSVCRT:MSVCR110.dll
 0000:00000000       .debug$S                   0000000180000000     MSVCRT:MSVCR110.dll
 0000:00000000       .debug$S                   0000000180000000     MSVCRT:MSVCR110.dll
 0000:00000000       .debug$S                   0000000180000000     MSVCRT:MSVCR110.dll
 0000:00000000       .debug$S                   0000000180000000     MSVCRT:MSVCR110.dll
 0000:00000000       .debug$S                   0000000180000000     MSVCRT:MSVCR110.dll
 0000:00000000       .debug$S                   0000000180000000     MSVCRT:MSVCR110.dll
 0000:00000000       .debug$S                   0000000180000000     MSVCRT:MSVCR110.dll
 0000:00000000       .debug$S                   0000000180000000     MSVCRT:MSVCR110.dll
 0000:00000000       .debug$S                   0000000180000000     MSVCRT:MSVCR110.dll
 0000:00000000       .debug$S                   0000000180000000     MSVCRT:MSVCR110.dll
 0000:00000000       .debug$S                   0000000180000000     MSVCRT:MSVCR110.dll
 0000:00000000       .debug$S                   0000000180000000     MSVCRT:MSVCR110.dll
 0000:00000000       .debug$S                   0000000180000000     MSVCRT:MSVCR110.dll
 0000:00000000       .debug$S                   0000000180000000     MSVCRT:MSVCR110.dll
 0000:00000000       .debug$S                   0000000180000000     MSVCRT:MSVCR110.dll
 0000:00000000       .debug$S                   0000000180000000     libmx:libmx.dll
 0000:00000000       .debug$S                   0000000180000000     libmx:libmx.dll
 0000:00000000       .debug$S                   0000000180000000     libmx:libmx.dll
 0000:00000000       .debug$S                   0000000180000000     libmx:libmx.dll
 0000:00000000       .debug$S                   0000000180000000     libmx:libmx.dll
 0000:00000000       .debug$S                   0000000180000000     MSVCRT:MSVCR110.dll
 0000:00000000       .debug$S                   0000000180000000     libmx:libmx.dll
 0000:00000000       .debug$S                   0000000180000000     MSVCRT:MSVCR110.dll
 0000:00000000       .debug$S                   0000000180000000     libmx:libmx.dll
 0000:00000000       .debug$S                   0000000180000000     MSVCRT:MSVCR110.dll
 0000:00000000       .debug$S                   0000000180000000     libmx:libmx.dll
 0000:00000000       .debug$S                   0000000180000000     MSVCRT:MSVCR110.dll
 0000:00000000       .debug$S                   0000000180000000     libmx:libmx.dll
 0000:00000000       .debug$S                   0000000180000000     MSVCRT:MSVCR110.dll
 0000:00000000       .debug$S                   0000000180000000     libmx:libmx.dll
 0000:00000000       .debug$S                   0000000180000000     MSVCRT:MSVCR110.dll
 0000:00000000       .debug$S                   0000000180000000     libmx:libmx.dll
 0000:00000000       .debug$S                   0000000180000000     MSVCRT:MSVCR110.dll
 0000:00000000       .debug$S                   0000000180000000     libmx:libmx.dll
 0000:00000000       .debug$S                   0000000180000000     MSVCRT:MSVCR110.dll
 0000:00000000       .debug$S                   0000000180000000     MSVCRT:MSVCR110.dll
 0000:00000000       .debug$S                   0000000180000000     MSVCRT:MSVCR110.dll
 0000:00000000       .debug$S                   0000000180000000     libmx:libmx.dll
 0000:00000000       .debug$S                   0000000180000000     libmx:libmx.dll
 0000:00000000       .debug$S                   0000000180000000     libmx:libmx.dll
 0000:00000000       .debug$S                   0000000180000000     libmx:libmx.dll
 0000:00000000       .debug$S                   0000000180000000     libmx:libmx.dll
 0000:00000000       .debug$S                   0000000180000000     libmx:libmx.dll
 0000:00000000       .debug$S                   0000000180000000     libmx:libmx.dll
 0000:00000000       .debug$S                   0000000180000000     libmx:libmx.dll
 0000:00000000       .debug$S                   0000000180000000     libmx:libmx.dll
 0000:00000000       .debug$S                   0000000180000000     libmx:libmx.dll
 0000:00000000       .debug$S                   0000000180000000     libmx:libmx.dll
 0000:00000000       .debug$S                   0000000180000000     libmx:libmx.dll
 0000:00000000       .debug$S                   0000000180000000     libmx:libmx.dll
 0000:00000000       .debug$S                   0000000180000000     libmx:libmx.dll
 0000:00000000       .debug$S                   0000000180000000     libmx:libmx.dll
 0000:00000000       .debug$S                   0000000180000000     libmx:libmx.dll
 0000:00000000       .debug$S                   0000000180000000     libmx:libmx.dll
 0000:00000000       .debug$S                   0000000180000000     libmx:libmx.dll
 0000:00000000       .debug$S                   0000000180000000     libmx:libmx.dll
 0000:00000000       .debug$S                   0000000180000000     libmx:libmx.dll
 0000:00000000       .debug$S                   0000000180000000     libmx:libmx.dll
 0000:00000000       .debug$S                   0000000180000000     libmx:libmx.dll
 0000:00000000       .debug$S                   0000000180000000     libmx:libmx.dll
 0000:00000000       .debug$S                   0000000180000000     libmx:libmx.dll
 0000:00000000       .debug$S                   0000000180000000     libmx:libmx.dll
 0000:00000000       .debug$S                   0000000180000000     libmx:libmx.dll
 0000:00000000       .debug$S                   0000000180000000     libmx:libmx.dll
 0000:00000000       .debug$S                   0000000180000000     libmx:libmx.dll
 0000:00000000       .debug$S                   0000000180000000     libmx:libmx.dll
 0000:00000000       .debug$S                   0000000180000000     libmx:libmx.dll
 0000:00000000       .debug$S                   0000000180000000     libmex:libmex.dll
 0000:00000000       .debug$S                   0000000180000000     libmx:libmx.dll
 0000:00000000       .debug$S                   0000000180000000     libmex:libmex.dll
 0000:00000000       .debug$S                   0000000180000000     libmx:libmx.dll
 0000:00000000       .debug$S                   0000000180000000     libmex:libmex.dll
 0000:00000000       .debug$S                   0000000180000000     libmx:libmx.dll
 0000:00000000       .debug$S                   0000000180000000     libmx:libmx.dll
 0000:00000000       .debug$S                   0000000180000000     libmx:libmx.dll
 0000:00000000       .debug$S                   0000000180000000     libemlrt:libemlrt.dll
 0000:00000000       .debug$S                   0000000180000000     libemlrt:libemlrt.dll
 0000:00000000       .debug$S                   0000000180000000     libemlrt:libemlrt.dll
 0000:00000000       .debug$S                   0000000180000000     libemlrt:libemlrt.dll
 0000:00000000       .debug$S                   0000000180000000     libemlrt:libemlrt.dll
 0000:00000000       .debug$S                   0000000180000000     libemlrt:libemlrt.dll
 0000:00000000       .debug$S                   0000000180000000     libemlrt:libemlrt.dll
 0000:00000000       .debug$S                   0000000180000000     libemlrt:libemlrt.dll
 0000:00000000       .debug$S                   0000000180000000     libemlrt:libemlrt.dll
 0000:00000000       .debug$S                   0000000180000000     libemlrt:libemlrt.dll
 0000:00000000       .debug$S                   0000000180000000     libemlrt:libemlrt.dll
 0000:00000000       .debug$S                   0000000180000000     libemlrt:libemlrt.dll
 0000:00000000       .debug$S                   0000000180000000     libemlrt:libemlrt.dll
 0000:00000000       .debug$S                   0000000180000000     libemlrt:libemlrt.dll
 0000:00000000       .debug$S                   0000000180000000     libemlrt:libemlrt.dll
 0000:00000000       .debug$S                   0000000180000000     libemlrt:libemlrt.dll
 0000:00000000       .debug$S                   0000000180000000     libmx:libmx.dll
 0000:00000000       .debug$S                   0000000180000000     libmwmathutil:libmwmathutil.dll
 0000:00000000       .debug$S                   0000000180000000     libmwmathutil:libmwmathutil.dll
 0000:00000000       .debug$S                   0000000180000000     libmwmathutil:libmwmathutil.dll
 0000:00000000       .debug$S                   0000000180000000     libmwmathutil:libmwmathutil.dll
 0000:00000000       .debug$S                   0000000180000000     libmwmathutil:libmwmathutil.dll
 0000:00000000       .debug$S                   0000000180000000     libmwmathutil:libmwmathutil.dll
 0000:00000000       .debug$S                   0000000180000000     libmx:libmx.dll
 0000:00000000       .debug$S                   0000000180000000     libut:libut.dll
 0000:00000000       .debug$S                   0000000180000000     libut:libut.dll
 0000:00000000       .debug$S                   0000000180000000     libut:libut.dll
 0000:00000000       .debug$S                   0000000180000000     libut:libut.dll
 0000:00000000       .debug$S                   0000000180000000     libut:libut.dll
 0000:00000000       .debug$S                   0000000180000000     libut:libut.dll
 0000:00000000       .debug$S                   0000000180000000     libmx:libmx.dll
 0000:00000000       .debug$S                   0000000180000000     libfixedpoint:libfixedpoint.dll
 0000:00000000       .debug$S                   0000000180000000     libfixedpoint:libfixedpoint.dll
 0000:00000000       .debug$S                   0000000180000000     libmx:libmx.dll
 0000:00000000       .debug$S                   0000000180000000     libmex:libmex.dll
 0000:00000000       .debug$S                   0000000180000000     libmex:libmex.dll
 0000:00000000       .debug$S                   0000000180000000     libmex:libmex.dll
 0000:00000000       .debug$S                   0000000180000000     libmex:libmex.dll
 0000:00000000       .debug$S                   0000000180000000     libmex:libmex.dll
 0000:00000000       .debug$S                   0000000180000000     libmex:libmex.dll
 0000:00000000       .debug$S                   0000000180000000     libmex:libmex.dll
 0000:00000000       .debug$S                   0000000180000000     libmex:libmex.dll
 0000:00000000       .debug$S                   0000000180000000     libmex:libmex.dll
 0000:00000000       .debug$S                   0000000180000000     libmx:libmx.dll
 0000:00000000       .debug$S                   0000000180000000     libmx:libmx.dll
 0000:00000000       .debug$S                   0000000180000000     libmx:libmx.dll
 0000:00000000       .debug$S                   0000000180000000     libmx:libmx.dll
 0000:00000000       .debug$S                   0000000180000000     libmx:libmx.dll
 0001:00000580       initialize_c1_test         0000000180001580 f   c1_test.obj
 0001:000005d0       initialize_params_c1_test  00000001800015d0 f   c1_test.obj
 0001:000005e0       enable_c1_test             00000001800015e0 f   c1_test.obj
 0001:00000620       disable_c1_test            0000000180001620 f   c1_test.obj
 0001:00000660       c1_update_debugger_state_c1_test 0000000180001660 f   c1_test.obj
 0001:00000670       get_sim_state_c1_test      0000000180001670 f   c1_test.obj
 0001:00000850       set_sim_state_c1_test      0000000180001850 f   c1_test.obj
 0001:000009a0       finalize_c1_test           00000001800019a0 f   c1_test.obj
 0001:000009b0       sf_c1_test                 00000001800019b0 f   c1_test.obj
 0001:00000d20       c1_chartstep_c1_test       0000000180001d20 f   c1_test.obj
 0001:00002c50       initSimStructsc1_test      0000000180003c50 f   c1_test.obj
 0001:00002c60       init_script_number_translation 0000000180003c60 f   c1_test.obj
 0001:00002c70       c1_sf_marshallOut          0000000180003c70 f   c1_test.obj
 0001:00002dc0       c1_emlrt_marshallIn        0000000180003dc0 f   c1_test.obj
 0001:00002e30       c1_b_emlrt_marshallIn      0000000180003e30 f   c1_test.obj
 0001:00002f20       c1_sf_marshallIn           0000000180003f20 f   c1_test.obj
 0001:00003020       c1_b_sf_marshallOut        0000000180004020 f   c1_test.obj
 0001:000030d0       c1_c_sf_marshallOut        00000001800040d0 f   c1_test.obj
 0001:00003220       c1_c_emlrt_marshallIn      0000000180004220 f   c1_test.obj
 0001:000032b0       c1_b_sf_marshallIn         00000001800042b0 f   c1_test.obj
 0001:00003350       c1_d_sf_marshallOut        0000000180004350 f   c1_test.obj
 0001:00003530       c1_d_emlrt_marshallIn      0000000180004530 f   c1_test.obj
 0001:00003630       c1_c_sf_marshallIn         0000000180004630 f   c1_test.obj
 0001:00003770       c1_e_sf_marshallOut        0000000180004770 f   c1_test.obj
 0001:00003950       c1_e_emlrt_marshallIn      0000000180004950 f   c1_test.obj
 0001:00003a50       c1_d_sf_marshallIn         0000000180004a50 f   c1_test.obj
 0001:00003b90       c1_info_helper             0000000180004b90 f   c1_test.obj
 0001:00006b60       c1_b_info_helper           0000000180007b60 f   c1_test.obj
 0001:000096c0       c1_eml_scalar_eg           000000018000a6c0 f   c1_test.obj
 0001:000096d0       c1_realmin                 000000018000a6d0 f   c1_test.obj
 0001:000096e0       c1_eps                     000000018000a6e0 f   c1_test.obj
 0001:000096f0       c1_check_forloop_overflow_error 000000018000a6f0 f   c1_test.obj
 0001:000098e0       c1_eml_warning             000000018000a8e0 f   c1_test.obj
 0001:00009a00       c1_below_threshold         000000018000aa00 f   c1_test.obj
 0001:00009a10       c1_b_eml_scalar_eg         000000018000aa10 f   c1_test.obj
 0001:00009a20       c1_c_eml_scalar_eg         000000018000aa20 f   c1_test.obj
 0001:00009a30       c1_g_emlrt_marshallIn      000000018000aa30 f   c1_test.obj
 0001:00009a90       c1_h_emlrt_marshallIn      000000018000aa90 f   c1_test.obj
 0001:00009b20       c1_b_eml_matlab_zgetrf     000000018000ab20 f   c1_test.obj
 0001:0000abf0       c1_b_eml_xger              000000018000bbf0 f   c1_test.obj
 0001:0000b2d0       c1_c_eml_xtrsm             000000018000c2d0 f   c1_test.obj
 0001:0000b960       c1_d_eml_xtrsm             000000018000c960 f   c1_test.obj
 0001:0000c340       init_dsm_address_info      000000018000d340 f   c1_test.obj
 0001:0000cb90       sf_get_sim_state_info_c1_test 000000018000db90 f   c1_test.obj
 0001:0000cc60       chart_debug_initialization 000000018000dc60 f   c1_test.obj
 0001:0000d8d0       sf_get_instance_specialization 000000018000e8d0 f   c1_test.obj
 0001:0000d8e0       sf_opaque_initialize_c1_test 000000018000e8e0 f   c1_test.obj
 0001:0000d920       sf_opaque_enable_c1_test   000000018000e920 f   c1_test.obj
 0001:0000d940       sf_opaque_disable_c1_test  000000018000e940 f   c1_test.obj
 0001:0000d960       sf_opaque_gateway_c1_test  000000018000e960 f   c1_test.obj
 0001:0000dc50       sf_opaque_get_sim_state_c1_test 000000018000ec50 f   c1_test.obj
 0001:0000dc70       sf_opaque_set_sim_state_c1_test 000000018000ec70 f   c1_test.obj
 0001:0000dca0       sf_opaque_terminate_c1_test 000000018000eca0 f   c1_test.obj
 0001:0000dd20       sf_opaque_init_subchart_simstructs 000000018000ed20 f   c1_test.obj
 0001:0000dd40       mdlProcessParameters_c1_test 000000018000ed40 f   c1_test.obj
 0001:0000de00       mdlSetWorkWidths_c1_test   000000018000ee00 f   c1_test.obj
 0001:0000e3f0       mdlRTW_c1_test             000000018000f3f0 f   c1_test.obj
 0001:0000e430       mdlStart_c1_test           000000018000f430 f   c1_test.obj
 0001:0000ebc0       initialize_c2_test         000000018000fbc0 f   c2_test.obj
 0001:0000ec10       initialize_params_c2_test  000000018000fc10 f   c2_test.obj
 0001:0000ec20       enable_c2_test             000000018000fc20 f   c2_test.obj
 0001:0000ec60       disable_c2_test            000000018000fc60 f   c2_test.obj
 0001:0000eca0       c2_update_debugger_state_c2_test 000000018000fca0 f   c2_test.obj
 0001:0000ecb0       get_sim_state_c2_test      000000018000fcb0 f   c2_test.obj
 0001:0000ee90       set_sim_state_c2_test      000000018000fe90 f   c2_test.obj
 0001:0000efe0       finalize_c2_test           000000018000ffe0 f   c2_test.obj
 0001:0000eff0       sf_c2_test                 000000018000fff0 f   c2_test.obj
 0001:0000f680       c2_chartstep_c2_test       0000000180010680 f   c2_test.obj
 0001:00012230       initSimStructsc2_test      0000000180013230 f   c2_test.obj
 0001:00012240       c2_m2c                     0000000180013240 f   c2_test.obj
 0001:00014430       init_script_number_translation 0000000180015430 f   c2_test.obj
 0001:000144a0       c2_sf_marshallOut          00000001800154a0 f   c2_test.obj
 0001:000145f0       c2_emlrt_marshallIn        00000001800155f0 f   c2_test.obj
 0001:00014660       c2_b_emlrt_marshallIn      0000000180015660 f   c2_test.obj
 0001:00014750       c2_sf_marshallIn           0000000180015750 f   c2_test.obj
 0001:00014850       c2_b_sf_marshallOut        0000000180015850 f   c2_test.obj
 0001:00014970       c2_c_sf_marshallOut        0000000180015970 f   c2_test.obj
 0001:00014a20       c2_d_sf_marshallOut        0000000180015a20 f   c2_test.obj
 0001:00014c00       c2_c_emlrt_marshallIn      0000000180015c00 f   c2_test.obj
 0001:00014c90       c2_b_sf_marshallIn         0000000180015c90 f   c2_test.obj
 0001:00014d30       c2_d_emlrt_marshallIn      0000000180015d30 f   c2_test.obj
 0001:00014e00       c2_c_sf_marshallIn         0000000180015e00 f   c2_test.obj
 0001:00014ed0       c2_e_sf_marshallOut        0000000180015ed0 f   c2_test.obj
 0001:000150b0       c2_e_emlrt_marshallIn      00000001800160b0 f   c2_test.obj
 0001:000151b0       c2_d_sf_marshallIn         00000001800161b0 f   c2_test.obj
 0001:000152f0       c2_f_sf_marshallOut        00000001800162f0 f   c2_test.obj
 0001:000154d0       c2_f_emlrt_marshallIn      00000001800164d0 f   c2_test.obj
 0001:000155d0       c2_e_sf_marshallIn         00000001800165d0 f   c2_test.obj
 0001:00015710       c2_g_emlrt_marshallIn      0000000180016710 f   c2_test.obj
 0001:00015810       c2_f_sf_marshallIn         0000000180016810 f   c2_test.obj
 0001:00015950       c2_g_sf_marshallOut        0000000180016950 f   c2_test.obj
 0001:00015a90       c2_h_emlrt_marshallIn      0000000180016a90 f   c2_test.obj
 0001:00015b80       c2_g_sf_marshallIn         0000000180016b80 f   c2_test.obj
 0001:00015c70       c2_info_helper             0000000180016c70 f   c2_test.obj
 0001:00018c40       c2_b_info_helper           0000000180019c40 f   c2_test.obj
 0001:0001bc10       c2_c_info_helper           000000018001cc10 f   c2_test.obj
 0001:0001d630       c2_eml_scalar_eg           000000018001e630 f   c2_test.obj
 0001:0001d640       c2_b_eml_scalar_eg         000000018001e640 f   c2_test.obj
 0001:0001d650       c2_sum                     000000018001e650 f   c2_test.obj
 0001:0001d770       c2_c_eml_scalar_eg         000000018001e770 f   c2_test.obj
 0001:0001d780       c2_d_eml_scalar_eg         000000018001e780 f   c2_test.obj
 0001:0001d790       c2_realmin                 000000018001e790 f   c2_test.obj
 0001:0001d7a0       c2_eps                     000000018001e7a0 f   c2_test.obj
 0001:0001d7b0       c2_check_forloop_overflow_error 000000018001e7b0 f   c2_test.obj
 0001:0001d9a0       c2_eml_warning             000000018001e9a0 f   c2_test.obj
 0001:0001dac0       c2_below_threshold         000000018001eac0 f   c2_test.obj
 0001:0001dad0       c2_e_eml_scalar_eg         000000018001ead0 f   c2_test.obj
 0001:0001dae0       c2_j_emlrt_marshallIn      000000018001eae0 f   c2_test.obj
 0001:0001db40       c2_k_emlrt_marshallIn      000000018001eb40 f   c2_test.obj
 0001:0001dbd0       c2_b_eml_matlab_zgetrf     000000018001ebd0 f   c2_test.obj
 0001:0001eca0       c2_b_eml_xger              000000018001fca0 f   c2_test.obj
 0001:0001f380       c2_c_eml_xtrsm             0000000180020380 f   c2_test.obj
 0001:0001f920       c2_d_eml_xtrsm             0000000180020920 f   c2_test.obj
 0001:000201f0       init_dsm_address_info      00000001800211f0 f   c2_test.obj
 0001:00021230       sf_get_sim_state_info_c2_test 0000000180022230 f   c2_test.obj
 0001:00021300       chart_debug_initialization 0000000180022300 f   c2_test.obj
 0001:00022a00       sf_get_instance_specialization 0000000180023a00 f   c2_test.obj
 0001:00022a10       sf_opaque_initialize_c2_test 0000000180023a10 f   c2_test.obj
 0001:00022a50       sf_opaque_enable_c2_test   0000000180023a50 f   c2_test.obj
 0001:00022a70       sf_opaque_disable_c2_test  0000000180023a70 f   c2_test.obj
 0001:00022a90       sf_opaque_gateway_c2_test  0000000180023a90 f   c2_test.obj
 0001:00022d80       sf_opaque_get_sim_state_c2_test 0000000180023d80 f   c2_test.obj
 0001:00022da0       sf_opaque_set_sim_state_c2_test 0000000180023da0 f   c2_test.obj
 0001:00022dd0       sf_opaque_terminate_c2_test 0000000180023dd0 f   c2_test.obj
 0001:00022e50       sf_opaque_init_subchart_simstructs 0000000180023e50 f   c2_test.obj
 0001:00022e70       mdlProcessParameters_c2_test 0000000180023e70 f   c2_test.obj
 0001:00022f30       mdlSetWorkWidths_c2_test   0000000180023f30 f   c2_test.obj
 0001:00023690       mdlRTW_c2_test             0000000180024690 f   c2_test.obj
 0001:000236d0       mdlStart_c2_test           00000001800246d0 f   c2_test.obj
 0001:00023e40       initialize_c3_test         0000000180024e40 f   c3_test.obj
 0001:00023e90       initialize_params_c3_test  0000000180024e90 f   c3_test.obj
 0001:00023ea0       enable_c3_test             0000000180024ea0 f   c3_test.obj
 0001:00023ee0       disable_c3_test            0000000180024ee0 f   c3_test.obj
 0001:00023f20       c3_update_debugger_state_c3_test 0000000180024f20 f   c3_test.obj
 0001:00023f30       get_sim_state_c3_test      0000000180024f30 f   c3_test.obj
 0001:00024110       set_sim_state_c3_test      0000000180025110 f   c3_test.obj
 0001:00024260       finalize_c3_test           0000000180025260 f   c3_test.obj
 0001:00024270       sf_c3_test                 0000000180025270 f   c3_test.obj
 0001:00024540       c3_chartstep_c3_test       0000000180025540 f   c3_test.obj
 0001:00024f50       initSimStructsc3_test      0000000180025f50 f   c3_test.obj
 0001:00024f60       c3_eulerang                0000000180025f60 f   c3_test.obj
 0001:00026d10       init_script_number_translation 0000000180027d10 f   c3_test.obj
 0001:00026d80       c3_sf_marshallOut          0000000180027d80 f   c3_test.obj
 0001:00026ed0       c3_emlrt_marshallIn        0000000180027ed0 f   c3_test.obj
 0001:00026f40       c3_b_emlrt_marshallIn      0000000180027f40 f   c3_test.obj
 0001:00027030       c3_sf_marshallIn           0000000180028030 f   c3_test.obj
 0001:00027130       c3_b_sf_marshallOut        0000000180028130 f   c3_test.obj
 0001:000271e0       c3_c_emlrt_marshallIn      00000001800281e0 f   c3_test.obj
 0001:00027270       c3_b_sf_marshallIn         0000000180028270 f   c3_test.obj
 0001:00027310       c3_c_sf_marshallOut        0000000180028310 f   c3_test.obj
 0001:000274f0       c3_d_emlrt_marshallIn      00000001800284f0 f   c3_test.obj
 0001:000275f0       c3_c_sf_marshallIn         00000001800285f0 f   c3_test.obj
 0001:00027730       c3_d_sf_marshallOut        0000000180028730 f   c3_test.obj
 0001:00027910       c3_e_emlrt_marshallIn      0000000180028910 f   c3_test.obj
 0001:00027a10       c3_d_sf_marshallIn         0000000180028a10 f   c3_test.obj
 0001:00027b50       c3_info_helper             0000000180028b50 f   c3_test.obj
 0001:00028d50       c3_eml_scalar_eg           0000000180029d50 f   c3_test.obj
 0001:00028d60       c3_g_emlrt_marshallIn      0000000180029d60 f   c3_test.obj
 0001:00028dc0       c3_h_emlrt_marshallIn      0000000180029dc0 f   c3_test.obj
 0001:00028e50       init_dsm_address_info      0000000180029e50 f   c3_test.obj
 0001:000293f0       sf_get_sim_state_info_c3_test 000000018002a3f0 f   c3_test.obj
 0001:000294c0       chart_debug_initialization 000000018002a4c0 f   c3_test.obj
 0001:0002a0c0       sf_get_instance_specialization 000000018002b0c0 f   c3_test.obj
 0001:0002a0d0       sf_opaque_initialize_c3_test 000000018002b0d0 f   c3_test.obj
 0001:0002a110       sf_opaque_enable_c3_test   000000018002b110 f   c3_test.obj
 0001:0002a130       sf_opaque_disable_c3_test  000000018002b130 f   c3_test.obj
 0001:0002a150       sf_opaque_gateway_c3_test  000000018002b150 f   c3_test.obj
 0001:0002a440       sf_opaque_get_sim_state_c3_test 000000018002b440 f   c3_test.obj
 0001:0002a460       sf_opaque_set_sim_state_c3_test 000000018002b460 f   c3_test.obj
 0001:0002a490       sf_opaque_terminate_c3_test 000000018002b490 f   c3_test.obj
 0001:0002a510       sf_opaque_init_subchart_simstructs 000000018002b510 f   c3_test.obj
 0001:0002a530       mdlProcessParameters_c3_test 000000018002b530 f   c3_test.obj
 0001:0002a5f0       mdlSetWorkWidths_c3_test   000000018002b5f0 f   c3_test.obj
 0001:0002ab60       mdlRTW_c3_test             000000018002bb60 f   c3_test.obj
 0001:0002aba0       mdlStart_c3_test           000000018002bba0 f   c3_test.obj
 0001:0002b310       initialize_c4_test         000000018002c310 f   c4_test.obj
 0001:0002b360       initialize_params_c4_test  000000018002c360 f   c4_test.obj
 0001:0002b370       enable_c4_test             000000018002c370 f   c4_test.obj
 0001:0002b3b0       disable_c4_test            000000018002c3b0 f   c4_test.obj
 0001:0002b3f0       c4_update_debugger_state_c4_test 000000018002c3f0 f   c4_test.obj
 0001:0002b400       get_sim_state_c4_test      000000018002c400 f   c4_test.obj
 0001:0002b660       set_sim_state_c4_test      000000018002c660 f   c4_test.obj
 0001:0002b7a0       finalize_c4_test           000000018002c7a0 f   c4_test.obj
 0001:0002b7b0       sf_c4_test                 000000018002c7b0 f   c4_test.obj
 0001:0002bf10       c4_chartstep_c4_test       000000018002cf10 f   c4_test.obj
 0001:0002d930       initSimStructsc4_test      000000018002e930 f   c4_test.obj
 0001:0002d940       init_script_number_translation 000000018002e940 f   c4_test.obj
 0001:0002d950       c4_sf_marshallOut          000000018002e950 f   c4_test.obj
 0001:0002da00       c4_emlrt_marshallIn        000000018002ea00 f   c4_test.obj
 0001:0002da70       c4_b_emlrt_marshallIn      000000018002ea70 f   c4_test.obj
 0001:0002db00       c4_sf_marshallIn           000000018002eb00 f   c4_test.obj
 0001:0002dba0       c4_b_sf_marshallOut        000000018002eba0 f   c4_test.obj
 0001:0002dcf0       c4_c_sf_marshallOut        000000018002ecf0 f   c4_test.obj
 0001:0002ded0       c4_d_sf_marshallOut        000000018002eed0 f   c4_test.obj
 0001:0002dff0       c4_e_sf_marshallOut        000000018002eff0 f   c4_test.obj
 0001:0002e130       c4_c_emlrt_marshallIn      000000018002f130 f   c4_test.obj
 0001:0002e200       c4_b_sf_marshallIn         000000018002f200 f   c4_test.obj
 0001:0002e2d0       c4_d_emlrt_marshallIn      000000018002f2d0 f   c4_test.obj
 0001:0002e3d0       c4_c_sf_marshallIn         000000018002f3d0 f   c4_test.obj
 0001:0002e510       c4_info_helper             000000018002f510 f   c4_test.obj
 0001:0002f7d0       c4_sum                     00000001800307d0 f   c4_test.obj
 0001:0002f8f0       c4_eml_scalar_eg           00000001800308f0 f   c4_test.obj
 0001:0002f900       c4_f_emlrt_marshallIn      0000000180030900 f   c4_test.obj
 0001:0002f960       c4_g_emlrt_marshallIn      0000000180030960 f   c4_test.obj
 0001:0002f9f0       init_dsm_address_info      00000001800309f0 f   c4_test.obj
 0001:00030b90       sf_get_sim_state_info_c4_test 0000000180031b90 f   c4_test.obj
 0001:00030c60       chart_debug_initialization 0000000180031c60 f   c4_test.obj
 0001:000323d0       sf_get_instance_specialization 00000001800333d0 f   c4_test.obj
 0001:000323e0       sf_opaque_initialize_c4_test 00000001800333e0 f   c4_test.obj
 0001:00032420       sf_opaque_enable_c4_test   0000000180033420 f   c4_test.obj
 0001:00032440       sf_opaque_disable_c4_test  0000000180033440 f   c4_test.obj
 0001:00032460       sf_opaque_gateway_c4_test  0000000180033460 f   c4_test.obj
 0001:00032750       sf_opaque_get_sim_state_c4_test 0000000180033750 f   c4_test.obj
 0001:00032770       sf_opaque_set_sim_state_c4_test 0000000180033770 f   c4_test.obj
 0001:000327a0       sf_opaque_terminate_c4_test 00000001800337a0 f   c4_test.obj
 0001:00032820       sf_opaque_init_subchart_simstructs 0000000180033820 f   c4_test.obj
 0001:00032840       mdlProcessParameters_c4_test 0000000180033840 f   c4_test.obj
 0001:00032900       mdlSetWorkWidths_c4_test   0000000180033900 f   c4_test.obj
 0001:00033060       mdlRTW_c4_test             0000000180034060 f   c4_test.obj
 0001:000330a0       mdlStart_c4_test           00000001800340a0 f   c4_test.obj
 0001:00033810       initialize_c5_test         0000000180034810 f   c5_test.obj
 0001:00033860       initialize_params_c5_test  0000000180034860 f   c5_test.obj
 0001:00033870       enable_c5_test             0000000180034870 f   c5_test.obj
 0001:000338b0       disable_c5_test            00000001800348b0 f   c5_test.obj
 0001:000338f0       c5_update_debugger_state_c5_test 00000001800348f0 f   c5_test.obj
 0001:00033900       get_sim_state_c5_test      0000000180034900 f   c5_test.obj
 0001:00033e20       set_sim_state_c5_test      0000000180034e20 f   c5_test.obj
 0001:00034150       finalize_c5_test           0000000180035150 f   c5_test.obj
 0001:00034160       sf_c5_test                 0000000180035160 f   c5_test.obj
 0001:00034650       c5_chartstep_c5_test       0000000180035650 f   c5_test.obj
 0001:00038ca0       initSimStructsc5_test      0000000180039ca0 f   c5_test.obj
 0001:00038cb0       init_script_number_translation 0000000180039cb0 f   c5_test.obj
 0001:00038cc0       c5_sf_marshallOut          0000000180039cc0 f   c5_test.obj
 0001:00038e10       c5_emlrt_marshallIn        0000000180039e10 f   c5_test.obj
 0001:00038e80       c5_b_emlrt_marshallIn      0000000180039e80 f   c5_test.obj
 0001:00038f70       c5_sf_marshallIn           0000000180039f70 f   c5_test.obj
 0001:00039070       c5_b_sf_marshallOut        000000018003a070 f   c5_test.obj
 0001:00039120       c5_c_emlrt_marshallIn      000000018003a120 f   c5_test.obj
 0001:00039180       c5_d_emlrt_marshallIn      000000018003a180 f   c5_test.obj
 0001:00039210       c5_b_sf_marshallIn         000000018003a210 f   c5_test.obj
 0001:000392b0       c5_c_sf_marshallOut        000000018003a2b0 f   c5_test.obj
 0001:00039360       c5_e_emlrt_marshallIn      000000018003a360 f   c5_test.obj
 0001:000393d0       c5_f_emlrt_marshallIn      000000018003a3d0 f   c5_test.obj
 0001:00039460       c5_c_sf_marshallIn         000000018003a460 f   c5_test.obj
 0001:00039500       c5_d_sf_marshallOut        000000018003a500 f   c5_test.obj
 0001:00039640       c5_g_emlrt_marshallIn      000000018003a640 f   c5_test.obj
 0001:000396b0       c5_h_emlrt_marshallIn      000000018003a6b0 f   c5_test.obj
 0001:000397a0       c5_d_sf_marshallIn         000000018003a7a0 f   c5_test.obj
 0001:00039890       c5_e_sf_marshallOut        000000018003a890 f   c5_test.obj
 0001:000399e0       c5_f_sf_marshallOut        000000018003a9e0 f   c5_test.obj
 0001:00039bc0       c5_i_emlrt_marshallIn      000000018003abc0 f   c5_test.obj
 0001:00039cc0       c5_e_sf_marshallIn         000000018003acc0 f   c5_test.obj
 0001:00039e00       c5_info_helper             000000018003ae00 f   c5_test.obj
 0001:0003b2f0       c5_atan2                   000000018003c2f0 f   c5_test.obj
 0001:0003b350       c5_eml_scalar_eg           000000018003c350 f   c5_test.obj
 0001:0003b360       c5_mpower                  000000018003c360 f   c5_test.obj
 0001:0003b3f0       c5_eml_error               000000018003c3f0 f   c5_test.obj
 0001:0003b5c0       c5_k_emlrt_marshallIn      000000018003c5c0 f   c5_test.obj
 0001:0003b620       c5_l_emlrt_marshallIn      000000018003c620 f   c5_test.obj
 0001:0003b6b0       c5_b_sqrt                  000000018003c6b0 f   c5_test.obj
 0001:0003b700       init_dsm_address_info      000000018003c700 f   c5_test.obj
 0001:0003c1f0       sf_get_sim_state_info_c5_test 000000018003d1f0 f   c5_test.obj
 0001:0003c2c0       chart_debug_initialization 000000018003d2c0 f   c5_test.obj
 0001:0003d510       sf_get_instance_specialization 000000018003e510 f   c5_test.obj
 0001:0003d520       sf_opaque_initialize_c5_test 000000018003e520 f   c5_test.obj
 0001:0003d560       sf_opaque_enable_c5_test   000000018003e560 f   c5_test.obj
 0001:0003d580       sf_opaque_disable_c5_test  000000018003e580 f   c5_test.obj
 0001:0003d5a0       sf_opaque_gateway_c5_test  000000018003e5a0 f   c5_test.obj
 0001:0003d890       sf_opaque_get_sim_state_c5_test 000000018003e890 f   c5_test.obj
 0001:0003d8b0       sf_opaque_set_sim_state_c5_test 000000018003e8b0 f   c5_test.obj
 0001:0003d8e0       sf_opaque_terminate_c5_test 000000018003e8e0 f   c5_test.obj
 0001:0003d960       sf_opaque_init_subchart_simstructs 000000018003e960 f   c5_test.obj
 0001:0003d980       mdlProcessParameters_c5_test 000000018003e980 f   c5_test.obj
 0001:0003da40       mdlSetWorkWidths_c5_test   000000018003ea40 f   c5_test.obj
 0001:0003dfb0       mdlRTW_c5_test             000000018003efb0 f   c5_test.obj
 0001:0003dff0       mdlStart_c5_test           000000018003eff0 f   c5_test.obj
 0001:0003f060       initialize_c6_test         0000000180040060 f   c6_test.obj
 0001:0003f0e0       initialize_params_c6_test  00000001800400e0 f   c6_test.obj
 0001:0003f0f0       enable_c6_test             00000001800400f0 f   c6_test.obj
 0001:0003f130       disable_c6_test            0000000180040130 f   c6_test.obj
 0001:0003f170       c6_update_debugger_state_c6_test 0000000180040170 f   c6_test.obj
 0001:0003f180       get_sim_state_c6_test      0000000180040180 f   c6_test.obj
 0001:0003f840       set_sim_state_c6_test      0000000180040840 f   c6_test.obj
 0001:0003faa0       finalize_c6_test           0000000180040aa0 f   c6_test.obj
 0001:0003fab0       sf_c6_test                 0000000180040ab0 f   c6_test.obj
 0001:000421c0       initSimStructsc6_test      00000001800431c0 f   c6_test.obj
 0001:000421d0       init_script_number_translation 00000001800431d0 f   c6_test.obj
 0001:000421e0       c6_sf_marshallOut          00000001800431e0 f   c6_test.obj
 0001:00042300       c6_emlrt_marshallIn        0000000180043300 f   c6_test.obj
 0001:00042370       c6_b_emlrt_marshallIn      0000000180043370 f   c6_test.obj
 0001:00042430       c6_sf_marshallIn           0000000180043430 f   c6_test.obj
 0001:000424d0       c6_b_sf_marshallOut        00000001800434d0 f   c6_test.obj
 0001:000425f0       c6_c_emlrt_marshallIn      00000001800435f0 f   c6_test.obj
 0001:00042660       c6_d_emlrt_marshallIn      0000000180043660 f   c6_test.obj
 0001:00042720       c6_b_sf_marshallIn         0000000180043720 f   c6_test.obj
 0001:000427c0       c6_c_sf_marshallOut        00000001800437c0 f   c6_test.obj
 0001:000428e0       c6_e_emlrt_marshallIn      00000001800438e0 f   c6_test.obj
 0001:00042950       c6_f_emlrt_marshallIn      0000000180043950 f   c6_test.obj
 0001:00042a10       c6_c_sf_marshallIn         0000000180043a10 f   c6_test.obj
 0001:00042ab0       c6_d_sf_marshallOut        0000000180043ab0 f   c6_test.obj
 0001:00042bd0       c6_g_emlrt_marshallIn      0000000180043bd0 f   c6_test.obj
 0001:00042c40       c6_h_emlrt_marshallIn      0000000180043c40 f   c6_test.obj
 0001:00042d00       c6_d_sf_marshallIn         0000000180043d00 f   c6_test.obj
 0001:00042da0       c6_e_sf_marshallOut        0000000180043da0 f   c6_test.obj
 0001:00042e50       c6_i_emlrt_marshallIn      0000000180043e50 f   c6_test.obj
 0001:00042ec0       c6_j_emlrt_marshallIn      0000000180043ec0 f   c6_test.obj
 0001:00042f50       c6_e_sf_marshallIn         0000000180043f50 f   c6_test.obj
 0001:00042ff0       c6_f_sf_marshallOut        0000000180043ff0 f   c6_test.obj
 0001:00043130       c6_k_emlrt_marshallIn      0000000180044130 f   c6_test.obj
 0001:000431a0       c6_l_emlrt_marshallIn      00000001800441a0 f   c6_test.obj
 0001:00043290       c6_f_sf_marshallIn         0000000180044290 f   c6_test.obj
 0001:00043380       c6_g_sf_marshallOut        0000000180044380 f   c6_test.obj
 0001:000434d0       c6_h_sf_marshallOut        00000001800444d0 f   c6_test.obj
 0001:00043580       c6_mpower                  0000000180044580 f   c6_test.obj
 0001:00043610       c6_eml_scalar_eg           0000000180044610 f   c6_test.obj
 0001:00043620       c6_eml_error               0000000180044620 f   c6_test.obj
 0001:000437f0       c6_n_emlrt_marshallIn      00000001800447f0 f   c6_test.obj
 0001:00043850       c6_o_emlrt_marshallIn      0000000180044850 f   c6_test.obj
 0001:000438e0       init_dsm_address_info      00000001800448e0 f   c6_test.obj
 0001:00044520       sf_get_sim_state_info_c6_test 0000000180045520 f   c6_test.obj
 0001:000445f0       chart_debug_initialization 00000001800455f0 f   c6_test.obj
 0001:00045b30       sf_get_instance_specialization 0000000180046b30 f   c6_test.obj
 0001:00045b40       sf_opaque_initialize_c6_test 0000000180046b40 f   c6_test.obj
 0001:00045b80       sf_opaque_enable_c6_test   0000000180046b80 f   c6_test.obj
 0001:00045ba0       sf_opaque_disable_c6_test  0000000180046ba0 f   c6_test.obj
 0001:00045bc0       sf_opaque_gateway_c6_test  0000000180046bc0 f   c6_test.obj
 0001:00045eb0       sf_opaque_get_sim_state_c6_test 0000000180046eb0 f   c6_test.obj
 0001:00045ed0       sf_opaque_set_sim_state_c6_test 0000000180046ed0 f   c6_test.obj
 0001:00045f00       sf_opaque_terminate_c6_test 0000000180046f00 f   c6_test.obj
 0001:00045f80       sf_opaque_init_subchart_simstructs 0000000180046f80 f   c6_test.obj
 0001:00045fa0       mdlProcessParameters_c6_test 0000000180046fa0 f   c6_test.obj
 0001:00046060       mdlSetWorkWidths_c6_test   0000000180047060 f   c6_test.obj
 0001:000466d0       mdlRTW_c6_test             00000001800476d0 f   c6_test.obj
 0001:00046710       mdlStart_c6_test           0000000180047710 f   c6_test.obj
 0001:000479f4       $LN107                     00000001800489f4     test_sfun_registry.obj
 0001:00048d24       $LN17                      0000000180049d24     test_sfun_registry.obj
 0001:000492ac       $LN26                      000000018004a2ac     test_sfun_registry.obj
 0001:00049994       $LN23                      000000018004a994     test_sfun_registry.obj
 0001:00049f70       $LN26                      000000018004af70     test_sfun_registry.obj
 0001:0004b670       sf_debug_api_wrapper       000000018004c670 f   test_sfun_registry.obj
 0001:0004b6c0       ProcessMexSfunctionCmdLineCall 000000018004c6c0 f   test_sfun_registry.obj
 0001:0004b9e0       mdlGetTimeOfNextVarHit     000000018004c9e0 f   test_sfun_registry.obj
 0001:0004ba30       _RegNumInputPortsCB        000000018004ca30 f   test_sfun_registry.obj
 0001:0004bab0       _RegNumOutputPortsCB       000000018004cab0 f   test_sfun_registry.obj
 0001:0004bb30       _CreateSimStruct           000000018004cb30 f   test_sfun_registry.obj
 0001:0004bcc0       _ssFatalError              000000018004ccc0 f   test_sfun_registry.obj
 0001:0004bd70       _ProcessMexSfunctionCmdLineCall 000000018004cd70 f   test_sfun_registry.obj
 0001:0004c4c0       sf_machine_load_sfunction_ptrs 000000018004d4c0 f   test_sfun_registry.obj
 0001:0004ce44       $LN31                      000000018004de44     test_sfun.obj
 0001:0004d234       $LN25                      000000018004e234     test_sfun.obj
 0001:0004d508       $LN17                      000000018004e508     test_sfun.obj
 0001:0004d814       $LN25                      000000018004e814     test_sfun.obj
 0001:0004da00       get_machine_and_chart_file_number 000000018004ea00 f   sfc_mex:sfc_sf.obj
 0001:0004daf0       get_sfun_block_specialization 000000018004eaf0 f   sfc_mex:sfc_sf.obj
 0001:0004dba0       call_sf_machine_global_method_dispatcher 000000018004eba0 f   sfc_mex:sfc_sf.obj
 0001:0004ddf0       mdl_zeroCrossings_processing 000000018004edf0 f   sfc_mex:sfc_sf.obj
 0001:0004ded0       mdl_derivatives_processing 000000018004eed0 f   sfc_mex:sfc_sf.obj
 0001:0004e1b0       mdl_outputs_continuous_legacy 000000018004f1b0 f   sfc_mex:sfc_sf.obj
 0001:0004e230       mdl_outputs_processing     000000018004f230 f   sfc_mex:sfc_sf.obj
 0001:0004e4a0       mdl_enable_processing      000000018004f4a0 f   sfc_mex:sfc_sf.obj
 0001:0004e580       mdl_disable_processing     000000018004f580 f   sfc_mex:sfc_sf.obj
 0001:0004f410       sf_call_output_fcn_enable_disable 0000000180050410 f   sfc_mex:sfc_sf.obj
 0001:0004f690       set_dwork_information_from_mx_array 0000000180050690 f   sfc_mex:sfc_sf.obj
 0001:0004ff80       ptr2mxStruct               0000000180050f80 f   sfc_mex:sfc_sf.obj
 0001:00050290       getThreadLocalStorage      0000000180051290 f   sfc_mex:sfc_mex.obj
 0001:000502d0       releaseThreadLocalStorage  00000001800512d0 f   sfc_mex:sfc_mex.obj
 0001:000502e0       SNPRINTF_WRAPPER           00000001800512e0 f   sfc_mex:sfc_mex.obj
 0001:00050300       convert_dims_to_string     0000000180051300 f   sfc_mex:sfc_mex.obj
 0001:00050498       $LN28                      0000000180051498     sfc_mex:sfc_mex.obj
 0001:000504a4       $LN27                      00000001800514a4     sfc_mex:sfc_mex.obj
 0001:000504c8       $LN26                      00000001800514c8     sfc_mex:sfc_mex.obj
 0001:000504d4       $LN25                      00000001800514d4     sfc_mex:sfc_mex.obj
 0001:00050520       is_real_T_equal_to_double  0000000180051520 f   sfc_mex:sfc_mex.obj
 0001:00050540       is_real32_T_equal_to_double 0000000180051540 f   sfc_mex:sfc_mex.obj
 0001:00050550       is_mxLogical_equal_to_double 0000000180051550 f   sfc_mex:sfc_mex.obj
 0001:00050570       is_int8_T_equal_to_double  0000000180051570 f   sfc_mex:sfc_mex.obj
 0001:00050590       is_uint8_T_equal_to_double 0000000180051590 f   sfc_mex:sfc_mex.obj
 0001:000505b0       is_int16_T_equal_to_double 00000001800515b0 f   sfc_mex:sfc_mex.obj
 0001:000505d0       is_uint16_T_equal_to_double 00000001800515d0 f   sfc_mex:sfc_mex.obj
 0001:000505f0       is_int32_T_equal_to_double 00000001800515f0 f   sfc_mex:sfc_mex.obj
 0001:00050610       is_uint32_T_equal_to_double 0000000180051610 f   sfc_mex:sfc_mex.obj
 0001:00050630       is_char_T_equal_to_double  0000000180051630 f   sfc_mex:sfc_mex.obj
 0001:00050650       sf_zero_numeric_value      0000000180051650 f   sfc_mex:sfc_mex.obj
 0001:00050680       sf_error_append_debugger_context_if_available 0000000180051680 f   sfc_mex:sfc_mex.obj
 0001:00050760       sf_mex_get_error_message_for_write 0000000180051760 f   sfc_mex:sfc_mex.obj
 0001:00050790       replace_single_quotes_by_doubled_quotes 0000000180051790 f   sfc_mex:sfc_mex.obj
 0001:000509d0       sf_mex_get_formatted_error_string 00000001800519d0 f   sfc_mex:sfc_mex.obj
 0001:00050f40       sf_mex_destroy_array       0000000180051f40 f   sfc_mex:sfc_mex.obj
 0001:0005113c       $LN20                      000000018005213c     sfc_mex:sfc_mex.obj
 0001:000512d0       sfrtAddSize                00000001800522d0 f   sfc_mex:sfc_mex.obj
 0001:00051390       sfrtGenSizeString          0000000180052390 f   sfc_mex:sfc_mex.obj
 0001:00051470       sfIsProperVector           0000000180052470 f   sfc_mex:sfc_mex.obj
 0001:000514a0       sfIsRowVector              00000001800524a0 f   sfc_mex:sfc_mex.obj
 0001:000515e0       sf_ExtractMessageId        00000001800525e0 f   sfc_mex:sfc_mex.obj
 0001:000518d0       sf_mex_err                 00000001800528d0 f   sfc_mex:sfc_mex.obj
 0001:00051980       sf_error_dimension_out_of_bound 0000000180052980 f   sfc_mex:sfc_mex.obj
 0001:00051a40       sf_mex_check_and_set_actual_dimensions 0000000180052a40 f   sfc_mex:sfc_mex.obj
 0001:00051c20       sf_mex_check_complex       0000000180052c20 f   sfc_mex:sfc_mex.obj
 0001:00051cb0       sf_mex_check_sparse        0000000180052cb0 f   sfc_mex:sfc_mex.obj
 0001:00051d10       sf_mex_check_numerictype   0000000180052d10 f   sfc_mex:sfc_mex.obj
 0001:00051ea0       sf_mex_check_fimath        0000000180052ea0 f   sfc_mex:sfc_mex.obj
 0001:00052a00       size_mismatch_error        0000000180053a00 f   sfc_mex:sfc_mex.obj
 0001:00053470       check_array_dimensions     0000000180054470 f   sfc_mex:sfc_mex.obj
 0001:000534e0       check_input_mxarray        00000001800544e0 f   sfc_mex:sfc_mex.obj
 0001:00053c20       sf_numeric_value_to_double 0000000180054c20 f   sfc_mex:sfc_mex.obj
 0001:00053c70       ml_generic_out_of_bounds_check 0000000180054c70 f   sfc_mex:sfc_mex.obj
 0001:00053e30       ml_get_element_value_from_array 0000000180054e30 f   sfc_mex:sfc_mex.obj
 0001:00054040       $LN36                      0000000180055040     sfc_mex:sfc_mex.obj
 0001:00054198       $LN26                      0000000180055198     sfc_mex:sfc_mex.obj
 0001:000541d0       _ml_generic_castability_check 00000001800551d0 f   sfc_mex:sfc_mex.obj
 0001:000548f0       $LN475                     00000001800558f0     sfc_mex:sfc_mex.obj
 0001:00054920       ml_generic_castability_check 0000000180055920 f   sfc_mex:sfc_mex.obj
 0001:000549c0       ml_check_mx_array_for_single_castability 00000001800559c0 f   sfc_mex:sfc_mex.obj
 0001:00054a60       ml_check_mx_array_for_logical_castability 0000000180055a60 f   sfc_mex:sfc_mex.obj
 0001:00054b00       ml_check_mx_array_for_int8_castability 0000000180055b00 f   sfc_mex:sfc_mex.obj
 0001:00054bb0       ml_check_mx_array_for_uint8_castability 0000000180055bb0 f   sfc_mex:sfc_mex.obj
 0001:00054c10       ml_check_mx_array_for_int16_castability 0000000180055c10 f   sfc_mex:sfc_mex.obj
 0001:00054c70       ml_check_mx_array_for_uint16_castability 0000000180055c70 f   sfc_mex:sfc_mex.obj
 0001:00054cd0       ml_check_mx_array_for_int32_castability 0000000180055cd0 f   sfc_mex:sfc_mex.obj
 0001:00054d30       ml_check_mx_array_for_uint32_castability 0000000180055d30 f   sfc_mex:sfc_mex.obj
 0001:00054d90       ml_check_mx_array_for_castability 0000000180055d90 f   sfc_mex:sfc_mex.obj
 0001:000550f8       $LN79                      00000001800560f8     sfc_mex:sfc_mex.obj
 0001:00055510       $LN84                      0000000180056510     sfc_mex:sfc_mex.obj
 0001:000555b0       set_data_value             00000001800565b0 f   sfc_mex:sfc_mex.obj
 0001:000558b8       $LN140                     00000001800568b8     sfc_mex:sfc_mex.obj
 0001:000558e8       $LN139                     00000001800568e8     sfc_mex:sfc_mex.obj
 0001:00055920       get_data_value             0000000180056920 f   sfc_mex:sfc_mex.obj
 0001:000559f0       $LN20                      00000001800569f0     sfc_mex:sfc_mex.obj
 0001:00055a30       get_next_element_address   0000000180056a30 f   sfc_mex:sfc_mex.obj
 0001:00055ac0       $LN20                      0000000180056ac0     sfc_mex:sfc_mex.obj
 0001:00055b00       sf_normalize_index         0000000180056b00 f   sfc_mex:sfc_mex.obj
 0001:00055e64       $LN24                      0000000180056e64     sfc_mex:sfc_mex.obj
 0001:00055eb0       ml_array_index_bound_check 0000000180056eb0 f   sfc_mex:sfc_mex.obj
 0001:00056a30       mx_value                   0000000180057a30 f   sfc_mex:sfc_mex.obj
 0001:00056a80       sf_create_numeric_array    0000000180057a80 f   sfc_mex:sfc_mex.obj
 0001:00056b20       sf_mex_assign_to_mx_array  0000000180057b20 f   sfc_mex:sfc_mex.obj
 0001:00056e90       assign_from_mx_array       0000000180057e90 f   sfc_mex:sfc_mex.obj
 0001:000575f0       sf_mex_import_v            00000001800585f0 f   sfc_mex:sfc_mex.obj
 0001:00057bd0       SNPRINTF_WRAPPER           0000000180058bd0 f   sfc_debug:sfcdebug.obj
 0001:00057c00       sf_debug_chart_instance_initialized 0000000180058c00 f   sfc_debug:sfcdebug.obj
 0001:00057da0       sfrtAddSize                0000000180058da0 f   sfc_debug:sfcdebug.obj
 0001:00057e60       sfrtGenSizeString          0000000180058e60 f   sfc_debug:sfcdebug.obj
 0001:000585b0       fill_single_message_info   00000001800595b0 f   sfc_debug:sfcdebug.obj
 0001:00058830       sf_debug_sim_status_listener 0000000180059830 f   sfc_debug:sfcdebug.obj
 0001:00058dc0       sf_debug_form_mask_bits    0000000180059dc0 f   sfc_debug:sfcdebug.obj
 0001:00058de0       sf_debug_form_sf_data_type_offsets 0000000180059de0 f   sfc_debug:sfcdebug.obj
 0001:00058ea0       sf_debug_free_all          0000000180059ea0 f   sfc_debug:sfcdebug.obj
 0001:00059030       sf_debug_append_debugger_context 000000018005a030 f   sfc_debug:sfcdebug.obj
 0001:000593a0       local_strdup               000000018005a3a0 f   sfc_debug:sfcdebug.obj
 0001:0005a320       sf_debug_em_terminate      000000018005b320 f   sfc_debug:sfcdebug.obj
 0001:0005a360       sf_debug_push_eml_function 000000018005b360 f   sfc_debug:sfcdebug.obj
 0001:0005a400       sf_debug_pop_eml_function  000000018005b400 f   sfc_debug:sfcdebug.obj
 0001:0005b0a0       sf_debug_get_machine_number_from_id_or_name 000000018005c0a0 f   sfc_debug:sfcdebug.obj
 0001:0005b1f0       sf_debug_get_chart_number_from_id 000000018005c1f0 f   sfc_debug:sfcdebug.obj
 0001:0005bfd0       sf_debug_transfer_control_to_debugger_GUI 000000018005cfd0 f   sfc_debug:sfcdebug.obj
 0001:0005cf40       sf_debug_scripts_rehash    000000018005df40 f   sfc_debug:sfcdebug.obj
 0001:0005d150       sf_debug_get_script_line_count 000000018005e150 f   sfc_debug:sfcdebug.obj
 0001:0005dba0       cv_eml_state_cvId          000000018005eba0 f   sfc_debug:sfcdebug.obj
 0001:0005dc10       cv_eml_trans_cvId          000000018005ec10 f   sfc_debug:sfcdebug.obj
 0001:0005f090       sf_debug_data_array_bounds_error 0000000180060090 f   sfc_debug:sfcdebug.obj
 0001:0005f440       eml_debug_runtime_error_doclink 0000000180060440 f   sfc_debug:sfcdebug.obj
 0001:0005f5b0       sf_debug_runtime_error     00000001800605b0 f   sfc_debug:sfcdebug.obj
 0001:0005f620       sf_debug_matlab_error      0000000180060620 f   sfc_debug:sfcdebug.obj
 0001:0005ff90       sf_debug_data_value_error  0000000180060f90 f   sfc_debug:sfcdebug.obj
 0001:00060860       sf_debug_data_loss_error   0000000180061860 f   sfc_debug:sfcdebug.obj
 0001:00061780       call_cv_range_check        0000000180062780 f   sfc_debug:sfcdebug.obj
 0001:00061f64       $LN37                      0000000180062f64     sfc_debug:sfcdebug.obj
 0001:00061fa0       $LN36                      0000000180062fa0     sfc_debug:sfcdebug.obj
 0001:00061fe0       sf_debug_invoke_cycle_detection_code 0000000180062fe0 f   sfc_debug:sfcdebug.obj
 0001:00062a70       $LN140                     0000000180063a70     sfc_debug:sfcdebug.obj
 0001:00062aa8       $LN139                     0000000180063aa8     sfc_debug:sfcdebug.obj
 0001:00062af4       $LN138                     0000000180063af4     sfc_debug:sfcdebug.obj
 0001:00062b34       $LN137                     0000000180063b34     sfc_debug:sfcdebug.obj
 0001:00062b50       sf_reset_debug_info_struct 0000000180063b50 f   sfc_debug:sfcdebug.obj
 0001:00063340       cv_script_cvId             0000000180064340 f   sfc_debug:sfcdebug.obj
 0001:00064500       sfc_api_chart_visible      0000000180065500 f   sfc_debug:sfc_api.obj
 0001:00064590       sfc_api_active_instance    0000000180065590 f   sfc_debug:sfc_api.obj
 0001:00064620       sfc_api_machine_load       0000000180065620 f   sfc_debug:sfc_api.obj
 0001:00064710       sfc_api_debugger_alive     0000000180065710 f   sfc_debug:sfc_api.obj
 0001:00064720       sfc_api_go                 0000000180065720 f   sfc_debug:sfc_api.obj
 0001:00064730       sfc_api_step_over          0000000180065730 f   sfc_debug:sfc_api.obj
 0001:00064740       sfc_api_step_out           0000000180065740 f   sfc_debug:sfc_api.obj
 0001:00064750       sfc_api_resume             0000000180065750 f   sfc_debug:sfc_api.obj
 0001:00064760       sfc_api_break              0000000180065760 f   sfc_debug:sfc_api.obj
 0001:00064770       sfc_api_stop_debugging     0000000180065770 f   sfc_debug:sfc_api.obj
 0001:000647d0       sfc_api_is_cycle_detected  00000001800657d0 f   sfc_debug:sfc_api.obj
 0001:00064830       sfc_api_is_array_bounds_detected 0000000180065830 f   sfc_debug:sfc_api.obj
 0001:00064890       sfc_api_set_disable_all_breakpoints 0000000180065890 f   sfc_debug:sfc_api.obj
 0001:00064910       sfc_api_disable_all_breakpoints_and_go 0000000180065910 f   sfc_debug:sfc_api.obj
 0001:00064920       sfc_api_close              0000000180065920 f   sfc_debug:sfc_api.obj
 0001:00064930       sfc_api_browse_data        0000000180065930 f   sfc_debug:sfc_api.obj
 0001:000649b0       sfc_api_watch_data         00000001800659b0 f   sfc_debug:sfc_api.obj
 0001:00064ac0       sfc_api_extract_message_post_receive_info 0000000180065ac0 f   sfc_debug:sfc_api.obj
 0001:00064ae0       sfc_api_assign_data        0000000180065ae0 f   sfc_debug:sfc_api.obj
 0001:00064b90       sfc_api_whos               0000000180065b90 f   sfc_debug:sfc_api.obj
 0001:00064c20       sfc_api_get_consistency_info 0000000180065c20 f   sfc_debug:sfc_api.obj
 0001:00064c30       sfc_api_browse_trace       0000000180065c30 f   sfc_debug:sfc_api.obj
 0001:00064c40       sfc_api_break_on_chart_entry 0000000180065c40 f   sfc_debug:sfc_api.obj
 0001:00064c70       sfc_api_break_on_event_broadcast 0000000180065c70 f   sfc_debug:sfc_api.obj
 0001:00064ca0       sfc_api_break_on_state_entry 0000000180065ca0 f   sfc_debug:sfc_api.obj
 0001:00064cd0       sfc_api_set_watch          0000000180065cd0 f   sfc_debug:sfc_api.obj
 0001:00064d80       sfc_api_set_breakpoints    0000000180065d80 f   sfc_debug:sfc_api.obj
 0001:00064e40       sfc_api_set_eml_breakpoints 0000000180065e40 f   sfc_debug:sfc_api.obj
 0001:00064ee0       sfc_api_set_script_breakpoints 0000000180065ee0 f   sfc_debug:sfc_api.obj
 0001:00064f40       sfc_api_add_script_breakpoints 0000000180065f40 f   sfc_debug:sfc_api.obj
 0001:00064fa0       sfc_api_clear_script_breakpoints 0000000180065fa0 f   sfc_debug:sfc_api.obj
 0001:00065000       sfc_api_query_script_breakpoints 0000000180066000 f   sfc_debug:sfc_api.obj
 0001:00065070       sfc_api_get_script_id      0000000180066070 f   sfc_debug:sfc_api.obj
 0001:00065130       sfc_api_get_active_states  0000000180066130 f   sfc_debug:sfc_api.obj
 0001:000651c0       sfc_api_break_between_times 00000001800661c0 f   sfc_debug:sfc_api.obj
 0001:00065230       sfc_api_get_instance_handle 0000000180066230 f   sfc_debug:sfc_api.obj
 0001:00065300       sfc_api_set_animation      0000000180066300 f   sfc_debug:sfc_api.obj
 0001:00065350       sfc_api_select_chart       0000000180066350 f   sfc_debug:sfc_api.obj
 0001:000653c0       sfc_api_select_charts      00000001800663c0 f   sfc_debug:sfc_api.obj
 0001:000653f0       sfc_api_cycle_detection_check 00000001800663f0 f   sfc_debug:sfc_api.obj
 0001:00065440       sfc_api_data_range_check   0000000180066440 f   sfc_debug:sfc_api.obj
 0001:00065490       sfc_api_transition_conflict_check 0000000180066490 f   sfc_debug:sfc_api.obj
 0001:000654e0       sfc_api_state_consistency_check 00000001800664e0 f   sfc_debug:sfc_api.obj
 0001:00065530       sfc_api_set_instance_cv_ids 0000000180066530 f   sfc_debug:sfc_api.obj
 0001:00065660       sfc_api_set_script_cv_ids  0000000180066660 f   sfc_debug:sfc_api.obj
 0001:00065730       sfc_api_get_current_machine_id 0000000180066730 f   sfc_debug:sfc_api.obj
 0001:00065760       sfc_api_get_current_machine_number 0000000180066760 f   sfc_debug:sfc_api.obj
 0001:00065790       sfc_api_get_current_chart_number 0000000180066790 f   sfc_debug:sfc_api.obj
 0001:000657c0       sfc_api_get_current_instance_number 00000001800667c0 f   sfc_debug:sfc_api.obj
 0001:000657f0       sfc_api_get_current_instance_handle 00000001800667f0 f   sfc_debug:sfc_api.obj
 0001:00065810       sfc_api_get_current_is_minor_time_step 0000000180066810 f   sfc_debug:sfc_api.obj
 0001:00065840       sfc_api_get_current_machine_name 0000000180066840 f   sfc_debug:sfc_api.obj
 0001:00065860       sfc_api_get_current_chart_id 0000000180066860 f   sfc_debug:sfc_api.obj
 0001:00065890       sfc_api_get_current_object_type 0000000180066890 f   sfc_debug:sfc_api.obj
 0001:000658c0       sfc_api_get_current_event_type 00000001800668c0 f   sfc_debug:sfc_api.obj
 0001:000658f0       sfc_api_get_current_object_id 00000001800668f0 f   sfc_debug:sfc_api.obj
 0001:00065920       sfc_get_current_active_event_type 0000000180066920 f   sfc_debug:sfc_api.obj
 0001:00065950       sfc_api_get_current_active_event_id 0000000180066950 f   sfc_debug:sfc_api.obj
 0001:00065980       sfc_api_get_current_simulation_time 0000000180066980 f   sfc_debug:sfc_api.obj
 0001:000659a0       sfc_get_current_tag_type   00000001800669a0 f   sfc_debug:sfc_api.obj
 0001:000659d0       sfc_get_current_coverage_percentage 00000001800669d0 f   sfc_debug:sfc_api.obj
 0001:000659f0       sfc_get_current_statement_context 00000001800669f0 f   sfc_debug:sfc_api.obj
 0001:00065a10       sfc_get_current_optional_integer 0000000180066a10 f   sfc_debug:sfc_api.obj
 0001:00065a40       sfc_get_current_statement_info 0000000180066a40 f   sfc_debug:sfc_api.obj
 0001:00065ae0       sfc_api_get                0000000180066ae0 f   sfc_debug:sfc_api.obj
 0001:00066740       sf_debug_sm_fill_state_activity_data 0000000180067740 f   sfc_debug:sfdb_animation.obj
 0001:00067a6c       $LN19                      0000000180068a6c     sfc_debug:cv_sfinterface.obj
 0001:00067eec       $LN19                      0000000180068eec     sfc_debug:cv_sfinterface.obj
 0001:00068f80       void_ptr_stack_vector_free_total 0000000180069f80 f   sfc_debug:sfdb_data_browse.obj
 0001:00069000       sf_debug_st_terminate_machine 000000018006a000 f   sfc_debug:sfdb_data_browse.obj
 0001:00069040       sf_debug_st_terminate_instance 000000018006a040 f   sfc_debug:sfdb_data_browse.obj
 0001:000693f0       push_on_to_void_ptr_stack  000000018006a3f0 f   sfc_debug:sfdb_data_browse.obj
 0001:00069580       pop_from_void_ptr_stack    000000018006a580 f   sfc_debug:sfdb_data_browse.obj
 0001:000696b0       sf_debug_st_get_data_value 000000018006a6b0 f   sfc_debug:sfdb_data_browse.obj
 0001:00069878       $LN33                      000000018006a878     sfc_debug:sfdb_data_browse.obj
 0001:000698a8       $LN32                      000000018006a8a8     sfc_debug:sfdb_data_browse.obj
 0001:00069be0       mx_value                   000000018006abe0 f   sfc_debug:sfdb_data_browse.obj
 0001:00069c20       sf_debug_st_fill_data_struct 000000018006ac20 f   sfc_debug:sfdb_data_browse.obj
 0001:00069f60       data_type_format_strings   000000018006af60 f   sfc_debug:sfdb_data_browse.obj
 0001:00069fd4       $LN10                      000000018006afd4     sfc_debug:sfdb_data_browse.obj
 0001:0006a010       sf_debug_st_fill_data      000000018006b010 f   sfc_debug:sfdb_data_browse.obj
 0001:0006ad00       sf_debug_hm_get_simulink_handle 000000018006bd00 f   sfc_debug:sfdb_handle_management.obj
 0001:0006b774       $LN45                      000000018006c774     sfc_debug:sfdb_handle_management.obj
 0001:0006b7b0       sf_debug_hm_initialize_globals 000000018006c7b0 f   sfc_debug:sfdb_handle_management.obj
 0001:0006b8b0       sf_debug_hm_get_machine_debug_flag 000000018006c8b0 f   sfc_debug:sfdb_handle_management.obj
 0001:0006ba20       sf_debug_hm_get_machine_id 000000018006ca20 f   sfc_debug:sfdb_handle_management.obj
 0001:0006bb40       sf_debug_hm_get_chart_id   000000018006cb40 f   sfc_debug:sfdb_handle_management.obj
 0001:0006bce0       sf_debug_hm_register_executing_SFunction 000000018006cce0 f   sfc_debug:sfdb_handle_management.obj
 0001:0006c070       sf_debug_hm_form_object_boolean_properties 000000018006d070 f   sfc_debug:sfdb_handle_management.obj
 0001:0006c340       sf_debug_hm_form_object_properties 000000018006d340 f   sfc_debug:sfdb_handle_management.obj
 0001:0006c580       sf_debug_hm_terminate_charts 000000018006d580 f   sfc_debug:sfdb_handle_management.obj
 0001:0006cc60       sf_debug_hm_terminate_machines 000000018006dc60 f   sfc_debug:sfdb_handle_management.obj
 0001:0006e6d0       sf_debug_ss_copy_dimension 000000018006f6d0 f   sfc_debug:sfdb_symbol_scope.obj
 0001:0006e790       sf_debug_ss_get_number_elements 000000018006f790 f   sfc_debug:sfdb_symbol_scope.obj
 0001:0006e7b0       sf_debug_ss_fill_data_struct 000000018006f7b0 f   sfc_debug:sfdb_symbol_scope.obj
 0001:0006eb00       sf_debug_ss_reset_data_info 000000018006fb00 f   sfc_debug:sfdb_symbol_scope.obj
 0001:0006eb60       sf_debug_fill_data_info_by_symbol_scope_entry 000000018006fb60 f   sfc_debug:sfdb_symbol_scope.obj
 0001:0006ec20       sf_debug_fill_data_info_by_data_vector 000000018006fc20 f   sfc_debug:sfdb_symbol_scope.obj
 0001:0006ee70       get_data_info_helper       000000018006fe70 f   sfc_debug:sfdb_symbol_scope.obj
 0001:0006f160       sf_debug_ss_get_data_info  0000000180070160 f   sfc_debug:sfdb_symbol_scope.obj
 0001:0006f380       sf_debug_select_mex_function 0000000180070380 f   sfc_debug:sfdb_symbol_scope.obj
 0001:0006f3b0       sf_debug_is_dyn_matrix_initialized 00000001800703b0 f   sfc_debug:sfdb_symbol_scope.obj
 0001:0006f3d0       sf_debug_ss_set_data_value_try 00000001800703d0 f   sfc_debug:sfdb_symbol_scope.obj
 0001:0006f5c0       sf_debug_ss_get_data_value 00000001800705c0 f   sfc_debug:sfdb_symbol_scope.obj
 0001:0006fd20       sf_debug_ss_data_bytes_string 0000000180070d20 f   sfc_debug:sfdb_symbol_scope.obj
 0001:0006fdb0       sf_debug_ss_data_class_string 0000000180070db0 f   sfc_debug:sfdb_symbol_scope.obj
 0001:000700fc       $LN27                      00000001800710fc     sfc_debug:sfdb_symbol_scope.obj
 0001:00070130       sf_debug_ss_data_size_string 0000000180071130 f   sfc_debug:sfdb_symbol_scope.obj
 0001:00070210       sf_debug_ss_data_create_data_info_struct 0000000180071210 f   sfc_debug:sfdb_symbol_scope.obj
 0001:000704c0       sf_debug_ss_data_create_name_value_pair 00000001800714c0 f   sfc_debug:sfdb_symbol_scope.obj
 0001:00070560       sf_debug_ss_data_get_whos_info 0000000180071560 f   sfc_debug:sfdb_symbol_scope.obj
 0001:00070570       same_named_data_in_data_array 0000000180071570 f   sfc_debug:sfdb_symbol_scope.obj
 0001:00071d00       sf_debug_cc_terminate_chart 0000000180072d00 f   sfc_debug:sfdb_coverage.obj
 0001:00072010       sf_debug_cc_terminate_instance 0000000180073010 f   sfc_debug:sfdb_coverage.obj
 0001:00072be0       sf_debug_cc_mark_object_if_needed 0000000180073be0 f   sfc_debug:sfdb_coverage.obj
 0001:00073460       sf_debug_bm_initialize_eml 0000000180074460 f   sfc_debug:sfdb_breakpoints.obj
 0001:00074520       sf_debug_bm_map_debug_tag_to_breakpoint_tag 0000000180075520 f   sfc_debug:sfdb_breakpoints.obj
 0001:000745c0       $LN12                      00000001800755c0     sfc_debug:sfdb_breakpoints.obj
 0001:00074600       sf_debug_bm_is_a_eml_breakpoint_impl 0000000180075600 f   sfc_debug:sfdb_breakpoints.obj
 0001:00074d30       $LN61                      0000000180075d30     sfc_debug:sfdb_breakpoints.obj
 0001:00074d3c       $LN60                      0000000180075d3c     sfc_debug:sfdb_breakpoints.obj
 0001:00075f30       sf_debug_sc_push_on_error_stack 0000000180076f30 f   sfc_debug:sfdb_state_consistency.obj
 0001:00076050       sf_debug_sc_reset_error_stack 0000000180077050 f   sfc_debug:sfdb_state_consistency.obj
 0001:000761e0       sf_debug_sc_is_state_inconsistent 00000001800771e0 f   sfc_debug:sfdb_state_consistency.obj
 0001:000764d0       sf_debug_sc_fill_consistency_info 00000001800774d0 f   sfc_debug:sfdb_state_consistency.obj
 0001:00076a70       void_assertion_fcn         0000000180077a70 f   sfc_debug:sfdb_call_stack.obj
 0001:00076fc0       sf_debug_tm_fill_local_trace 0000000180077fc0 f   sfc_debug:sfdb_call_stack.obj
 0001:00077560       sf_debug_cd_terminate_instance 0000000180078560 f   sfc_debug:sfdb_cycle_detection.obj
 0001:000775c0       sf_debug_cd_free_checksum_stack 00000001800785c0 f   sfc_debug:sfdb_cycle_detection.obj
 0001:00077610       sf_debug_cd_reset_pack_strings 0000000180078610 f   sfc_debug:sfdb_cycle_detection.obj
 0001:00077cb0       md5file_clear              0000000180078cb0 f   sfc_debug:ckmd5.obj
 0001:00077ce0       Encode                     0000000180078ce0 f   sfc_debug:ckmd5.obj
 0001:00077d30       Decode                     0000000180078d30 f   sfc_debug:ckmd5.obj
 0001:00077dd0       MD5Transform               0000000180078dd0 f   sfc_debug:ckmd5.obj
 0001:00078630       md5file_addn               0000000180079630 f   sfc_debug:ckmd5.obj
 0001:00078700       md5file_hash               0000000180079700 f   sfc_debug:ckmd5.obj
 0001:00078bc0       $$000000                   0000000180079bc0     MSVCRT:chkstk.obj
 0001:00078c20       $$000000                   0000000180079c20     MSVCRT:amdsecgs.obj
 0001:00078f54       pre_c_init                 0000000180079f54 f   MSVCRT:crtdll.obj
 0001:0007924c       __DllMainCRTStartup        000000018007a24c f   MSVCRT:crtdll.obj
 0001:00079790       __DllMainCRTStartup$filt$0 000000018007a790 f   MSVCRT:crtdll.obj
 0001:000797b5       __DllMainCRTStartup$fin$1  000000018007a7b5 f   MSVCRT:crtdll.obj
 0001:000797d0       _IsNonwritableInCurrentImage$filt$0 000000018007a7d0 f   MSVCRT:pesect.obj
 0001:000797f0       _onexit$fin$0              000000018007a7f0 f   MSVCRT:atonexit.obj
 0002:000004b8       pcinit                     000000018007b4b8     MSVCRT:crtdll.obj
 0002:000004c0       pinit                      000000018007b4c0     MSVCRT:atonexit.obj
 0002:00003c60       sSfcAPIMethodTable         000000018007ec60     sfc_debug:sfc_api.obj
 0002:00003f40       sSfcAPIPropertyTable       000000018007ef40     sfc_debug:sfc_api.obj
 0002:000050d0       GS_ExceptionPointers       00000001800800d0     MSVCRT:gs_report.obj
 0002:000051a0       $unwind$sf_c1_test_get_eml_resolved_functions_info 00000001800801a0     c1_test.obj
 0002:000051b0       $unwind$sf_c1_test_get_check_sum 00000001800801b0     c1_test.obj
 0002:000051b8       $unwind$c1_test_method_dispatcher 00000001800801b8     c1_test.obj
 0002:000051c0       $unwind$get_sim_state_c1_test 00000001800801c0     c1_test.obj
 0002:000051d0       $unwind$set_sim_state_c1_test 00000001800801d0     c1_test.obj
 0002:000051e0       $unwind$sf_c1_test         00000001800801e0     c1_test.obj
 0002:000051e8       $unwind$c1_chartstep_c1_test 00000001800801e8     c1_test.obj
 0002:000051f8       $unwind$c1_sf_marshallOut  00000001800801f8     c1_test.obj
 0002:00005208       $unwind$c1_emlrt_marshallIn 0000000180080208     c1_test.obj
 0002:00005210       $unwind$c1_b_emlrt_marshallIn 0000000180080210     c1_test.obj
 0002:00005220       $unwind$c1_sf_marshallIn   0000000180080220     c1_test.obj
 0002:00005230       $unwind$c1_b_sf_marshallOut 0000000180080230     c1_test.obj
 0002:00005238       $unwind$c1_c_sf_marshallOut 0000000180080238     c1_test.obj
 0002:00005248       $unwind$c1_c_emlrt_marshallIn 0000000180080248     c1_test.obj
 0002:00005250       $unwind$c1_b_sf_marshallIn 0000000180080250     c1_test.obj
 0002:00005258       $unwind$c1_d_sf_marshallOut 0000000180080258     c1_test.obj
 0002:00005268       $unwind$c1_d_emlrt_marshallIn 0000000180080268     c1_test.obj
 0002:00005278       $unwind$c1_c_sf_marshallIn 0000000180080278     c1_test.obj
 0002:00005288       $unwind$c1_e_sf_marshallOut 0000000180080288     c1_test.obj
 0002:00005298       $unwind$c1_e_emlrt_marshallIn 0000000180080298     c1_test.obj
 0002:000052a8       $unwind$c1_d_sf_marshallIn 00000001800802a8     c1_test.obj
 0002:000052b8       $unwind$c1_check_forloop_overflow_error 00000001800802b8     c1_test.obj
 0002:000052c8       $unwind$c1_eml_warning     00000001800802c8     c1_test.obj
 0002:000052d8       $unwind$c1_g_emlrt_marshallIn 00000001800802d8     c1_test.obj
 0002:000052e0       $unwind$c1_h_emlrt_marshallIn 00000001800802e0     c1_test.obj
 0002:000052e8       $unwind$c1_b_eml_matlab_zgetrf 00000001800802e8     c1_test.obj
 0002:000052f0       $unwind$c1_b_eml_xger      00000001800802f0     c1_test.obj
 0002:000052f8       $unwind$c1_c_eml_xtrsm     00000001800802f8     c1_test.obj
 0002:00005300       $unwind$c1_d_eml_xtrsm     0000000180080300     c1_test.obj
 0002:00005308       $unwind$sf_c1_test_get_autoinheritance_info 0000000180080308     c1_test.obj
 0002:00005310       $unwind$sf_c1_test_third_party_uses_info 0000000180080310     c1_test.obj
 0002:00005318       $unwind$sf_get_sim_state_info_c1_test 0000000180080318     c1_test.obj
 0002:00005320       $unwind$chart_debug_initialization 0000000180080320     c1_test.obj
 0002:00005328       $unwind$sf_opaque_initialize_c1_test 0000000180080328     c1_test.obj
 0002:00005330       $unwind$sf_opaque_enable_c1_test 0000000180080330     c1_test.obj
 0002:00005338       $unwind$sf_opaque_disable_c1_test 0000000180080338     c1_test.obj
 0002:00005340       $unwind$sf_opaque_gateway_c1_test 0000000180080340     c1_test.obj
 0002:00005348       $unwind$sf_internal_get_sim_state_c1_test 0000000180080348     c1_test.obj
 0002:00005350       $unwind$sf_internal_set_sim_state_c1_test 0000000180080350     c1_test.obj
 0002:00005358       $unwind$sf_opaque_get_sim_state_c1_test 0000000180080358     c1_test.obj
 0002:00005360       $unwind$sf_opaque_set_sim_state_c1_test 0000000180080360     c1_test.obj
 0002:00005368       $unwind$sf_opaque_terminate_c1_test 0000000180080368     c1_test.obj
 0002:00005370       $unwind$sf_opaque_init_subchart_simstructs 0000000180080370     c1_test.obj
 0002:00005378       $unwind$mdlProcessParameters_c1_test 0000000180080378     c1_test.obj
 0002:00005380       $unwind$mdlSetWorkWidths_c1_test 0000000180080380     c1_test.obj
 0002:00005388       $unwind$mdlRTW_c1_test     0000000180080388     c1_test.obj
 0002:00005390       $unwind$mdlStart_c1_test   0000000180080390     c1_test.obj
 0002:00005398       $unwind$sf_c2_test_get_eml_resolved_functions_info 0000000180080398     c2_test.obj
 0002:000053a8       $unwind$sf_c2_test_get_check_sum 00000001800803a8     c2_test.obj
 0002:000053b0       $unwind$c2_test_method_dispatcher 00000001800803b0     c2_test.obj
 0002:000053b8       $unwind$get_sim_state_c2_test 00000001800803b8     c2_test.obj
 0002:000053c8       $unwind$set_sim_state_c2_test 00000001800803c8     c2_test.obj
 0002:000053d8       $unwind$sf_c2_test         00000001800803d8     c2_test.obj
 0002:000053e0       $unwind$c2_chartstep_c2_test 00000001800803e0     c2_test.obj
 0002:000053f0       $unwind$c2_m2c             00000001800803f0     c2_test.obj
 0002:00005400       $unwind$init_script_number_translation 0000000180080400     c2_test.obj
 0002:00005408       $unwind$c2_sf_marshallOut  0000000180080408     c2_test.obj
 0002:00005418       $unwind$c2_emlrt_marshallIn 0000000180080418     c2_test.obj
 0002:00005420       $unwind$c2_b_emlrt_marshallIn 0000000180080420     c2_test.obj
 0002:00005430       $unwind$c2_sf_marshallIn   0000000180080430     c2_test.obj
 0002:00005440       $unwind$c2_b_sf_marshallOut 0000000180080440     c2_test.obj
 0002:00005448       $unwind$c2_c_sf_marshallOut 0000000180080448     c2_test.obj
 0002:00005450       $unwind$c2_d_sf_marshallOut 0000000180080450     c2_test.obj
 0002:00005460       $unwind$c2_c_emlrt_marshallIn 0000000180080460     c2_test.obj
 0002:00005468       $unwind$c2_b_sf_marshallIn 0000000180080468     c2_test.obj
 0002:00005470       $unwind$c2_d_emlrt_marshallIn 0000000180080470     c2_test.obj
 0002:00005478       $unwind$c2_c_sf_marshallIn 0000000180080478     c2_test.obj
 0002:00005480       $unwind$c2_e_sf_marshallOut 0000000180080480     c2_test.obj
 0002:00005490       $unwind$c2_e_emlrt_marshallIn 0000000180080490     c2_test.obj
 0002:000054a0       $unwind$c2_d_sf_marshallIn 00000001800804a0     c2_test.obj
 0002:000054b0       $unwind$c2_f_sf_marshallOut 00000001800804b0     c2_test.obj
 0002:000054c0       $unwind$c2_f_emlrt_marshallIn 00000001800804c0     c2_test.obj
 0002:000054d0       $unwind$c2_e_sf_marshallIn 00000001800804d0     c2_test.obj
 0002:000054e0       $unwind$c2_g_emlrt_marshallIn 00000001800804e0     c2_test.obj
 0002:000054f0       $unwind$c2_f_sf_marshallIn 00000001800804f0     c2_test.obj
 0002:00005500       $unwind$c2_g_sf_marshallOut 0000000180080500     c2_test.obj
 0002:00005510       $unwind$c2_h_emlrt_marshallIn 0000000180080510     c2_test.obj
 0002:00005520       $unwind$c2_g_sf_marshallIn 0000000180080520     c2_test.obj
 0002:00005530       $unwind$c2_sum             0000000180080530     c2_test.obj
 0002:00005538       $unwind$c2_check_forloop_overflow_error 0000000180080538     c2_test.obj
 0002:00005548       $unwind$c2_eml_warning     0000000180080548     c2_test.obj
 0002:00005558       $unwind$c2_j_emlrt_marshallIn 0000000180080558     c2_test.obj
 0002:00005560       $unwind$c2_k_emlrt_marshallIn 0000000180080560     c2_test.obj
 0002:00005568       $unwind$c2_b_eml_matlab_zgetrf 0000000180080568     c2_test.obj
 0002:00005570       $unwind$c2_b_eml_xger      0000000180080570     c2_test.obj
 0002:00005578       $unwind$c2_c_eml_xtrsm     0000000180080578     c2_test.obj
 0002:00005580       $unwind$c2_d_eml_xtrsm     0000000180080580     c2_test.obj
 0002:00005588       $unwind$sf_c2_test_get_autoinheritance_info 0000000180080588     c2_test.obj
 0002:00005590       $unwind$sf_c2_test_third_party_uses_info 0000000180080590     c2_test.obj
 0002:00005598       $unwind$sf_get_sim_state_info_c2_test 0000000180080598     c2_test.obj
 0002:000055a0       $unwind$chart_debug_initialization 00000001800805a0     c2_test.obj
 0002:000055a8       $unwind$sf_opaque_initialize_c2_test 00000001800805a8     c2_test.obj
 0002:000055b0       $unwind$sf_opaque_enable_c2_test 00000001800805b0     c2_test.obj
 0002:000055b8       $unwind$sf_opaque_disable_c2_test 00000001800805b8     c2_test.obj
 0002:000055c0       $unwind$sf_opaque_gateway_c2_test 00000001800805c0     c2_test.obj
 0002:000055c8       $unwind$sf_internal_get_sim_state_c2_test 00000001800805c8     c2_test.obj
 0002:000055d0       $unwind$sf_internal_set_sim_state_c2_test 00000001800805d0     c2_test.obj
 0002:000055d8       $unwind$sf_opaque_get_sim_state_c2_test 00000001800805d8     c2_test.obj
 0002:000055e0       $unwind$sf_opaque_set_sim_state_c2_test 00000001800805e0     c2_test.obj
 0002:000055e8       $unwind$sf_opaque_terminate_c2_test 00000001800805e8     c2_test.obj
 0002:000055f0       $unwind$sf_opaque_init_subchart_simstructs 00000001800805f0     c2_test.obj
 0002:000055f8       $unwind$mdlProcessParameters_c2_test 00000001800805f8     c2_test.obj
 0002:00005600       $unwind$mdlSetWorkWidths_c2_test 0000000180080600     c2_test.obj
 0002:00005608       $unwind$mdlRTW_c2_test     0000000180080608     c2_test.obj
 0002:00005610       $unwind$mdlStart_c2_test   0000000180080610     c2_test.obj
 0002:00005618       $unwind$sf_c3_test_get_eml_resolved_functions_info 0000000180080618     c3_test.obj
 0002:00005628       $unwind$sf_c3_test_get_check_sum 0000000180080628     c3_test.obj
 0002:00005630       $unwind$c3_test_method_dispatcher 0000000180080630     c3_test.obj
 0002:00005638       $unwind$get_sim_state_c3_test 0000000180080638     c3_test.obj
 0002:00005648       $unwind$set_sim_state_c3_test 0000000180080648     c3_test.obj
 0002:00005658       $unwind$sf_c3_test         0000000180080658     c3_test.obj
 0002:00005660       $unwind$c3_chartstep_c3_test 0000000180080660     c3_test.obj
 0002:00005670       $unwind$c3_eulerang        0000000180080670     c3_test.obj
 0002:00005680       $unwind$init_script_number_translation 0000000180080680     c3_test.obj
 0002:00005688       $unwind$c3_sf_marshallOut  0000000180080688     c3_test.obj
 0002:00005698       $unwind$c3_emlrt_marshallIn 0000000180080698     c3_test.obj
 0002:000056a0       $unwind$c3_b_emlrt_marshallIn 00000001800806a0     c3_test.obj
 0002:000056b0       $unwind$c3_sf_marshallIn   00000001800806b0     c3_test.obj
 0002:000056c0       $unwind$c3_b_sf_marshallOut 00000001800806c0     c3_test.obj
 0002:000056c8       $unwind$c3_c_emlrt_marshallIn 00000001800806c8     c3_test.obj
 0002:000056d0       $unwind$c3_b_sf_marshallIn 00000001800806d0     c3_test.obj
 0002:000056d8       $unwind$c3_c_sf_marshallOut 00000001800806d8     c3_test.obj
 0002:000056e8       $unwind$c3_d_emlrt_marshallIn 00000001800806e8     c3_test.obj
 0002:000056f8       $unwind$c3_c_sf_marshallIn 00000001800806f8     c3_test.obj
 0002:00005708       $unwind$c3_d_sf_marshallOut 0000000180080708     c3_test.obj
 0002:00005718       $unwind$c3_e_emlrt_marshallIn 0000000180080718     c3_test.obj
 0002:00005728       $unwind$c3_d_sf_marshallIn 0000000180080728     c3_test.obj
 0002:00005738       $unwind$c3_g_emlrt_marshallIn 0000000180080738     c3_test.obj
 0002:00005740       $unwind$c3_h_emlrt_marshallIn 0000000180080740     c3_test.obj
 0002:00005748       $unwind$sf_c3_test_get_autoinheritance_info 0000000180080748     c3_test.obj
 0002:00005750       $unwind$sf_c3_test_third_party_uses_info 0000000180080750     c3_test.obj
 0002:00005758       $unwind$sf_get_sim_state_info_c3_test 0000000180080758     c3_test.obj
 0002:00005760       $unwind$chart_debug_initialization 0000000180080760     c3_test.obj
 0002:00005768       $unwind$sf_opaque_initialize_c3_test 0000000180080768     c3_test.obj
 0002:00005770       $unwind$sf_opaque_enable_c3_test 0000000180080770     c3_test.obj
 0002:00005778       $unwind$sf_opaque_disable_c3_test 0000000180080778     c3_test.obj
 0002:00005780       $unwind$sf_opaque_gateway_c3_test 0000000180080780     c3_test.obj
 0002:00005788       $unwind$sf_internal_get_sim_state_c3_test 0000000180080788     c3_test.obj
 0002:00005790       $unwind$sf_internal_set_sim_state_c3_test 0000000180080790     c3_test.obj
 0002:00005798       $unwind$sf_opaque_get_sim_state_c3_test 0000000180080798     c3_test.obj
 0002:000057a0       $unwind$sf_opaque_set_sim_state_c3_test 00000001800807a0     c3_test.obj
 0002:000057a8       $unwind$sf_opaque_terminate_c3_test 00000001800807a8     c3_test.obj
 0002:000057b0       $unwind$sf_opaque_init_subchart_simstructs 00000001800807b0     c3_test.obj
 0002:000057b8       $unwind$mdlProcessParameters_c3_test 00000001800807b8     c3_test.obj
 0002:000057c0       $unwind$mdlSetWorkWidths_c3_test 00000001800807c0     c3_test.obj
 0002:000057c8       $unwind$mdlRTW_c3_test     00000001800807c8     c3_test.obj
 0002:000057d0       $unwind$mdlStart_c3_test   00000001800807d0     c3_test.obj
 0002:000057d8       $unwind$sf_c4_test_get_eml_resolved_functions_info 00000001800807d8     c4_test.obj
 0002:000057e8       $unwind$sf_c4_test_get_check_sum 00000001800807e8     c4_test.obj
 0002:000057f0       $unwind$c4_test_method_dispatcher 00000001800807f0     c4_test.obj
 0002:000057f8       $unwind$get_sim_state_c4_test 00000001800807f8     c4_test.obj
 0002:00005800       $unwind$set_sim_state_c4_test 0000000180080800     c4_test.obj
 0002:00005808       $unwind$sf_c4_test         0000000180080808     c4_test.obj
 0002:00005810       $unwind$c4_chartstep_c4_test 0000000180080810     c4_test.obj
 0002:00005820       $unwind$c4_sf_marshallOut  0000000180080820     c4_test.obj
 0002:00005828       $unwind$c4_emlrt_marshallIn 0000000180080828     c4_test.obj
 0002:00005830       $unwind$c4_b_emlrt_marshallIn 0000000180080830     c4_test.obj
 0002:00005838       $unwind$c4_sf_marshallIn   0000000180080838     c4_test.obj
 0002:00005840       $unwind$c4_b_sf_marshallOut 0000000180080840     c4_test.obj
 0002:00005850       $unwind$c4_c_sf_marshallOut 0000000180080850     c4_test.obj
 0002:00005860       $unwind$c4_d_sf_marshallOut 0000000180080860     c4_test.obj
 0002:00005868       $unwind$c4_e_sf_marshallOut 0000000180080868     c4_test.obj
 0002:00005878       $unwind$c4_c_emlrt_marshallIn 0000000180080878     c4_test.obj
 0002:00005880       $unwind$c4_b_sf_marshallIn 0000000180080880     c4_test.obj
 0002:00005888       $unwind$c4_d_emlrt_marshallIn 0000000180080888     c4_test.obj
 0002:00005898       $unwind$c4_c_sf_marshallIn 0000000180080898     c4_test.obj
 0002:000058a8       $unwind$c4_sum             00000001800808a8     c4_test.obj
 0002:000058b0       $unwind$c4_f_emlrt_marshallIn 00000001800808b0     c4_test.obj
 0002:000058b8       $unwind$c4_g_emlrt_marshallIn 00000001800808b8     c4_test.obj
 0002:000058c0       $unwind$sf_c4_test_get_autoinheritance_info 00000001800808c0     c4_test.obj
 0002:000058c8       $unwind$sf_c4_test_third_party_uses_info 00000001800808c8     c4_test.obj
 0002:000058d0       $unwind$sf_get_sim_state_info_c4_test 00000001800808d0     c4_test.obj
 0002:000058d8       $unwind$chart_debug_initialization 00000001800808d8     c4_test.obj
 0002:000058e0       $unwind$sf_opaque_initialize_c4_test 00000001800808e0     c4_test.obj
 0002:000058e8       $unwind$sf_opaque_enable_c4_test 00000001800808e8     c4_test.obj
 0002:000058f0       $unwind$sf_opaque_disable_c4_test 00000001800808f0     c4_test.obj
 0002:000058f8       $unwind$sf_opaque_gateway_c4_test 00000001800808f8     c4_test.obj
 0002:00005900       $unwind$sf_internal_get_sim_state_c4_test 0000000180080900     c4_test.obj
 0002:00005908       $unwind$sf_internal_set_sim_state_c4_test 0000000180080908     c4_test.obj
 0002:00005910       $unwind$sf_opaque_get_sim_state_c4_test 0000000180080910     c4_test.obj
 0002:00005918       $unwind$sf_opaque_set_sim_state_c4_test 0000000180080918     c4_test.obj
 0002:00005920       $unwind$sf_opaque_terminate_c4_test 0000000180080920     c4_test.obj
 0002:00005928       $unwind$sf_opaque_init_subchart_simstructs 0000000180080928     c4_test.obj
 0002:00005930       $unwind$mdlProcessParameters_c4_test 0000000180080930     c4_test.obj
 0002:00005938       $unwind$mdlSetWorkWidths_c4_test 0000000180080938     c4_test.obj
 0002:00005940       $unwind$mdlRTW_c4_test     0000000180080940     c4_test.obj
 0002:00005948       $unwind$mdlStart_c4_test   0000000180080948     c4_test.obj
 0002:00005950       $unwind$sf_c5_test_get_eml_resolved_functions_info 0000000180080950     c5_test.obj
 0002:00005960       $unwind$sf_c5_test_get_check_sum 0000000180080960     c5_test.obj
 0002:00005968       $unwind$c5_test_method_dispatcher 0000000180080968     c5_test.obj
 0002:00005970       $unwind$get_sim_state_c5_test 0000000180080970     c5_test.obj
 0002:00005980       $unwind$set_sim_state_c5_test 0000000180080980     c5_test.obj
 0002:00005990       $unwind$sf_c5_test         0000000180080990     c5_test.obj
 0002:00005998       $unwind$c5_chartstep_c5_test 0000000180080998     c5_test.obj
 0002:000059a8       $unwind$c5_sf_marshallOut  00000001800809a8     c5_test.obj
 0002:000059b8       $unwind$c5_emlrt_marshallIn 00000001800809b8     c5_test.obj
 0002:000059c0       $unwind$c5_b_emlrt_marshallIn 00000001800809c0     c5_test.obj
 0002:000059d0       $unwind$c5_sf_marshallIn   00000001800809d0     c5_test.obj
 0002:000059e0       $unwind$c5_b_sf_marshallOut 00000001800809e0     c5_test.obj
 0002:000059e8       $unwind$c5_c_emlrt_marshallIn 00000001800809e8     c5_test.obj
 0002:000059f0       $unwind$c5_d_emlrt_marshallIn 00000001800809f0     c5_test.obj
 0002:000059f8       $unwind$c5_b_sf_marshallIn 00000001800809f8     c5_test.obj
 0002:00005a00       $unwind$c5_c_sf_marshallOut 0000000180080a00     c5_test.obj
 0002:00005a08       $unwind$c5_e_emlrt_marshallIn 0000000180080a08     c5_test.obj
 0002:00005a10       $unwind$c5_f_emlrt_marshallIn 0000000180080a10     c5_test.obj
 0002:00005a18       $unwind$c5_c_sf_marshallIn 0000000180080a18     c5_test.obj
 0002:00005a20       $unwind$c5_d_sf_marshallOut 0000000180080a20     c5_test.obj
 0002:00005a30       $unwind$c5_g_emlrt_marshallIn 0000000180080a30     c5_test.obj
 0002:00005a38       $unwind$c5_h_emlrt_marshallIn 0000000180080a38     c5_test.obj
 0002:00005a48       $unwind$c5_d_sf_marshallIn 0000000180080a48     c5_test.obj
 0002:00005a58       $unwind$c5_e_sf_marshallOut 0000000180080a58     c5_test.obj
 0002:00005a68       $unwind$c5_f_sf_marshallOut 0000000180080a68     c5_test.obj
 0002:00005a78       $unwind$c5_i_emlrt_marshallIn 0000000180080a78     c5_test.obj
 0002:00005a88       $unwind$c5_e_sf_marshallIn 0000000180080a88     c5_test.obj
 0002:00005a98       $unwind$c5_atan2           0000000180080a98     c5_test.obj
 0002:00005aa0       $unwind$c5_mpower          0000000180080aa0     c5_test.obj
 0002:00005aa8       $unwind$c5_eml_error       0000000180080aa8     c5_test.obj
 0002:00005ab8       $unwind$c5_k_emlrt_marshallIn 0000000180080ab8     c5_test.obj
 0002:00005ac0       $unwind$c5_l_emlrt_marshallIn 0000000180080ac0     c5_test.obj
 0002:00005ac8       $unwind$c5_b_sqrt          0000000180080ac8     c5_test.obj
 0002:00005ad0       $unwind$sf_c5_test_get_autoinheritance_info 0000000180080ad0     c5_test.obj
 0002:00005ad8       $unwind$sf_c5_test_third_party_uses_info 0000000180080ad8     c5_test.obj
 0002:00005ae0       $unwind$sf_get_sim_state_info_c5_test 0000000180080ae0     c5_test.obj
 0002:00005ae8       $unwind$chart_debug_initialization 0000000180080ae8     c5_test.obj
 0002:00005af0       $unwind$sf_opaque_initialize_c5_test 0000000180080af0     c5_test.obj
 0002:00005af8       $unwind$sf_opaque_enable_c5_test 0000000180080af8     c5_test.obj
 0002:00005b00       $unwind$sf_opaque_disable_c5_test 0000000180080b00     c5_test.obj
 0002:00005b08       $unwind$sf_opaque_gateway_c5_test 0000000180080b08     c5_test.obj
 0002:00005b10       $unwind$sf_internal_get_sim_state_c5_test 0000000180080b10     c5_test.obj
 0002:00005b18       $unwind$sf_internal_set_sim_state_c5_test 0000000180080b18     c5_test.obj
 0002:00005b20       $unwind$sf_opaque_get_sim_state_c5_test 0000000180080b20     c5_test.obj
 0002:00005b28       $unwind$sf_opaque_set_sim_state_c5_test 0000000180080b28     c5_test.obj
 0002:00005b30       $unwind$sf_opaque_terminate_c5_test 0000000180080b30     c5_test.obj
 0002:00005b38       $unwind$sf_opaque_init_subchart_simstructs 0000000180080b38     c5_test.obj
 0002:00005b40       $unwind$mdlProcessParameters_c5_test 0000000180080b40     c5_test.obj
 0002:00005b48       $unwind$mdlSetWorkWidths_c5_test 0000000180080b48     c5_test.obj
 0002:00005b50       $unwind$mdlRTW_c5_test     0000000180080b50     c5_test.obj
 0002:00005b58       $unwind$mdlStart_c5_test   0000000180080b58     c5_test.obj
 0002:00005b60       $unwind$sf_c6_test_get_eml_resolved_functions_info 0000000180080b60     c6_test.obj
 0002:00005b70       $unwind$sf_c6_test_get_check_sum 0000000180080b70     c6_test.obj
 0002:00005b78       $unwind$c6_test_method_dispatcher 0000000180080b78     c6_test.obj
 0002:00005b80       $unwind$get_sim_state_c6_test 0000000180080b80     c6_test.obj
 0002:00005b90       $unwind$set_sim_state_c6_test 0000000180080b90     c6_test.obj
 0002:00005ba0       $unwind$sf_c6_test         0000000180080ba0     c6_test.obj
 0002:00005bb0       $unwind$c6_sf_marshallOut  0000000180080bb0     c6_test.obj
 0002:00005bb8       $unwind$c6_emlrt_marshallIn 0000000180080bb8     c6_test.obj
 0002:00005bc0       $unwind$c6_b_emlrt_marshallIn 0000000180080bc0     c6_test.obj
 0002:00005bc8       $unwind$c6_sf_marshallIn   0000000180080bc8     c6_test.obj
 0002:00005bd0       $unwind$c6_b_sf_marshallOut 0000000180080bd0     c6_test.obj
 0002:00005bd8       $unwind$c6_c_emlrt_marshallIn 0000000180080bd8     c6_test.obj
 0002:00005be0       $unwind$c6_d_emlrt_marshallIn 0000000180080be0     c6_test.obj
 0002:00005be8       $unwind$c6_b_sf_marshallIn 0000000180080be8     c6_test.obj
 0002:00005bf0       $unwind$c6_c_sf_marshallOut 0000000180080bf0     c6_test.obj
 0002:00005bf8       $unwind$c6_e_emlrt_marshallIn 0000000180080bf8     c6_test.obj
 0002:00005c00       $unwind$c6_f_emlrt_marshallIn 0000000180080c00     c6_test.obj
 0002:00005c08       $unwind$c6_c_sf_marshallIn 0000000180080c08     c6_test.obj
 0002:00005c10       $unwind$c6_d_sf_marshallOut 0000000180080c10     c6_test.obj
 0002:00005c18       $unwind$c6_g_emlrt_marshallIn 0000000180080c18     c6_test.obj
 0002:00005c20       $unwind$c6_h_emlrt_marshallIn 0000000180080c20     c6_test.obj
 0002:00005c28       $unwind$c6_d_sf_marshallIn 0000000180080c28     c6_test.obj
 0002:00005c30       $unwind$c6_e_sf_marshallOut 0000000180080c30     c6_test.obj
 0002:00005c38       $unwind$c6_i_emlrt_marshallIn 0000000180080c38     c6_test.obj
 0002:00005c40       $unwind$c6_j_emlrt_marshallIn 0000000180080c40     c6_test.obj
 0002:00005c48       $unwind$c6_e_sf_marshallIn 0000000180080c48     c6_test.obj
 0002:00005c50       $unwind$c6_f_sf_marshallOut 0000000180080c50     c6_test.obj
 0002:00005c60       $unwind$c6_k_emlrt_marshallIn 0000000180080c60     c6_test.obj
 0002:00005c68       $unwind$c6_l_emlrt_marshallIn 0000000180080c68     c6_test.obj
 0002:00005c78       $unwind$c6_f_sf_marshallIn 0000000180080c78     c6_test.obj
 0002:00005c88       $unwind$c6_g_sf_marshallOut 0000000180080c88     c6_test.obj
 0002:00005c98       $unwind$c6_h_sf_marshallOut 0000000180080c98     c6_test.obj
 0002:00005ca0       $unwind$c6_mpower          0000000180080ca0     c6_test.obj
 0002:00005ca8       $unwind$c6_eml_error       0000000180080ca8     c6_test.obj
 0002:00005cb8       $unwind$c6_n_emlrt_marshallIn 0000000180080cb8     c6_test.obj
 0002:00005cc0       $unwind$c6_o_emlrt_marshallIn 0000000180080cc0     c6_test.obj
 0002:00005cc8       $unwind$sf_c6_test_get_autoinheritance_info 0000000180080cc8     c6_test.obj
 0002:00005cd0       $unwind$sf_c6_test_third_party_uses_info 0000000180080cd0     c6_test.obj
 0002:00005cd8       $unwind$sf_get_sim_state_info_c6_test 0000000180080cd8     c6_test.obj
 0002:00005ce0       $unwind$chart_debug_initialization 0000000180080ce0     c6_test.obj
 0002:00005ce8       $unwind$sf_opaque_initialize_c6_test 0000000180080ce8     c6_test.obj
 0002:00005cf0       $unwind$sf_opaque_enable_c6_test 0000000180080cf0     c6_test.obj
 0002:00005cf8       $unwind$sf_opaque_disable_c6_test 0000000180080cf8     c6_test.obj
 0002:00005d00       $unwind$sf_opaque_gateway_c6_test 0000000180080d00     c6_test.obj
 0002:00005d08       $unwind$sf_internal_get_sim_state_c6_test 0000000180080d08     c6_test.obj
 0002:00005d10       $unwind$sf_internal_set_sim_state_c6_test 0000000180080d10     c6_test.obj
 0002:00005d18       $unwind$sf_opaque_get_sim_state_c6_test 0000000180080d18     c6_test.obj
 0002:00005d20       $unwind$sf_opaque_set_sim_state_c6_test 0000000180080d20     c6_test.obj
 0002:00005d28       $unwind$sf_opaque_terminate_c6_test 0000000180080d28     c6_test.obj
 0002:00005d30       $unwind$sf_opaque_init_subchart_simstructs 0000000180080d30     c6_test.obj
 0002:00005d38       $unwind$mdlProcessParameters_c6_test 0000000180080d38     c6_test.obj
 0002:00005d40       $unwind$mdlSetWorkWidths_c6_test 0000000180080d40     c6_test.obj
 0002:00005d48       $unwind$mdlRTW_c6_test     0000000180080d48     c6_test.obj
 0002:00005d50       $unwind$mdlStart_c6_test   0000000180080d50     c6_test.obj
 0002:00005d58       $unwind$mexFunction        0000000180080d58     test_sfun_registry.obj
 0002:00005d60       $unwind$_ssSetInputPortDirectFeedThroughFcn 0000000180080d60     test_sfun_registry.obj
 0002:00005d68       $unwind$_ssGetInputPortSignalPtrsFcn 0000000180080d68     test_sfun_registry.obj
 0002:00005d70       $unwind$_ssGetInputPortSignalFcn 0000000180080d70     test_sfun_registry.obj
 0002:00005d78       $unwind$_ssSetInputPortReusableFcn 0000000180080d78     test_sfun_registry.obj
 0002:00005d88       $unwind$_ssSetOutputPortReusableFcn 0000000180080d88     test_sfun_registry.obj
 0002:00005d98       $unwind$ssGetIsZeroCrossControlDisabled 0000000180080d98     test_sfun_registry.obj
 0002:00005da0       $unwind$ssSetIsInputPortUsedForContZcSignal 0000000180080da0     test_sfun_registry.obj
 0002:00005da8       $unwind$ssSetZcSignalIsZcElementDisc 0000000180080da8     test_sfun_registry.obj
 0002:00005db8       $unwind$ssSetZcSignalName  0000000180080db8     test_sfun_registry.obj
 0002:00005dc0       $unwind$ssSetZcSignalWidth 0000000180080dc0     test_sfun_registry.obj
 0002:00005dc8       $unwind$ssSetZcSignalZcEventType 0000000180080dc8     test_sfun_registry.obj
 0002:00005dd0       $unwind$ssSetZcSignalType  0000000180080dd0     test_sfun_registry.obj
 0002:00005dd8       $unwind$ssSetZcSignalZcTol 0000000180080dd8     test_sfun_registry.obj
 0002:00005de0       $unwind$ssSetZcSignalNeedsEventNotification 0000000180080de0     test_sfun_registry.obj
 0002:00005de8       $unwind$ssCreateAndAddZcSignalInfo 0000000180080de8     test_sfun_registry.obj
 0002:00005df0       $unwind$ssCloneAndAddZcSignalInfo 0000000180080df0     test_sfun_registry.obj
 0002:00005df8       $unwind$ssGetNumZcSignals  0000000180080df8     test_sfun_registry.obj
 0002:00005e00       $unwind$ssGetZcSignalVector 0000000180080e00     test_sfun_registry.obj
 0002:00005e08       $unwind$ssGetZcSignalName  0000000180080e08     test_sfun_registry.obj
 0002:00005e10       $unwind$ssGetZcSignalWidth 0000000180080e10     test_sfun_registry.obj
 0002:00005e18       $unwind$ssGetZcSignalZcEventType 0000000180080e18     test_sfun_registry.obj
 0002:00005e20       $unwind$ssGetZcSignalZcEvents 0000000180080e20     test_sfun_registry.obj
 0002:00005e28       $unwind$ssGetZcSignalType  0000000180080e28     test_sfun_registry.obj
 0002:00005e30       $unwind$ssGetZcSignalZcTol 0000000180080e30     test_sfun_registry.obj
 0002:00005e38       $unwind$ssGetZcSignalNeedsEventNotification 0000000180080e38     test_sfun_registry.obj
 0002:00005e40       $unwind$ssGetZcSignalIsZcElementDisc 0000000180080e40     test_sfun_registry.obj
 0002:00005e50       $unwind$ssGetIsInputPortElementContinuous 0000000180080e50     test_sfun_registry.obj
 0002:00005e60       $unwind$ssGetDTypeIdFromMxArray 0000000180080e60     test_sfun_registry.obj
 0002:00005e68       $unwind$ssWriteRTWStr      0000000180080e68     test_sfun_registry.obj
 0002:00005e70       $unwind$ssWriteRTWNameValuePair 0000000180080e70     test_sfun_registry.obj
 0002:00005e78       $unwind$ssWriteRTWParamSettings 0000000180080e78     test_sfun_registry.obj
 0002:00005e80       $unwind$ssWriteRTWParameters 0000000180080e80     test_sfun_registry.obj
 0002:00005e88       $unwind$ssWriteRTWWorkVect 0000000180080e88     test_sfun_registry.obj
 0002:00005e9c       $unwind$ssWriteRTWMxVectParam 0000000180080e9c     test_sfun_registry.obj
 0002:00005ea4       $unwind$ssWriteRTWMx2dMatParam 0000000180080ea4     test_sfun_registry.obj
 0002:00005eac       $unwind$_ssSetInputPortMatrixDimensions 0000000180080eac     test_sfun_registry.obj
 0002:00005eb8       $unwind$_ssSetOutputPortMatrixDimensions 0000000180080eb8     test_sfun_registry.obj
 0002:00005ec4       $unwind$_ssSetInputPortVectorDimension 0000000180080ec4     test_sfun_registry.obj
 0002:00005ed0       $unwind$_ssSetOutputPortVectorDimension 0000000180080ed0     test_sfun_registry.obj
 0002:00005edc       $unwind$ssIsRunTimeParamTunable 0000000180080edc     test_sfun_registry.obj
 0002:00005ee4       $unwind$ssGetSFuncBlockHandle 0000000180080ee4     test_sfun_registry.obj
 0002:00005eec       $unwind$_ssGetCurrentInputPortWidth 0000000180080eec     test_sfun_registry.obj
 0002:00005ef4       $unwind$_ssGetCurrentOutputPortWidth 0000000180080ef4     test_sfun_registry.obj
 0002:00005efc       $unwind$_ssGetCallSystemNumFcnCallDestinations 0000000180080efc     test_sfun_registry.obj
 0002:00005f04       $unwind$ssWarning          0000000180080f04     test_sfun_registry.obj
 0002:00005f18       $unwind$_ssGetAbsTol       0000000180080f18     test_sfun_registry.obj
 0002:00005f20       $unwind$sf_process_check_sum_call 0000000180080f20     test_sfun_registry.obj
 0002:00005f28       $unwind$sf_process_autoinheritance_call 0000000180080f28     test_sfun_registry.obj
 0002:00005f38       $unwind$sf_process_get_third_party_uses_info_call 0000000180080f38     test_sfun_registry.obj
 0002:00005f48       $unwind$sf_process_get_eml_resolved_functions_info_call 0000000180080f48     test_sfun_registry.obj
 0002:00005f58       $unwind$sf_mex_unlock_call 0000000180080f58     test_sfun_registry.obj
 0002:00005f68       $unwind$sf_debug_api_wrapper 0000000180080f68     test_sfun_registry.obj
 0002:00005f70       $unwind$ProcessMexSfunctionCmdLineCall 0000000180080f70     test_sfun_registry.obj
 0002:00005f78       $unwind$sf_machine_global_initializer_called 0000000180080f78     test_sfun_registry.obj
 0002:00005f80       $unwind$sf_machine_global_method_dispatcher 0000000180080f80     test_sfun_registry.obj
 0002:00005f88       $unwind$sf_machine_global_terminator 0000000180080f88     test_sfun_registry.obj
 0002:00005f90       $unwind$sf_register_machine_exported_symbols 0000000180080f90     test_sfun_registry.obj
 0002:00005f98       $unwind$sf_machine_global_initializer 0000000180080f98     test_sfun_registry.obj
 0002:00005fa0       $unwind$ProcessMexSfunctionEveryCall 0000000180080fa0     test_sfun_registry.obj
 0002:00005fa8       $unwind$_RegNumInputPortsCB 0000000180080fa8     test_sfun_registry.obj
 0002:00005fb0       $unwind$_RegNumOutputPortsCB 0000000180080fb0     test_sfun_registry.obj
 0002:00005fb8       $unwind$_CreateSimStruct   0000000180080fb8     test_sfun_registry.obj
 0002:00005fc0       $unwind$_ssFatalError      0000000180080fc0     test_sfun_registry.obj
 0002:00005fc8       $unwind$_ProcessMexSfunctionCmdLineCall 0000000180080fc8     test_sfun_registry.obj
 0002:00005fd8       $unwind$load_test_optimization_info 0000000180080fd8     test_sfun.obj
 0002:00005fe0       $unwind$unload_test_optimization_info 0000000180080fe0     test_sfun.obj
 0002:00005fe8       $unwind$sf_test_method_dispatcher 0000000180080fe8     test_sfun.obj
 0002:00005ff0       $unwind$sf_test_process_check_sum_call 0000000180080ff0     test_sfun.obj
 0002:00006000       $unwind$sf_test_autoinheritance_info 0000000180081000     test_sfun.obj
 0002:00006010       $unwind$sf_test_get_eml_resolved_functions_info 0000000180081010     test_sfun.obj
 0002:00006020       $unwind$sf_test_third_party_uses_info 0000000180081020     test_sfun.obj
 0002:00006030       $unwind$test_debug_initialize 0000000180081030     test_sfun.obj
 0002:00006038       $unwind$sf_send_message_wrapper 0000000180081038     sfc_mex:sfc_sf.obj
 0002:00006040       $unwind$sf_receive_message_wrapper 0000000180081040     sfc_mex:sfc_sf.obj
 0002:00006048       $unwind$sf_check_out_message_wrapper 0000000180081048     sfc_mex:sfc_sf.obj
 0002:00006050       $unwind$sf_check_in_message_wrapper 0000000180081050     sfc_mex:sfc_sf.obj
 0002:00006058       $unwind$sf_no_message_wrapper 0000000180081058     sfc_mex:sfc_sf.obj
 0002:00006060       $unwind$get_machine_and_chart_file_number 0000000180081060     sfc_mex:sfc_sf.obj
 0002:00006074       $unwind$get_sfun_block_specialization 0000000180081074     sfc_mex:sfc_sf.obj
 0002:00006080       $unwind$call_sf_machine_global_method_dispatcher 0000000180081080     sfc_mex:sfc_sf.obj
 0002:000060a0       $unwind$mdlZeroCrossings   00000001800810a0     sfc_mex:sfc_sf.obj
 0002:000060b0       $unwind$mdl_derivatives_processing 00000001800810b0     sfc_mex:sfc_sf.obj
 0002:000060b8       $unwind$mdlDerivatives     00000001800810b8     sfc_mex:sfc_sf.obj
 0002:000060c8       $unwind$mdl_initialize_conditions_processing 00000001800810c8     sfc_mex:sfc_sf.obj
 0002:000060d0       $unwind$mdlInitializeConditions 00000001800810d0     sfc_mex:sfc_sf.obj
 0002:000060e4       $unwind$mdl_ext_mode_exec_processing 00000001800810e4     sfc_mex:sfc_sf.obj
 0002:000060ec       $unwind$mdlExtModeExec     00000001800810ec     sfc_mex:sfc_sf.obj
 0002:000060fc       $unwind$mdl_outputs_continuous_legacy 00000001800810fc     sfc_mex:sfc_sf.obj
 0002:00006104       $unwind$mdl_outputs_processing 0000000180081104     sfc_mex:sfc_sf.obj
 0002:0000610c       $chain$1$mdlTerminate      000000018008110c     sfc_mex:sfc_sf.obj
 0002:0000611c       $chain$0$mdlTerminate      000000018008111c     sfc_mex:sfc_sf.obj
 0002:00006130       $unwind$mdlTerminate       0000000180081130     sfc_mex:sfc_sf.obj
 0002:00006138       $unwind$mdlRTW             0000000180081138     sfc_mex:sfc_sf.obj
 0002:00006144       $unwind$mdl_start_processing 0000000180081144     sfc_mex:sfc_sf.obj
 0002:0000614c       $unwind$mdlStart           000000018008114c     sfc_mex:sfc_sf.obj
 0002:00006160       $unwind$mdlEnable          0000000180081160     sfc_mex:sfc_sf.obj
 0002:00006170       $unwind$mdlDisable         0000000180081170     sfc_mex:sfc_sf.obj
 0002:00006180       $unwind$sf_load_rtw_optimization_info 0000000180081180     sfc_mex:sfc_sf.obj
 0002:0000618c       $unwind$sf_update_buildInfo 000000018008118c     sfc_mex:sfc_sf.obj
 0002:0000619c       $unwind$sf_rtw_info_uint_prop 000000018008119c     sfc_mex:sfc_sf.obj
 0002:000061b0       $unwind$sf_is_chart_inlinable 00000001800811b0     sfc_mex:sfc_sf.obj
 0002:000061b8       $unwind$sf_mark_output_events_with_multiple_callers 00000001800811b8     sfc_mex:sfc_sf.obj
 0002:000061cc       $unwind$sf_mark_chart_reusable_outputs 00000001800811cc     sfc_mex:sfc_sf.obj
 0002:000061e0       $unwind$sf_mark_chart_expressionable_inputs 00000001800811e0     sfc_mex:sfc_sf.obj
 0002:000061f4       $unwind$sf_get_subchart_simstruct 00000001800811f4     sfc_mex:sfc_sf.obj
 0002:000061fc       $unwind$sf_get_fixpt_data_type_id 00000001800811fc     sfc_mex:sfc_sf.obj
 0002:00006204       $unwind$sf_get_enum_data_type_id 0000000180081204     sfc_mex:sfc_sf.obj
 0002:0000620c       $unwind$sf_get_param_data_type_id 000000018008120c     sfc_mex:sfc_sf.obj
 0002:00006214       $unwind$sf_mex_listen_for_ctrl_c_force 0000000180081214     sfc_mex:sfc_sf.obj
 0002:0000621c       $unwind$sf_mex_draw_now    000000018008121c     sfc_mex:sfc_sf.obj
 0002:00006224       $unwind$sf_mex_listen_for_ctrl_c 0000000180081224     sfc_mex:sfc_sf.obj
 0002:00006230       $unwind$sf_mex_get_sfun_param 0000000180081230     sfc_mex:sfc_sf.obj
 0002:00006238       $unwind$sf_get_runtime_param_data 0000000180081238     sfc_mex:sfc_sf.obj
 0002:00006240       $unwind$sf_call_output_fcn_call 0000000180081240     sfc_mex:sfc_sf.obj
 0002:0000624c       $unwind$sf_call_output_fcn_enable_disable 000000018008124c     sfc_mex:sfc_sf.obj
 0002:00006258       $unwind$sf_call_output_fcn_enable 0000000180081258     sfc_mex:sfc_sf.obj
 0002:00006264       $unwind$sf_call_output_fcn_disable 0000000180081264     sfc_mex:sfc_sf.obj
 0002:00006270       $chain$3$sf_clear_rtw_identifier 0000000180081270     sfc_mex:sfc_sf.obj
 0002:00006280       $chain$2$sf_clear_rtw_identifier 0000000180081280     sfc_mex:sfc_sf.obj
 0002:0000629c       $unwind$sf_clear_rtw_identifier 000000018008129c     sfc_mex:sfc_sf.obj
 0002:000062a4       $chain$7$set_dwork_information_from_mx_array 00000001800812a4     sfc_mex:sfc_sf.obj
 0002:000062b4       $chain$6$set_dwork_information_from_mx_array 00000001800812b4     sfc_mex:sfc_sf.obj
 0002:000062c4       $chain$5$set_dwork_information_from_mx_array 00000001800812c4     sfc_mex:sfc_sf.obj
 0002:000062e8       $chain$0$set_dwork_information_from_mx_array 00000001800812e8     sfc_mex:sfc_sf.obj
 0002:000062fc       $unwind$set_dwork_information_from_mx_array 00000001800812fc     sfc_mex:sfc_sf.obj
 0002:00006314       $unwind$sf_set_encoded_dwork_info 0000000180081314     sfc_mex:sfc_sf.obj
 0002:00006320       $unwind$sf_get_dwork_info_from_mat_file 0000000180081320     sfc_mex:sfc_sf.obj
 0002:00006334       $unwind$ptr2mxStruct       0000000180081334     sfc_mex:sfc_sf.obj
 0002:00006340       $unwind$sf_set_rtw_dwork_info 0000000180081340     sfc_mex:sfc_sf.obj
 0002:00006358       $unwind$mdlOutputs         0000000180081358     sfc_mex:sfc_sf.obj
 0002:00006368       $unwind$getThreadLocalStorage 0000000180081368     sfc_mex:sfc_mex.obj
 0002:00006370       $unwind$SNPRINTF_WRAPPER   0000000180081370     sfc_mex:sfc_mex.obj
 0002:00006378       $unwind$convert_dims_to_string 0000000180081378     sfc_mex:sfc_mex.obj
 0002:0000638c       $unwind$sf_mex_mx_is_numeric 000000018008138c     sfc_mex:sfc_mex.obj
 0002:00006394       $unwind$sf_error_append_debugger_context_if_available 0000000180081394     sfc_mex:sfc_mex.obj
 0002:0000639c       $unwind$sf_set_error_prefix_string 000000018008139c     sfc_mex:sfc_mex.obj
 0002:000063a4       $unwind$replace_single_quotes_by_doubled_quotes 00000001800813a4     sfc_mex:sfc_mex.obj
 0002:000063bc       $unwind$sf_mex_warning_message 00000001800813bc     sfc_mex:sfc_mex.obj
 0002:000063cc       $unwind$sf_mex_errbuf_createf 00000001800813cc     sfc_mex:sfc_mex.obj
 0002:000063d4       $unwind$sf_mex_v_errbuf_catf 00000001800813d4     sfc_mex:sfc_mex.obj
 0002:000063dc       $unwind$sf_mex_errbuf_catf 00000001800813dc     sfc_mex:sfc_mex.obj
 0002:000063e4       $chain$1$sf_mex_get_formatted_error_string 00000001800813e4     sfc_mex:sfc_mex.obj
 0002:000063f4       $chain$0$sf_mex_get_formatted_error_string 00000001800813f4     sfc_mex:sfc_mex.obj
 0002:00006408       $unwind$sf_mex_get_formatted_error_string 0000000180081408     sfc_mex:sfc_mex.obj
 0002:00006410       $unwind$sf_mex_set_error_status 0000000180081410     sfc_mex:sfc_mex.obj
 0002:00006418       $unwind$sf_mex_long_jump_on_error 0000000180081418     sfc_mex:sfc_mex.obj
 0002:00006420       $unwind$sf_mex_call_matlab 0000000180081420     sfc_mex:sfc_mex.obj
 0002:00006438       $unwind$sf_mex_check_builtin 0000000180081438     sfc_mex:sfc_mex.obj
 0002:0000644c       $unwind$sf_mex_check_builtin_vs 000000018008144c     sfc_mex:sfc_mex.obj
 0002:00006460       $unwind$sf_mex_check_enum  0000000180081460     sfc_mex:sfc_mex.obj
 0002:00006474       $unwind$sf_mex_create_enum 0000000180081474     sfc_mex:sfc_mex.obj
 0002:00006480       $unwind$sf_mex_assign      0000000180081480     sfc_mex:sfc_mex.obj
 0002:00006490       $unwind$sf_mex_destroy     0000000180081490     sfc_mex:sfc_mex.obj
 0002:00006498       $unwind$mx_array_has_fi_type 0000000180081498     sfc_mex:sfc_mex.obj
 0002:000064a0       $unwind$sf_mex_convert_from_fi 00000001800814a0     sfc_mex:sfc_mex.obj
 0002:000064ac       $unwind$sf_mex_convert_to_double 00000001800814ac     sfc_mex:sfc_mex.obj
 0002:000064b8       $unwind$sf_mex_import_fi_vs 00000001800814b8     sfc_mex:sfc_mex.obj
 0002:000064c4       $unwind$sfrtAddSize        00000001800814c4     sfc_mex:sfc_mex.obj
 0002:000064e0       $chain$1$sfrtGenSizeString 00000001800814e0     sfc_mex:sfc_mex.obj
 0002:000064f0       $chain$0$sfrtGenSizeString 00000001800814f0     sfc_mex:sfc_mex.obj
 0002:00006504       $unwind$sfrtGenSizeString  0000000180081504     sfc_mex:sfc_mex.obj
 0002:00006520       $unwind$sf_matrix_matrix_index_ok 0000000180081520     sfc_mex:sfc_mex.obj
 0002:00006528       $unwind$sf_ExtractMessageId 0000000180081528     sfc_mex:sfc_mex.obj
 0002:00006534       $unwind$sf_clear_error_manager_info 0000000180081534     sfc_mex:sfc_mex.obj
 0002:0000653c       $unwind$sf_mex_stop_simulation_abruptly_wo_error 000000018008153c     sfc_mex:sfc_mex.obj
 0002:00006544       $unwind$sf_mex_error_message 0000000180081544     sfc_mex:sfc_mex.obj
 0002:0000654c       $unwind$sf_react_to_error_in_matlab_call 000000018008154c     sfc_mex:sfc_mex.obj
 0002:00006554       $unwind$sf_mex_addfield    0000000180081554     sfc_mex:sfc_mex.obj
 0002:00006568       $unwind$sf_mex_getfield    0000000180081568     sfc_mex:sfc_mex.obj
 0002:0000657c       $chain$1$sf_mex_err        000000018008157c     sfc_mex:sfc_mex.obj
 0002:0000658c       $chain$0$sf_mex_err        000000018008158c     sfc_mex:sfc_mex.obj
 0002:000065a0       $unwind$sf_mex_err         00000001800815a0     sfc_mex:sfc_mex.obj
 0002:000065b4       $chain$1$sf_error_dimension_out_of_bound 00000001800815b4     sfc_mex:sfc_mex.obj
 0002:000065c4       $chain$0$sf_error_dimension_out_of_bound 00000001800815c4     sfc_mex:sfc_mex.obj
 0002:000065d8       $unwind$sf_error_dimension_out_of_bound 00000001800815d8     sfc_mex:sfc_mex.obj
 0002:000065f0       $unwind$sf_mex_check_and_set_actual_dimensions 00000001800815f0     sfc_mex:sfc_mex.obj
 0002:00006604       $unwind$sf_mex_check_class 0000000180081604     sfc_mex:sfc_mex.obj
 0002:0000661c       $unwind$sf_mex_is_real     000000018008161c     sfc_mex:sfc_mex.obj
 0002:00006624       $unwind$sf_mex_check_complex 0000000180081624     sfc_mex:sfc_mex.obj
 0002:00006634       $unwind$sf_mex_check_sparse 0000000180081634     sfc_mex:sfc_mex.obj
 0002:00006644       $unwind$sf_mex_check_numerictype 0000000180081644     sfc_mex:sfc_mex.obj
 0002:00006654       $unwind$sf_mex_check_fimath 0000000180081654     sfc_mex:sfc_mex.obj
 0002:00006664       $chain$4$sf_mex_decode_encoded_mx_struct_array 0000000180081664     sfc_mex:sfc_mex.obj
 0002:00006674       $chain$3$sf_mex_decode_encoded_mx_struct_array 0000000180081674     sfc_mex:sfc_mex.obj
 0002:00006694       $unwind$sf_mex_decode_encoded_mx_struct_array 0000000180081694     sfc_mex:sfc_mex.obj
 0002:000066a4       $unwind$sf_mex_lw_bounds_check 00000001800816a4     sfc_mex:sfc_mex.obj
 0002:000066ac       $unwind$sf_mex_lw_size_eq_check_1d 00000001800816ac     sfc_mex:sfc_mex.obj
 0002:000066b4       $chain$3$sf_mex_lw_size_eq_check_nd 00000001800816b4     sfc_mex:sfc_mex.obj
 0002:000066c4       $chain$2$sf_mex_lw_size_eq_check_nd 00000001800816c4     sfc_mex:sfc_mex.obj
 0002:000066d4       $chain$1$sf_mex_lw_size_eq_check_nd 00000001800816d4     sfc_mex:sfc_mex.obj
 0002:000066e8       $chain$0$sf_mex_lw_size_eq_check_nd 00000001800816e8     sfc_mex:sfc_mex.obj
 0002:000066fc       $unwind$sf_mex_lw_size_eq_check_nd 00000001800816fc     sfc_mex:sfc_mex.obj
 0002:00006714       $unwind$sf_mex_lw_dim_size_eq_check 0000000180081714     sfc_mex:sfc_mex.obj
 0002:0000671c       $unwind$sf_mex_lw_dim_size_geq_check 000000018008171c     sfc_mex:sfc_mex.obj
 0002:00006724       $unwind$sf_mex_lw_sub_assign_size_check_nd 0000000180081724     sfc_mex:sfc_mex.obj
 0002:00006744       $unwind$sf_mex_lw_runtime_error_msgid 0000000180081744     sfc_mex:sfc_mex.obj
 0002:00006754       $unwind$sf_mex_lw_matrix_matrix_index_check 0000000180081754     sfc_mex:sfc_mex.obj
 0002:0000675c       $unwind$sf_mex_lw_vector_vector_index_check 000000018008175c     sfc_mex:sfc_mex.obj
 0002:00006764       $unwind$sf_mex_lw_for_loop_vector_check 0000000180081764     sfc_mex:sfc_mex.obj
 0002:00006778       $unwind$sf_mex_lw_non_negative_check 0000000180081778     sfc_mex:sfc_mex.obj
 0002:00006784       $unwind$sf_emlrtErrHandler 0000000180081784     sfc_mex:sfc_mex.obj
 0002:0000678c       $chain$1$size_mismatch_error 000000018008178c     sfc_mex:sfc_mex.obj
 0002:0000679c       $chain$0$size_mismatch_error 000000018008179c     sfc_mex:sfc_mex.obj
 0002:000067b0       $unwind$size_mismatch_error 00000001800817b0     sfc_mex:sfc_mex.obj
 0002:000067c4       $unwind$sf_mex_size_one_check 00000001800817c4     sfc_mex:sfc_mex.obj
 0002:000067cc       $chain$4$sf_mex_printf     00000001800817cc     sfc_mex:sfc_mex.obj
 0002:000067dc       $chain$3$sf_mex_printf     00000001800817dc     sfc_mex:sfc_mex.obj
 0002:000067f0       $chain$2$sf_mex_printf     00000001800817f0     sfc_mex:sfc_mex.obj
 0002:0000680c       $unwind$sf_mex_printf      000000018008180c     sfc_mex:sfc_mex.obj
 0002:0000681c       $unwind$sf_mex_check_size  000000018008181c     sfc_mex:sfc_mex.obj
 0002:00006840       $chain$3$sf_mex_check_struct 0000000180081840     sfc_mex:sfc_mex.obj
 0002:00006850       $chain$2$sf_mex_check_struct 0000000180081850     sfc_mex:sfc_mex.obj
 0002:00006868       $unwind$sf_mex_check_struct 0000000180081868     sfc_mex:sfc_mex.obj
 0002:00006888       $unwind$sf_mex_check_struct_vs 0000000180081888     sfc_mex:sfc_mex.obj
 0002:000068a0       $unwind$sf_mex_check_fi    00000001800818a0     sfc_mex:sfc_mex.obj
 0002:000068b0       $unwind$sf_mex_check_fi_vs 00000001800818b0     sfc_mex:sfc_mex.obj
 0002:000068c8       $unwind$sf_echo_expression 00000001800818c8     sfc_mex:sfc_mex.obj
 0002:000068d4       $unwind$sf_assertion_failed 00000001800818d4     sfc_mex:sfc_mex.obj
 0002:000068e0       $unwind$check_array_dimensions 00000001800818e0     sfc_mex:sfc_mex.obj
 0002:000068ec       $chain$2$check_input_mxarray 00000001800818ec     sfc_mex:sfc_mex.obj
 0002:00006900       $chain$1$check_input_mxarray 0000000180081900     sfc_mex:sfc_mex.obj
 0002:00006918       $unwind$check_input_mxarray 0000000180081918     sfc_mex:sfc_mex.obj
 0002:0000692c       $unwind$sf_mex_evalin      000000018008192c     sfc_mex:sfc_mex.obj
 0002:00006948       $unwind$sf_mex_export      0000000180081948     sfc_mex:sfc_mex.obj
 0002:00006950       $unwind$sf_mex_get_ml_var_no_error 0000000180081950     sfc_mex:sfc_mex.obj
 0002:0000695c       $unwind$sf_mex_get_ml_var  000000018008195c     sfc_mex:sfc_mex.obj
 0002:00006968       $unwind$sf_numeric_value_to_double 0000000180081968     sfc_mex:sfc_mex.obj
 0002:00006970       $unwind$ml_generic_out_of_bounds_check 0000000180081970     sfc_mex:sfc_mex.obj
 0002:0000699c       $unwind$ml_get_element_value_from_array 000000018008199c     sfc_mex:sfc_mex.obj
 0002:000069bc       $unwind$ml_set_element_value_in_array 00000001800819bc     sfc_mex:sfc_mex.obj
 0002:000069d4       $chain$7$_ml_generic_castability_check 00000001800819d4     sfc_mex:sfc_mex.obj
 0002:000069fc       $chain$6$_ml_generic_castability_check 00000001800819fc     sfc_mex:sfc_mex.obj
 0002:00006a0c       $chain$5$_ml_generic_castability_check 0000000180081a0c     sfc_mex:sfc_mex.obj
 0002:00006a34       $unwind$_ml_generic_castability_check 0000000180081a34     sfc_mex:sfc_mex.obj
 0002:00006a58       $unwind$ml_generic_castability_check 0000000180081a58     sfc_mex:sfc_mex.obj
 0002:00006a74       $unwind$ml_check_mx_array_for_single_castability 0000000180081a74     sfc_mex:sfc_mex.obj
 0002:00006a80       $unwind$ml_check_mx_array_for_logical_castability 0000000180081a80     sfc_mex:sfc_mex.obj
 0002:00006a8c       $unwind$ml_check_mx_array_for_int8_castability 0000000180081a8c     sfc_mex:sfc_mex.obj
 0002:00006a98       $unwind$ml_check_mx_array_for_uint8_castability 0000000180081a98     sfc_mex:sfc_mex.obj
 0002:00006aa4       $unwind$ml_check_mx_array_for_int16_castability 0000000180081aa4     sfc_mex:sfc_mex.obj
 0002:00006ab0       $unwind$ml_check_mx_array_for_uint16_castability 0000000180081ab0     sfc_mex:sfc_mex.obj
 0002:00006abc       $unwind$ml_check_mx_array_for_int32_castability 0000000180081abc     sfc_mex:sfc_mex.obj
 0002:00006ac8       $unwind$ml_check_mx_array_for_uint32_castability 0000000180081ac8     sfc_mex:sfc_mex.obj
 0002:00006ad4       $unwind$ml_check_mx_array_for_castability 0000000180081ad4     sfc_mex:sfc_mex.obj
 0002:00006af0       $chain$7$sf_mex_call_impl  0000000180081af0     sfc_mex:sfc_mex.obj
 0002:00006b14       $chain$6$sf_mex_call_impl  0000000180081b14     sfc_mex:sfc_mex.obj
 0002:00006b28       $chain$5$sf_mex_call_impl  0000000180081b28     sfc_mex:sfc_mex.obj
 0002:00006b38       $chain$4$sf_mex_call_impl  0000000180081b38     sfc_mex:sfc_mex.obj
 0002:00006b4c       $chain$3$sf_mex_call_impl  0000000180081b4c     sfc_mex:sfc_mex.obj
 0002:00006b6c       $unwind$sf_mex_call_impl   0000000180081b6c     sfc_mex:sfc_mex.obj
 0002:00006b7c       $unwind$sf_mex_call_debug  0000000180081b7c     sfc_mex:sfc_mex.obj
 0002:00006b84       $unwind$sf_mex_call        0000000180081b84     sfc_mex:sfc_mex.obj
 0002:00006b8c       $unwind$set_data_value     0000000180081b8c     sfc_mex:sfc_mex.obj
 0002:00006b94       $unwind$get_data_value     0000000180081b94     sfc_mex:sfc_mex.obj
 0002:00006b9c       $unwind$get_next_element_address 0000000180081b9c     sfc_mex:sfc_mex.obj
 0002:00006ba4       $unwind$sf_normalize_index 0000000180081ba4     sfc_mex:sfc_mex.obj
 0002:00006bb4       $unwind$sf_mex_createstruct 0000000180081bb4     sfc_mex:sfc_mex.obj
 0002:00006bc8       $unwind$sf_mex_createstructarray 0000000180081bc8     sfc_mex:sfc_mex.obj
 0002:00006bd8       $unwind$sf_mex_get_mx_datatype_from_sf_datatype 0000000180081bd8     sfc_mex:sfc_mex.obj
 0002:00006be0       $chain$2$ml_array_index_bound_check 0000000180081be0     sfc_mex:sfc_mex.obj
 0002:00006bf0       $chain$1$ml_array_index_bound_check 0000000180081bf0     sfc_mex:sfc_mex.obj
 0002:00006c08       $unwind$ml_array_index_bound_check 0000000180081c08     sfc_mex:sfc_mex.obj
 0002:00006c1c       $unwind$sf_mex_ml_var_sub  0000000180081c1c     sfc_mex:sfc_mex.obj
 0002:00006c38       $unwind$sf_mex_ml_var_subsasgn 0000000180081c38     sfc_mex:sfc_mex.obj
 0002:00006c5c       $unwind$sf_mex_sub         0000000180081c5c     sfc_mex:sfc_mex.obj
 0002:00006c78       $chain$1$sf_mex_subsasgn   0000000180081c78     sfc_mex:sfc_mex.obj
 0002:00006c88       $chain$0$sf_mex_subsasgn   0000000180081c88     sfc_mex:sfc_mex.obj
 0002:00006c9c       $unwind$sf_mex_subsasgn    0000000180081c9c     sfc_mex:sfc_mex.obj
 0002:00006cb8       $unwind$mx_value           0000000180081cb8     sfc_mex:sfc_mex.obj
 0002:00006cc0       $unwind$sf_create_numeric_array 0000000180081cc0     sfc_mex:sfc_mex.obj
 0002:00006cd4       $unwind$sf_mex_assign_to_mx_array 0000000180081cd4     sfc_mex:sfc_mex.obj
 0002:00006cf0       $unwind$sf_mex_create      0000000180081cf0     sfc_mex:sfc_mex.obj
 0002:00006d0c       $chain$2$assign_from_mx_array 0000000180081d0c     sfc_mex:sfc_mex.obj
 0002:00006d1c       $chain$1$assign_from_mx_array 0000000180081d1c     sfc_mex:sfc_mex.obj
 0002:00006d30       $chain$0$assign_from_mx_array 0000000180081d30     sfc_mex:sfc_mex.obj
 0002:00006d44       $unwind$assign_from_mx_array 0000000180081d44     sfc_mex:sfc_mex.obj
 0002:00006d68       $unwind$sf_mex_import_v    0000000180081d68     sfc_mex:sfc_mex.obj
 0002:00006d88       $unwind$sf_mex_import_named 0000000180081d88     sfc_mex:sfc_mex.obj
 0002:00006d90       $unwind$sf_mex_import      0000000180081d90     sfc_mex:sfc_mex.obj
 0002:00006d98       $unwind$sf_mex_import_vs   0000000180081d98     sfc_mex:sfc_mex.obj
 0002:00006db4       $unwind$sf_mex_lower_fixpt_mx_array 0000000180081db4     sfc_mex:sfc_mex.obj
 0002:00006dd4       $unwind$SNPRINTF_WRAPPER   0000000180081dd4     sfc_debug:sfcdebug.obj
 0002:00006ddc       $unwind$sf_debug_disp      0000000180081ddc     sfc_debug:sfcdebug.obj
 0002:00006dec       $unwind$sfrtAddSize        0000000180081dec     sfc_debug:sfcdebug.obj
 0002:00006e08       $chain$1$sfrtGenSizeString 0000000180081e08     sfc_debug:sfcdebug.obj
 0002:00006e18       $chain$0$sfrtGenSizeString 0000000180081e18     sfc_debug:sfcdebug.obj
 0002:00006e2c       $unwind$sfrtGenSizeString  0000000180081e2c     sfc_debug:sfcdebug.obj
 0002:00006e48       $unwind$sf_debug_data_runtime_size_mismatch_error_check 0000000180081e48     sfc_debug:sfcdebug.obj
 0002:00006e50       $unwind$sf_debug_try_loading_machine 0000000180081e50     sfc_debug:sfcdebug.obj
 0002:00006e58       $unwind$sf_debug_reset_current_state_configuration 0000000180081e58     sfc_debug:sfcdebug.obj
 0002:00006e60       $unwind$sf_debug_store_current_state_configuration 0000000180081e60     sfc_debug:sfcdebug.obj
 0002:00006e68       $unwind$sf_debug_restore_previous_state_configuration 0000000180081e68     sfc_debug:sfcdebug.obj
 0002:00006e70       $unwind$sf_debug_restore_previous_state_configuration2 0000000180081e70     sfc_debug:sfcdebug.obj
 0002:00006e78       $unwind$sf_debug_get_event_scope 0000000180081e78     sfc_debug:sfcdebug.obj
 0002:00006e80       $unwind$sf_debug_get_script_id 0000000180081e80     sfc_debug:sfcdebug.obj
 0002:00006e88       $unwind$sf_debug_set_script_translation 0000000180081e88     sfc_debug:sfcdebug.obj
 0002:00006ea0       $unwind$fill_single_message_info 0000000180081ea0     sfc_debug:sfcdebug.obj
 0002:00006eb0       $chain$3$sf_debug_extract_message_post_receive_info 0000000180081eb0     sfc_debug:sfcdebug.obj
 0002:00006ec0       $chain$2$sf_debug_extract_message_post_receive_info 0000000180081ec0     sfc_debug:sfcdebug.obj
 0002:00006ed4       $unwind$sf_debug_extract_message_post_receive_info 0000000180081ed4     sfc_debug:sfcdebug.obj
 0002:00006ee8       $unwind$sf_debug_get_current_chart_id 0000000180081ee8     sfc_debug:sfcdebug.obj
 0002:00006ef0       $unwind$sf_debug_get_current_object_id 0000000180081ef0     sfc_debug:sfcdebug.obj
 0002:00006ef8       $unwind$sf_debug_get_current_active_event_id 0000000180081ef8     sfc_debug:sfcdebug.obj
 0002:00006f00       $unwind$sf_debug_get_current_statement_info 0000000180081f00     sfc_debug:sfcdebug.obj
 0002:00006f0c       $unwind$sf_debug_terminate_instance 0000000180081f0c     sfc_debug:sfcdebug.obj
 0002:00006f14       $chain$5$sf_debug_free_all 0000000180081f14     sfc_debug:sfcdebug.obj
 0002:00006f24       $chain$4$sf_debug_free_all 0000000180081f24     sfc_debug:sfcdebug.obj
 0002:00006f34       $chain$3$sf_debug_free_all 0000000180081f34     sfc_debug:sfcdebug.obj
 0002:00006f50       $chain$0$sf_debug_free_all 0000000180081f50     sfc_debug:sfcdebug.obj
 0002:00006f64       $unwind$sf_debug_free_all  0000000180081f64     sfc_debug:sfcdebug.obj
 0002:00006f70       $chain$1$sf_debug_append_debugger_context 0000000180081f70     sfc_debug:sfcdebug.obj
 0002:00006f80       $chain$0$sf_debug_append_debugger_context 0000000180081f80     sfc_debug:sfcdebug.obj
 0002:00006f94       $unwind$sf_debug_append_debugger_context 0000000180081f94     sfc_debug:sfcdebug.obj
 0002:00006fac       $unwind$sf_debug_create_debug_instance_struct 0000000180081fac     sfc_debug:sfcdebug.obj
 0002:00006fb4       $unwind$local_strdup       0000000180081fb4     sfc_debug:sfcdebug.obj
 0002:00006fc0       $chain$2$sf_debug_set_machine_data_name 0000000180081fc0     sfc_debug:sfcdebug.obj
 0002:00006fd0       $chain$1$sf_debug_set_machine_data_name 0000000180081fd0     sfc_debug:sfcdebug.obj
 0002:00006fe8       $unwind$sf_debug_set_machine_data_name 0000000180081fe8     sfc_debug:sfcdebug.obj
 0002:00006ff4       $chain$6$sf_debug_set_machine_data_size 0000000180081ff4     sfc_debug:sfcdebug.obj
 0002:00007004       $chain$5$sf_debug_set_machine_data_size 0000000180082004     sfc_debug:sfcdebug.obj
 0002:0000701c       $chain$3$sf_debug_set_machine_data_size 000000018008201c     sfc_debug:sfcdebug.obj
 0002:0000703c       $unwind$sf_debug_set_machine_data_size 000000018008203c     sfc_debug:sfcdebug.obj
 0002:00007044       $chain$3$sf_debug_set_machine_data_type 0000000180082044     sfc_debug:sfcdebug.obj
 0002:00007054       $chain$2$sf_debug_set_machine_data_type 0000000180082054     sfc_debug:sfcdebug.obj
 0002:00007070       $unwind$sf_debug_set_machine_data_type 0000000180082070     sfc_debug:sfcdebug.obj
 0002:00007078       $chain$1$sf_debug_set_chart_substate_count 0000000180082078     sfc_debug:sfcdebug.obj
 0002:00007088       $chain$0$sf_debug_set_chart_substate_count 0000000180082088     sfc_debug:sfcdebug.obj
 0002:0000709c       $unwind$sf_debug_set_chart_substate_count 000000018008209c     sfc_debug:sfcdebug.obj
 0002:000070a4       $chain$3$sf_debug_set_chart_state_substate_count 00000001800820a4     sfc_debug:sfcdebug.obj
 0002:000070b4       $chain$2$sf_debug_set_chart_state_substate_count 00000001800820b4     sfc_debug:sfcdebug.obj
 0002:000070d0       $unwind$sf_debug_set_chart_state_substate_count 00000001800820d0     sfc_debug:sfcdebug.obj
 0002:000070d8       $unwind$sf_debug_set_number_of_data_with_change_event_for_chart 00000001800820d8     sfc_debug:sfcdebug.obj
 0002:000070e0       $chain$6$sf_debug_set_chart_data_compiled_props 00000001800820e0     sfc_debug:sfcdebug.obj
 0002:000070f0       $chain$5$sf_debug_set_chart_data_compiled_props 00000001800820f0     sfc_debug:sfcdebug.obj
 0002:00007104       $chain$4$sf_debug_set_chart_data_compiled_props 0000000180082104     sfc_debug:sfcdebug.obj
 0002:0000711c       $chain$2$sf_debug_set_chart_data_compiled_props 000000018008211c     sfc_debug:sfcdebug.obj
 0002:00007138       $unwind$sf_debug_set_chart_data_compiled_props 0000000180082138     sfc_debug:sfcdebug.obj
 0002:00007144       $chain$3$sf_debug_set_chart_data_props 0000000180082144     sfc_debug:sfcdebug.obj
 0002:00007154       $chain$2$sf_debug_set_chart_data_props 0000000180082154     sfc_debug:sfcdebug.obj
 0002:00007170       $unwind$sf_debug_set_chart_data_props 0000000180082170     sfc_debug:sfcdebug.obj
 0002:00007178       $unwind$sf_debug_em_terminate 0000000180082178     sfc_debug:sfcdebug.obj
 0002:00007180       $unwind$sf_debug_push_eml_function 0000000180082180     sfc_debug:sfcdebug.obj
 0002:00007188       $unwind$sf_debug_pop_eml_function 0000000180082188     sfc_debug:sfcdebug.obj
 0002:00007190       $unwind$sf_debug_check_fi_license 0000000180082190     sfc_debug:sfcdebug.obj
 0002:000071a8       $unwind$sf_debug_symbol_scope_push 00000001800821a8     sfc_debug:sfcdebug.obj
 0002:000071b4       $unwind$sf_debug_symbol_scope_push_eml 00000001800821b4     sfc_debug:sfcdebug.obj
 0002:000071c0       $unwind$sf_debug_symbol_scope_pop 00000001800821c0     sfc_debug:sfcdebug.obj
 0002:000071c8       $unwind$sf_debug_symbol_scope_add_importable 00000001800821c8     sfc_debug:sfcdebug.obj
 0002:000071d0       $unwind$sf_debug_symbol_scope_add 00000001800821d0     sfc_debug:sfcdebug.obj
 0002:000071d8       $unwind$sf_debug_symbol_scope_add_dyn_importable 00000001800821d8     sfc_debug:sfcdebug.obj
 0002:000071e0       $unwind$sf_debug_symbol_scope_add_dyn 00000001800821e0     sfc_debug:sfcdebug.obj
 0002:000071e8       $unwind$sf_debug_symbol_scope_add_eml_importable 00000001800821e8     sfc_debug:sfcdebug.obj
 0002:000071f0       $unwind$sf_debug_symbol_scope_add_eml 00000001800821f0     sfc_debug:sfcdebug.obj
 0002:000071f8       $unwind$sf_debug_symbol_scope_add_eml_dyn_importable 00000001800821f8     sfc_debug:sfcdebug.obj
 0002:00007200       $unwind$sf_debug_symbol_scope_add_eml_dyn 0000000180082200     sfc_debug:sfcdebug.obj
 0002:00007208       $unwind$sf_debug_symbol_scope_add_verbose 0000000180082208     sfc_debug:sfcdebug.obj
 0002:00007210       $unwind$sf_debug_set_machine_data_value_ptr 0000000180082210     sfc_debug:sfcdebug.obj
 0002:00007218       $unwind$sf_debug_set_instance_data_value_ptr 0000000180082218     sfc_debug:sfcdebug.obj
 0002:00007220       $unwind$sf_debug_unset_instance_data_value_ptr 0000000180082220     sfc_debug:sfcdebug.obj
 0002:00007228       $unwind$sf_debug_set_chart_transition_coverage_maps 0000000180082228     sfc_debug:sfcdebug.obj
 0002:00007230       $unwind$sf_debug_set_chart_state_coverage_maps 0000000180082230     sfc_debug:sfcdebug.obj
 0002:00007238       $unwind$sf_debug_set_instance_transition_coverage_weights 0000000180082238     sfc_debug:sfcdebug.obj
 0002:00007240       $unwind$sf_debug_set_instance_state_coverage_weights 0000000180082240     sfc_debug:sfcdebug.obj
 0002:00007248       $unwind$sf_debug_get_machine_number_from_id_or_name 0000000180082248     sfc_debug:sfcdebug.obj
 0002:00007260       $unwind$sf_debug_unload_machine 0000000180082260     sfc_debug:sfcdebug.obj
 0002:00007268       $chain$1$sf_debug_load_machine 0000000180082268     sfc_debug:sfcdebug.obj
 0002:00007278       $chain$0$sf_debug_load_machine 0000000180082278     sfc_debug:sfcdebug.obj
 0002:0000728c       $unwind$sf_debug_load_machine 000000018008228c     sfc_debug:sfcdebug.obj
 0002:000072a0       $chain$5$sf_debug_set_active_instance_in_data_dictionary 00000001800822a0     sfc_debug:sfcdebug.obj
 0002:000072b0       $chain$4$sf_debug_set_active_instance_in_data_dictionary 00000001800822b0     sfc_debug:sfcdebug.obj
 0002:000072c0       $chain$3$sf_debug_set_active_instance_in_data_dictionary 00000001800822c0     sfc_debug:sfcdebug.obj
 0002:000072d4       $chain$2$sf_debug_set_active_instance_in_data_dictionary 00000001800822d4     sfc_debug:sfcdebug.obj
 0002:000072f0       $unwind$sf_debug_set_active_instance_in_data_dictionary 00000001800822f0     sfc_debug:sfcdebug.obj
 0002:000072f8       $chain$2$sf_debug_set_active_instance 00000001800822f8     sfc_debug:sfcdebug.obj
 0002:00007308       $chain$1$sf_debug_set_active_instance 0000000180082308     sfc_debug:sfcdebug.obj
 0002:00007320       $unwind$sf_debug_set_active_instance 0000000180082320     sfc_debug:sfcdebug.obj
 0002:0000732c       $unwind$sf_debug_chart_visiblity_change 000000018008232c     sfc_debug:sfcdebug.obj
 0002:0000733c       $chain$8$sf_debug_select_chart 000000018008233c     sfc_debug:sfcdebug.obj
 0002:0000734c       $chain$7$sf_debug_select_chart 000000018008234c     sfc_debug:sfcdebug.obj
 0002:00007360       $chain$6$sf_debug_select_chart 0000000180082360     sfc_debug:sfcdebug.obj
 0002:00007384       $chain$0$sf_debug_select_chart 0000000180082384     sfc_debug:sfcdebug.obj
 0002:00007398       $unwind$sf_debug_select_chart 0000000180082398     sfc_debug:sfcdebug.obj
 0002:000073a4       $chain$8$sf_debug_set_instance_cv_ids 00000001800823a4     sfc_debug:sfcdebug.obj
 0002:000073b4       $chain$7$sf_debug_set_instance_cv_ids 00000001800823b4     sfc_debug:sfcdebug.obj
 0002:000073dc       $unwind$sf_debug_set_instance_cv_ids 00000001800823dc     sfc_debug:sfcdebug.obj
 0002:000073ec       $chain$8$sf_debug_select_charts 00000001800823ec     sfc_debug:sfcdebug.obj
 0002:000073fc       $chain$7$sf_debug_select_charts 00000001800823fc     sfc_debug:sfcdebug.obj
 0002:0000740c       $chain$6$sf_debug_select_charts 000000018008240c     sfc_debug:sfcdebug.obj
 0002:00007434       $chain$0$sf_debug_select_charts 0000000180082434     sfc_debug:sfcdebug.obj
 0002:00007448       $unwind$sf_debug_select_charts 0000000180082448     sfc_debug:sfcdebug.obj
 0002:00007450       $chain$2$sf_debug_initialize_debugger_gui 0000000180082450     sfc_debug:sfcdebug.obj
 0002:00007460       $chain$1$sf_debug_initialize_debugger_gui 0000000180082460     sfc_debug:sfcdebug.obj
 0002:00007478       $unwind$sf_debug_initialize_debugger_gui 0000000180082478     sfc_debug:sfcdebug.obj
 0002:00007480       $chain$5$sf_debug_transfer_control_to_debugger_GUI 0000000180082480     sfc_debug:sfcdebug.obj
 0002:00007490       $chain$4$sf_debug_transfer_control_to_debugger_GUI 0000000180082490     sfc_debug:sfcdebug.obj
 0002:000074a0       $chain$3$sf_debug_transfer_control_to_debugger_GUI 00000001800824a0     sfc_debug:sfcdebug.obj
 0002:000074b0       $chain$2$sf_debug_transfer_control_to_debugger_GUI 00000001800824b0     sfc_debug:sfcdebug.obj
 0002:000074c4       $chain$1$sf_debug_transfer_control_to_debugger_GUI 00000001800824c4     sfc_debug:sfcdebug.obj
 0002:000074d8       $chain$0$sf_debug_transfer_control_to_debugger_GUI 00000001800824d8     sfc_debug:sfcdebug.obj
 0002:000074ec       $unwind$sf_debug_transfer_control_to_debugger_GUI 00000001800824ec     sfc_debug:sfcdebug.obj
 0002:000074f8       $unwind$sf_debug_watch_data 00000001800824f8     sfc_debug:sfcdebug.obj
 0002:00007500       $unwind$sf_debug_whos      0000000180082500     sfc_debug:sfcdebug.obj
 0002:00007508       $chain$11$sf_debug_set_breakpoints 0000000180082508     sfc_debug:sfcdebug.obj
 0002:00007518       $chain$4$sf_debug_set_breakpoints 0000000180082518     sfc_debug:sfcdebug.obj
 0002:0000752c       $chain$10$sf_debug_set_breakpoints 000000018008252c     sfc_debug:sfcdebug.obj
 0002:0000753c       $chain$9$sf_debug_set_breakpoints 000000018008253c     sfc_debug:sfcdebug.obj
 0002:00007554       $chain$7$sf_debug_set_breakpoints 0000000180082554     sfc_debug:sfcdebug.obj
 0002:00007570       $chain$2$sf_debug_set_breakpoints 0000000180082570     sfc_debug:sfcdebug.obj
 0002:00007584       $chain$0$sf_debug_set_breakpoints 0000000180082584     sfc_debug:sfcdebug.obj
 0002:00007598       $unwind$sf_debug_set_breakpoints 0000000180082598     sfc_debug:sfcdebug.obj
 0002:000075a4       $chain$5$sf_debug_set_eml_breakpoints 00000001800825a4     sfc_debug:sfcdebug.obj
 0002:000075b4       $chain$4$sf_debug_set_eml_breakpoints 00000001800825b4     sfc_debug:sfcdebug.obj
 0002:000075c4       $chain$3$sf_debug_set_eml_breakpoints 00000001800825c4     sfc_debug:sfcdebug.obj
 0002:000075dc       $chain$1$sf_debug_set_eml_breakpoints 00000001800825dc     sfc_debug:sfcdebug.obj
 0002:000075f4       $unwind$sf_debug_set_eml_breakpoints 00000001800825f4     sfc_debug:sfcdebug.obj
 0002:00007600       $unwind$sf_debug_set_script_breakpoints 0000000180082600     sfc_debug:sfcdebug.obj
 0002:00007618       $unwind$sf_debug_add_script_breakpoints 0000000180082618     sfc_debug:sfcdebug.obj
 0002:00007630       $unwind$sf_debug_clear_script_breakpoints 0000000180082630     sfc_debug:sfcdebug.obj
 0002:00007648       $unwind$sf_debug_query_script_breakpoints 0000000180082648     sfc_debug:sfcdebug.obj
 0002:00007664       $unwind$sf_debug_get_eml_script_id 0000000180082664     sfc_debug:sfcdebug.obj
 0002:00007670       $chain$10$sf_debug_set_watch 0000000180082670     sfc_debug:sfcdebug.obj
 0002:00007688       $chain$9$sf_debug_set_watch 0000000180082688     sfc_debug:sfcdebug.obj
 0002:000076a4       $chain$8$sf_debug_set_watch 00000001800826a4     sfc_debug:sfcdebug.obj
 0002:000076b4       $chain$4$sf_debug_set_watch 00000001800826b4     sfc_debug:sfcdebug.obj
 0002:000076c8       $chain$7$sf_debug_set_watch 00000001800826c8     sfc_debug:sfcdebug.obj
 0002:000076d8       $chain$6$sf_debug_set_watch 00000001800826d8     sfc_debug:sfcdebug.obj
 0002:000076ec       $chain$5$sf_debug_set_watch 00000001800826ec     sfc_debug:sfcdebug.obj
 0002:00007700       $chain$2$sf_debug_set_watch 0000000180082700     sfc_debug:sfcdebug.obj
 0002:00007714       $chain$0$sf_debug_set_watch 0000000180082714     sfc_debug:sfcdebug.obj
 0002:00007728       $unwind$sf_debug_set_watch 0000000180082728     sfc_debug:sfcdebug.obj
 0002:00007734       $chain$1$sf_debug_get_instance_handle 0000000180082734     sfc_debug:sfcdebug.obj
 0002:00007744       $chain$0$sf_debug_get_instance_handle 0000000180082744     sfc_debug:sfcdebug.obj
 0002:00007758       $unwind$sf_debug_get_instance_handle 0000000180082758     sfc_debug:sfcdebug.obj
 0002:00007760       $unwind$sf_debug_animate   0000000180082760     sfc_debug:sfcdebug.obj
 0002:00007768       $unwind$sf_debug_get_state_vectors_data 0000000180082768     sfc_debug:sfcdebug.obj
 0002:00007774       $unwind$sf_debug_set_state_vectors_data 0000000180082774     sfc_debug:sfcdebug.obj
 0002:00007780       $chain$6$sf_debug_scripts_rehash 0000000180082780     sfc_debug:sfcdebug.obj
 0002:00007790       $chain$5$sf_debug_scripts_rehash 0000000180082790     sfc_debug:sfcdebug.obj
 0002:000077a0       $chain$4$sf_debug_scripts_rehash 00000001800827a0     sfc_debug:sfcdebug.obj
 0002:000077bc       $chain$1$sf_debug_scripts_rehash 00000001800827bc     sfc_debug:sfcdebug.obj
 0002:000077d4       $unwind$sf_debug_scripts_rehash 00000001800827d4     sfc_debug:sfcdebug.obj
 0002:000077e0       $unwind$sf_debug_get_script_index 00000001800827e0     sfc_debug:sfcdebug.obj
 0002:000077ec       $unwind$sf_debug_get_script_line_count 00000001800827ec     sfc_debug:sfcdebug.obj
 0002:000077f8       $chain$5$sf_debug_add_script 00000001800827f8     sfc_debug:sfcdebug.obj
 0002:00007818       $chain$1$sf_debug_add_script 0000000180082818     sfc_debug:sfcdebug.obj
 0002:00007830       $unwind$sf_debug_add_script 0000000180082830     sfc_debug:sfcdebug.obj
 0002:0000783c       $chain$5$cv_eval_point     000000018008283c     sfc_debug:sfcdebug.obj
 0002:0000784c       $chain$4$cv_eval_point     000000018008284c     sfc_debug:sfcdebug.obj
 0002:00007860       $chain$2$cv_eval_point     0000000180082860     sfc_debug:sfcdebug.obj
 0002:00007874       $chain$0$cv_eval_point     0000000180082874     sfc_debug:sfcdebug.obj
 0002:00007888       $unwind$cv_eval_point      0000000180082888     sfc_debug:sfcdebug.obj
 0002:00007890       $unwind$cv_eval_testobjective 0000000180082890     sfc_debug:sfcdebug.obj
 0002:00007898       $unwind$sf_debug_cv_init_state 0000000180082898     sfc_debug:sfcdebug.obj
 0002:000078a0       $unwind$sf_debug_cv_init_chart 00000001800828a0     sfc_debug:sfcdebug.obj
 0002:000078a8       $unwind$sf_debug_cv_init_trans 00000001800828a8     sfc_debug:sfcdebug.obj
 0002:000078b0       $unwind$sf_debug_cv_init_saturation 00000001800828b0     sfc_debug:sfcdebug.obj
 0002:000078b8       $unwind$sf_debug_cv_init_testobjectives 00000001800828b8     sfc_debug:sfcdebug.obj
 0002:000078c0       $unwind$cv_eml_state_cvId  00000001800828c0     sfc_debug:sfcdebug.obj
 0002:000078c8       $unwind$cv_eml_trans_cvId  00000001800828c8     sfc_debug:sfcdebug.obj
 0002:000078d0       $unwind$cv_eml_init_script 00000001800828d0     sfc_debug:sfcdebug.obj
 0002:000078d8       $unwind$cv_eml_init_fcn    00000001800828d8     sfc_debug:sfcdebug.obj
 0002:000078e0       $unwind$cv_eml_init_testobjective 00000001800828e0     sfc_debug:sfcdebug.obj
 0002:000078e8       $unwind$cv_eml_init_saturation 00000001800828e8     sfc_debug:sfcdebug.obj
 0002:000078f0       $unwind$cv_eml_init_if     00000001800828f0     sfc_debug:sfcdebug.obj
 0002:000078f8       $unwind$cv_eml_init_for    00000001800828f8     sfc_debug:sfcdebug.obj
 0002:00007900       $unwind$cv_eml_init_while  0000000180082900     sfc_debug:sfcdebug.obj
 0002:00007908       $unwind$cv_eml_init_mcdc   0000000180082908     sfc_debug:sfcdebug.obj
 0002:00007910       $unwind$cv_eml_init_switch 0000000180082910     sfc_debug:sfcdebug.obj
 0002:00007918       $chain$1$cv_eml_eval       0000000180082918     sfc_debug:sfcdebug.obj
 0002:00007928       $chain$0$cv_eml_eval       0000000180082928     sfc_debug:sfcdebug.obj
 0002:0000793c       $unwind$cv_eml_eval        000000018008293c     sfc_debug:sfcdebug.obj
 0002:00007944       $unwind$sf_debug_bm_is_a_eml_breakpoint 0000000180082944     sfc_debug:sfcdebug.obj
 0002:0000794c       $chain$3$sf_debug_temporal_threshold 000000018008294c     sfc_debug:sfcdebug.obj
 0002:0000795c       $chain$2$sf_debug_temporal_threshold 000000018008295c     sfc_debug:sfcdebug.obj
 0002:0000796c       $chain$1$sf_debug_temporal_threshold 000000018008296c     sfc_debug:sfcdebug.obj
 0002:00007980       $chain$0$sf_debug_temporal_threshold 0000000180082980     sfc_debug:sfcdebug.obj
 0002:00007994       $unwind$sf_debug_temporal_threshold 0000000180082994     sfc_debug:sfcdebug.obj
 0002:000079a8       $chain$4$sf_debug_transition_conflict_error 00000001800829a8     sfc_debug:sfcdebug.obj
 0002:000079b8       $chain$3$sf_debug_transition_conflict_error 00000001800829b8     sfc_debug:sfcdebug.obj
 0002:000079c8       $chain$2$sf_debug_transition_conflict_error 00000001800829c8     sfc_debug:sfcdebug.obj
 0002:000079dc       $chain$1$sf_debug_transition_conflict_error 00000001800829dc     sfc_debug:sfcdebug.obj
 0002:000079f4       $unwind$sf_debug_transition_conflict_error 00000001800829f4     sfc_debug:sfcdebug.obj
 0002:00007a0c       $chain$1$sf_debug_state_inconsistency_error 0000000180082a0c     sfc_debug:sfcdebug.obj
 0002:00007a1c       $chain$0$sf_debug_state_inconsistency_error 0000000180082a1c     sfc_debug:sfcdebug.obj
 0002:00007a30       $unwind$sf_debug_state_inconsistency_error 0000000180082a30     sfc_debug:sfcdebug.obj
 0002:00007a38       $unwind$sf_debug_check_for_state_inconsistency 0000000180082a38     sfc_debug:sfcdebug.obj
 0002:00007a40       $chain$1$sf_debug_cycle_detecton_error 0000000180082a40     sfc_debug:sfcdebug.obj
 0002:00007a50       $chain$0$sf_debug_cycle_detecton_error 0000000180082a50     sfc_debug:sfcdebug.obj
 0002:00007a64       $unwind$sf_debug_cycle_detecton_error 0000000180082a64     sfc_debug:sfcdebug.obj
 0002:00007a6c       $chain$1$sf_debug_data_array_bounds_error 0000000180082a6c     sfc_debug:sfcdebug.obj
 0002:00007a7c       $chain$0$sf_debug_data_array_bounds_error 0000000180082a7c     sfc_debug:sfcdebug.obj
 0002:00007a90       $unwind$sf_debug_data_array_bounds_error 0000000180082a90     sfc_debug:sfcdebug.obj
 0002:00007aa8       $chain$1$eml_debug_runtime_error_doclink 0000000180082aa8     sfc_debug:sfcdebug.obj
 0002:00007ab8       $chain$0$eml_debug_runtime_error_doclink 0000000180082ab8     sfc_debug:sfcdebug.obj
 0002:00007acc       $unwind$eml_debug_runtime_error_doclink 0000000180082acc     sfc_debug:sfcdebug.obj
 0002:00007adc       $unwind$sf_debug_runtime_error 0000000180082adc     sfc_debug:sfcdebug.obj
 0002:00007af0       $unwind$sf_debug_matlab_error 0000000180082af0     sfc_debug:sfcdebug.obj
 0002:00007b04       $unwind$sf_debug_size_eq_check_1d 0000000180082b04     sfc_debug:sfcdebug.obj
 0002:00007b0c       $chain$3$sf_debug_size_eq_check_nd 0000000180082b0c     sfc_debug:sfcdebug.obj
 0002:00007b1c       $chain$2$sf_debug_size_eq_check_nd 0000000180082b1c     sfc_debug:sfcdebug.obj
 0002:00007b2c       $chain$1$sf_debug_size_eq_check_nd 0000000180082b2c     sfc_debug:sfcdebug.obj
 0002:00007b40       $chain$0$sf_debug_size_eq_check_nd 0000000180082b40     sfc_debug:sfcdebug.obj
 0002:00007b54       $unwind$sf_debug_size_eq_check_nd 0000000180082b54     sfc_debug:sfcdebug.obj
 0002:00007b70       $unwind$sf_debug_dim_size_eq_check 0000000180082b70     sfc_debug:sfcdebug.obj
 0002:00007b78       $unwind$sf_debug_dim_size_geq_check 0000000180082b78     sfc_debug:sfcdebug.obj
 0002:00007b80       $chain$1$sf_debug_sub_assign_size_check_nd 0000000180082b80     sfc_debug:sfcdebug.obj
 0002:00007b90       $chain$0$sf_debug_sub_assign_size_check_nd 0000000180082b90     sfc_debug:sfcdebug.obj
 0002:00007ba4       $unwind$sf_debug_sub_assign_size_check_nd 0000000180082ba4     sfc_debug:sfcdebug.obj
 0002:00007bc0       $unwind$sf_debug_matrix_matrix_index_check 0000000180082bc0     sfc_debug:sfcdebug.obj
 0002:00007bc8       $unwind$sf_debug_vector_vector_index_check 0000000180082bc8     sfc_debug:sfcdebug.obj
 0002:00007bd0       $unwind$sf_debug_for_loop_vector_check 0000000180082bd0     sfc_debug:sfcdebug.obj
 0002:00007be4       $unwind$sf_debug_runtime_error_msgid 0000000180082be4     sfc_debug:sfcdebug.obj
 0002:00007c00       $chain$1$sf_debug_data_array_bounds_error_check 0000000180082c00     sfc_debug:sfcdebug.obj
 0002:00007c10       $chain$0$sf_debug_data_array_bounds_error_check 0000000180082c10     sfc_debug:sfcdebug.obj
 0002:00007c24       $unwind$sf_debug_data_array_bounds_error_check 0000000180082c24     sfc_debug:sfcdebug.obj
 0002:00007c2c       $chain$6$sf_debug_eml_data_array_bounds_error_check 0000000180082c2c     sfc_debug:sfcdebug.obj
 0002:00007c3c       $chain$5$sf_debug_eml_data_array_bounds_error_check 0000000180082c3c     sfc_debug:sfcdebug.obj
 0002:00007c5c       $chain$2$sf_debug_eml_data_array_bounds_error_check 0000000180082c5c     sfc_debug:sfcdebug.obj
 0002:00007c78       $unwind$sf_debug_eml_data_array_bounds_error_check 0000000180082c78     sfc_debug:sfcdebug.obj
 0002:00007c88       $chain$5$sf_debug_data_value_error 0000000180082c88     sfc_debug:sfcdebug.obj
 0002:00007c98       $chain$4$sf_debug_data_value_error 0000000180082c98     sfc_debug:sfcdebug.obj
 0002:00007ca8       $chain$3$sf_debug_data_value_error 0000000180082ca8     sfc_debug:sfcdebug.obj
 0002:00007cc4       $chain$0$sf_debug_data_value_error 0000000180082cc4     sfc_debug:sfcdebug.obj
 0002:00007cd8       $unwind$sf_debug_data_value_error 0000000180082cd8     sfc_debug:sfcdebug.obj
 0002:00007ce8       $chain$1$sf_debug_integer_check 0000000180082ce8     sfc_debug:sfcdebug.obj
 0002:00007cf8       $chain$0$sf_debug_integer_check 0000000180082cf8     sfc_debug:sfcdebug.obj
 0002:00007d0c       $unwind$sf_debug_integer_check 0000000180082d0c     sfc_debug:sfcdebug.obj
 0002:00007d14       $unwind$sf_debug_not_nan_check 0000000180082d14     sfc_debug:sfcdebug.obj
 0002:00007d1c       $unwind$sf_debug_non_negative_check 0000000180082d1c     sfc_debug:sfcdebug.obj
 0002:00007d24       $chain$6$sf_debug_overflow_detection 0000000180082d24     sfc_debug:sfcdebug.obj
 0002:00007d34       $chain$5$sf_debug_overflow_detection 0000000180082d34     sfc_debug:sfcdebug.obj
 0002:00007d4c       $chain$4$sf_debug_overflow_detection 0000000180082d4c     sfc_debug:sfcdebug.obj
 0002:00007d6c       $chain$0$sf_debug_overflow_detection 0000000180082d6c     sfc_debug:sfcdebug.obj
 0002:00007d80       $unwind$sf_debug_overflow_detection 0000000180082d80     sfc_debug:sfcdebug.obj
 0002:00007d90       $chain$3$sf_debug_data_loss_error 0000000180082d90     sfc_debug:sfcdebug.obj
 0002:00007da0       $chain$2$sf_debug_data_loss_error 0000000180082da0     sfc_debug:sfcdebug.obj
 0002:00007dbc       $unwind$sf_debug_data_loss_error 0000000180082dbc     sfc_debug:sfcdebug.obj
 0002:00007dd0       $unwind$sf_debug_cast_to_real32_T 0000000180082dd0     sfc_debug:sfcdebug.obj
 0002:00007ddc       $unwind$sf_debug_cast_to_int8_T 0000000180082ddc     sfc_debug:sfcdebug.obj
 0002:00007de4       $unwind$sf_debug_cast_to_uint8_T 0000000180082de4     sfc_debug:sfcdebug.obj
 0002:00007dec       $unwind$sf_debug_cast_to_int16_T 0000000180082dec     sfc_debug:sfcdebug.obj
 0002:00007df4       $unwind$sf_debug_cast_to_uint16_T 0000000180082df4     sfc_debug:sfcdebug.obj
 0002:00007dfc       $unwind$sf_debug_cast_to_int32_T 0000000180082dfc     sfc_debug:sfcdebug.obj
 0002:00007e04       $unwind$sf_debug_cast_to_uint32_T 0000000180082e04     sfc_debug:sfcdebug.obj
 0002:00007e0c       $chain$1$sf_debug_data_range_error 0000000180082e0c     sfc_debug:sfcdebug.obj
 0002:00007e1c       $chain$0$sf_debug_data_range_error 0000000180082e1c     sfc_debug:sfcdebug.obj
 0002:00007e30       $unwind$sf_debug_data_range_error 0000000180082e30     sfc_debug:sfcdebug.obj
 0002:00007e48       $unwind$sf_debug_read_before_write_check 0000000180082e48     sfc_debug:sfcdebug.obj
 0002:00007e60       $chain$1$call_cv_range_check 0000000180082e60     sfc_debug:sfcdebug.obj
 0002:00007e70       $chain$0$call_cv_range_check 0000000180082e70     sfc_debug:sfcdebug.obj
 0002:00007e84       $unwind$call_cv_range_check 0000000180082e84     sfc_debug:sfcdebug.obj
 0002:00007e98       $chain$2$sf_debug_data_range_error_wrapper_min_max 0000000180082e98     sfc_debug:sfcdebug.obj
 0002:00007ea8       $chain$1$sf_debug_data_range_error_wrapper_min_max 0000000180082ea8     sfc_debug:sfcdebug.obj
 0002:00007ec0       $unwind$sf_debug_data_range_error_wrapper_min_max 0000000180082ec0     sfc_debug:sfcdebug.obj
 0002:00007ed4       $chain$2$sf_debug_data_range_error_wrapper_min 0000000180082ed4     sfc_debug:sfcdebug.obj
 0002:00007ee4       $chain$1$sf_debug_data_range_error_wrapper_min 0000000180082ee4     sfc_debug:sfcdebug.obj
 0002:00007efc       $unwind$sf_debug_data_range_error_wrapper_min 0000000180082efc     sfc_debug:sfcdebug.obj
 0002:00007f10       $chain$2$sf_debug_data_range_error_wrapper_max 0000000180082f10     sfc_debug:sfcdebug.obj
 0002:00007f20       $chain$1$sf_debug_data_range_error_wrapper_max 0000000180082f20     sfc_debug:sfcdebug.obj
 0002:00007f38       $unwind$sf_debug_data_range_error_wrapper_max 0000000180082f38     sfc_debug:sfcdebug.obj
 0002:00007f4c       $chain$1$sf_debug_data_range_wrapper 0000000180082f4c     sfc_debug:sfcdebug.obj
 0002:00007f5c       $chain$0$sf_debug_data_range_wrapper 0000000180082f5c     sfc_debug:sfcdebug.obj
 0002:00007f70       $unwind$sf_debug_data_range_wrapper 0000000180082f70     sfc_debug:sfcdebug.obj
 0002:00007f78       $unwind$sf_debug_set_current_status_info 0000000180082f78     sfc_debug:sfcdebug.obj
 0002:00007f94       $unwind$sf_debug_invoke_cycle_detection_code 0000000180082f94     sfc_debug:sfcdebug.obj
 0002:00007fa0       $unwind$sf_debug_register_message_post_receive_info 0000000180082fa0     sfc_debug:sfcdebug.obj
 0002:00007fb8       $chain$7$sf_debug_call     0000000180082fb8     sfc_debug:sfcdebug.obj
 0002:00007fd8       $chain$5$sf_debug_call     0000000180082fd8     sfc_debug:sfcdebug.obj
 0002:00007fe8       $chain$4$sf_debug_call     0000000180082fe8     sfc_debug:sfcdebug.obj
 0002:00007ffc       $chain$3$sf_debug_call     0000000180082ffc     sfc_debug:sfcdebug.obj
 0002:0000801c       $unwind$sf_debug_call      000000018008301c     sfc_debug:sfcdebug.obj
 0002:0000802c       $chain$1$sf_reset_debug_info_struct 000000018008302c     sfc_debug:sfcdebug.obj
 0002:0000803c       $chain$0$sf_reset_debug_info_struct 000000018008303c     sfc_debug:sfcdebug.obj
 0002:00008050       $unwind$sf_reset_debug_info_struct 0000000180083050     sfc_debug:sfcdebug.obj
 0002:00008058       $unwind$sf_debug_initialize_machine 0000000180083058     sfc_debug:sfcdebug.obj
 0002:00008070       $chain$4$sf_debug_initialize_chart 0000000180083070     sfc_debug:sfcdebug.obj
 0002:00008080       $chain$3$sf_debug_initialize_chart 0000000180083080     sfc_debug:sfcdebug.obj
 0002:000080a0       $unwind$sf_debug_initialize_chart 00000001800830a0     sfc_debug:sfcdebug.obj
 0002:000080b0       $unwind$sf_debug_ensure_script 00000001800830b0     sfc_debug:sfcdebug.obj
 0002:000080b8       $unwind$cv_script_cvId     00000001800830b8     sfc_debug:sfcdebug.obj
 0002:000080c0       $chain$3$cv_eval_saturation 00000001800830c0     sfc_debug:sfcdebug.obj
 0002:000080d0       $chain$2$cv_eval_saturation 00000001800830d0     sfc_debug:sfcdebug.obj
 0002:000080e4       $chain$0$cv_eval_saturation 00000001800830e4     sfc_debug:sfcdebug.obj
 0002:000080f8       $unwind$cv_eval_saturation 00000001800830f8     sfc_debug:sfcdebug.obj
 0002:00008108       $chain$1$cv_saturation_accum 0000000180083108     sfc_debug:sfcdebug.obj
 0002:00008118       $chain$0$cv_saturation_accum 0000000180083118     sfc_debug:sfcdebug.obj
 0002:0000812c       $unwind$cv_saturation_accum 000000018008312c     sfc_debug:sfcdebug.obj
 0002:0000813c       $unwind$cv_script_init_script 000000018008313c     sfc_debug:sfcdebug.obj
 0002:00008144       $unwind$cv_script_init_fcn 0000000180083144     sfc_debug:sfcdebug.obj
 0002:0000814c       $unwind$cv_script_init_testobjective 000000018008314c     sfc_debug:sfcdebug.obj
 0002:00008154       $unwind$cv_script_init_saturation 0000000180083154     sfc_debug:sfcdebug.obj
 0002:0000815c       $unwind$cv_script_init_if  000000018008315c     sfc_debug:sfcdebug.obj
 0002:00008164       $unwind$cv_script_init_for 0000000180083164     sfc_debug:sfcdebug.obj
 0002:0000816c       $unwind$cv_script_init_while 000000018008316c     sfc_debug:sfcdebug.obj
 0002:00008174       $unwind$cv_script_init_mcdc 0000000180083174     sfc_debug:sfcdebug.obj
 0002:0000817c       $unwind$cv_script_init_switch 000000018008317c     sfc_debug:sfcdebug.obj
 0002:00008184       $chain$1$cv_script_eval    0000000180083184     sfc_debug:sfcdebug.obj
 0002:00008194       $chain$0$cv_script_eval    0000000180083194     sfc_debug:sfcdebug.obj
 0002:000081a8       $unwind$cv_script_eval     00000001800831a8     sfc_debug:sfcdebug.obj
 0002:000081b0       $chain$2$eml_debug_line_call 00000001800831b0     sfc_debug:sfcdebug.obj
 0002:000081c0       $chain$1$eml_debug_line_call 00000001800831c0     sfc_debug:sfcdebug.obj
 0002:000081d8       $unwind$eml_debug_line_call 00000001800831d8     sfc_debug:sfcdebug.obj
 0002:000081ec       $chain$4$sf_debug_terminate 00000001800831ec     sfc_debug:sfcdebug.obj
 0002:000081fc       $chain$3$sf_debug_terminate 00000001800831fc     sfc_debug:sfcdebug.obj
 0002:0000820c       $chain$2$sf_debug_terminate 000000018008320c     sfc_debug:sfcdebug.obj
 0002:00008220       $chain$1$sf_debug_terminate 0000000180083220     sfc_debug:sfcdebug.obj
 0002:00008238       $unwind$sf_debug_terminate 0000000180083238     sfc_debug:sfcdebug.obj
 0002:00008244       $unwind$sf_debug_set_script_cv_ids 0000000180083244     sfc_debug:sfcdebug.obj
 0002:0000825c       $chain$6$sf_debug_api      000000018008325c     sfc_debug:sfc_api.obj
 0002:0000826c       $chain$5$sf_debug_api      000000018008326c     sfc_debug:sfc_api.obj
 0002:00008280       $chain$4$sf_debug_api      0000000180083280     sfc_debug:sfc_api.obj
 0002:0000829c       $chain$0$sf_debug_api      000000018008329c     sfc_debug:sfc_api.obj
 0002:000082b0       $unwind$sf_debug_api       00000001800832b0     sfc_debug:sfc_api.obj
 0002:000082c0       $unwind$sfc_api_chart_visible 00000001800832c0     sfc_debug:sfc_api.obj
 0002:000082d4       $unwind$sfc_api_active_instance 00000001800832d4     sfc_debug:sfc_api.obj
 0002:000082e8       $unwind$sfc_api_machine_load 00000001800832e8     sfc_debug:sfc_api.obj
 0002:00008300       $unwind$sfc_api_stop_debugging 0000000180083300     sfc_debug:sfc_api.obj
 0002:00008310       $unwind$sfc_api_is_cycle_detected 0000000180083310     sfc_debug:sfc_api.obj
 0002:00008320       $unwind$sfc_api_is_array_bounds_detected 0000000180083320     sfc_debug:sfc_api.obj
 0002:00008330       $unwind$sfc_api_set_disable_all_breakpoints 0000000180083330     sfc_debug:sfc_api.obj
 0002:0000833c       $unwind$sfc_api_browse_data 000000018008333c     sfc_debug:sfc_api.obj
 0002:00008350       $unwind$sfc_api_watch_data 0000000180083350     sfc_debug:sfc_api.obj
 0002:00008370       $unwind$sfc_api_extract_message_post_receive_info 0000000180083370     sfc_debug:sfc_api.obj
 0002:00008378       $unwind$sfc_api_assign_data 0000000180083378     sfc_debug:sfc_api.obj
 0002:00008390       $unwind$sfc_api_whos       0000000180083390     sfc_debug:sfc_api.obj
 0002:000083a4       $unwind$sfc_api_break_on_chart_entry 00000001800833a4     sfc_debug:sfc_api.obj
 0002:000083ac       $unwind$sfc_api_break_on_event_broadcast 00000001800833ac     sfc_debug:sfc_api.obj
 0002:000083b4       $unwind$sfc_api_break_on_state_entry 00000001800833b4     sfc_debug:sfc_api.obj
 0002:000083bc       $unwind$sfc_api_set_watch  00000001800833bc     sfc_debug:sfc_api.obj
 0002:000083d4       $unwind$sfc_api_set_breakpoints 00000001800833d4     sfc_debug:sfc_api.obj
 0002:000083ec       $unwind$sfc_api_set_eml_breakpoints 00000001800833ec     sfc_debug:sfc_api.obj
 0002:00008400       $unwind$sfc_api_set_script_breakpoints 0000000180083400     sfc_debug:sfc_api.obj
 0002:0000840c       $unwind$sfc_api_add_script_breakpoints 000000018008340c     sfc_debug:sfc_api.obj
 0002:00008418       $unwind$sfc_api_clear_script_breakpoints 0000000180083418     sfc_debug:sfc_api.obj
 0002:00008424       $unwind$sfc_api_query_script_breakpoints 0000000180083424     sfc_debug:sfc_api.obj
 0002:00008434       $unwind$sfc_api_get_script_id 0000000180083434     sfc_debug:sfc_api.obj
 0002:0000844c       $unwind$sfc_api_get_active_states 000000018008344c     sfc_debug:sfc_api.obj
 0002:0000845c       $unwind$sfc_api_break_between_times 000000018008345c     sfc_debug:sfc_api.obj
 0002:0000846c       $unwind$sfc_api_get_instance_handle 000000018008346c     sfc_debug:sfc_api.obj
 0002:00008484       $unwind$sfc_api_set_animation 0000000180083484     sfc_debug:sfc_api.obj
 0002:0000848c       $unwind$sfc_api_select_chart 000000018008348c     sfc_debug:sfc_api.obj
 0002:0000849c       $unwind$sfc_api_select_charts 000000018008349c     sfc_debug:sfc_api.obj
 0002:000084a4       $unwind$sfc_api_cycle_detection_check 00000001800834a4     sfc_debug:sfc_api.obj
 0002:000084ac       $unwind$sfc_api_data_range_check 00000001800834ac     sfc_debug:sfc_api.obj
 0002:000084b4       $unwind$sfc_api_transition_conflict_check 00000001800834b4     sfc_debug:sfc_api.obj
 0002:000084bc       $unwind$sfc_api_state_consistency_check 00000001800834bc     sfc_debug:sfc_api.obj
 0002:000084c4       $unwind$sfc_api_set_instance_cv_ids 00000001800834c4     sfc_debug:sfc_api.obj
 0002:000084e0       $unwind$sfc_api_set_script_cv_ids 00000001800834e0     sfc_debug:sfc_api.obj
 0002:000084f8       $unwind$sfc_api_get_current_machine_id 00000001800834f8     sfc_debug:sfc_api.obj
 0002:00008500       $unwind$sfc_api_get_current_machine_number 0000000180083500     sfc_debug:sfc_api.obj
 0002:00008508       $unwind$sfc_api_get_current_chart_number 0000000180083508     sfc_debug:sfc_api.obj
 0002:00008510       $unwind$sfc_api_get_current_instance_number 0000000180083510     sfc_debug:sfc_api.obj
 0002:00008518       $unwind$sfc_api_get_current_instance_handle 0000000180083518     sfc_debug:sfc_api.obj
 0002:00008520       $unwind$sfc_api_get_current_is_minor_time_step 0000000180083520     sfc_debug:sfc_api.obj
 0002:00008528       $unwind$sfc_api_get_current_machine_name 0000000180083528     sfc_debug:sfc_api.obj
 0002:00008530       $unwind$sfc_api_get_current_chart_id 0000000180083530     sfc_debug:sfc_api.obj
 0002:00008538       $unwind$sfc_api_get_current_object_type 0000000180083538     sfc_debug:sfc_api.obj
 0002:00008540       $unwind$sfc_api_get_current_event_type 0000000180083540     sfc_debug:sfc_api.obj
 0002:00008548       $unwind$sfc_api_get_current_object_id 0000000180083548     sfc_debug:sfc_api.obj
 0002:00008550       $unwind$sfc_get_current_active_event_type 0000000180083550     sfc_debug:sfc_api.obj
 0002:00008558       $unwind$sfc_api_get_current_active_event_id 0000000180083558     sfc_debug:sfc_api.obj
 0002:00008560       $unwind$sfc_api_get_current_simulation_time 0000000180083560     sfc_debug:sfc_api.obj
 0002:00008568       $unwind$sfc_get_current_tag_type 0000000180083568     sfc_debug:sfc_api.obj
 0002:00008570       $unwind$sfc_get_current_coverage_percentage 0000000180083570     sfc_debug:sfc_api.obj
 0002:00008578       $unwind$sfc_get_current_statement_context 0000000180083578     sfc_debug:sfc_api.obj
 0002:00008580       $unwind$sfc_get_current_optional_integer 0000000180083580     sfc_debug:sfc_api.obj
 0002:00008588       $unwind$sfc_get_current_statement_info 0000000180083588     sfc_debug:sfc_api.obj
 0002:00008594       $chain$4$sfc_api_get       0000000180083594     sfc_debug:sfc_api.obj
 0002:000085a4       $chain$3$sfc_api_get       00000001800835a4     sfc_debug:sfc_api.obj
 0002:000085c4       $unwind$sfc_api_get        00000001800835c4     sfc_debug:sfc_api.obj
 0002:000085dc       $chain$8$sf_debug_sm_terminate 00000001800835dc     sfc_debug:sfdb_animation.obj
 0002:000085ec       $chain$7$sf_debug_sm_terminate 00000001800835ec     sfc_debug:sfdb_animation.obj
 0002:0000861c       $unwind$sf_debug_sm_terminate 000000018008361c     sfc_debug:sfdb_animation.obj
 0002:00008624       $unwind$sf_debug_reset_path_objects 0000000180083624     sfc_debug:sfdb_animation.obj
 0002:0000862c       $unwind$sf_debug_sm_reset_object_selection_status 000000018008362c     sfc_debug:sfdb_animation.obj
 0002:00008638       $unwind$sf_debug_sm_reset_state_buffer 0000000180083638     sfc_debug:sfdb_animation.obj
 0002:00008644       $chain$8$sf_debug_sm_select_active_objects 0000000180083644     sfc_debug:sfdb_animation.obj
 0002:00008654       $chain$7$sf_debug_sm_select_active_objects 0000000180083654     sfc_debug:sfdb_animation.obj
 0002:00008664       $chain$6$sf_debug_sm_select_active_objects 0000000180083664     sfc_debug:sfdb_animation.obj
 0002:00008678       $chain$5$sf_debug_sm_select_active_objects 0000000180083678     sfc_debug:sfdb_animation.obj
 0002:0000869c       $chain$0$sf_debug_sm_select_active_objects 000000018008369c     sfc_debug:sfdb_animation.obj
 0002:000086b0       $unwind$sf_debug_sm_select_active_objects 00000001800836b0     sfc_debug:sfdb_animation.obj
 0002:000086c0       $chain$1$sf_debug_sm_fill_state_activity_data 00000001800836c0     sfc_debug:sfdb_animation.obj
 0002:000086d0       $chain$0$sf_debug_sm_fill_state_activity_data 00000001800836d0     sfc_debug:sfdb_animation.obj
 0002:000086e4       $unwind$sf_debug_sm_fill_state_activity_data 00000001800836e4     sfc_debug:sfdb_animation.obj
 0002:000086fc       $chain$6$sf_debug_sm_get_active_states 00000001800836fc     sfc_debug:sfdb_animation.obj
 0002:0000870c       $chain$5$sf_debug_sm_get_active_states 000000018008370c     sfc_debug:sfdb_animation.obj
 0002:0000872c       $chain$1$sf_debug_sm_get_active_states 000000018008372c     sfc_debug:sfdb_animation.obj
 0002:00008744       $unwind$sf_debug_sm_get_active_states 0000000180083744     sfc_debug:sfdb_animation.obj
 0002:00008754       $unwind$sf_debug_sm_initialize_instance 0000000180083754     sfc_debug:sfdb_animation.obj
 0002:00008764       $chain$1$sf_debug_sm_change_object_selection_status 0000000180083764     sfc_debug:sfdb_animation.obj
 0002:00008774       $chain$0$sf_debug_sm_change_object_selection_status 0000000180083774     sfc_debug:sfdb_animation.obj
 0002:00008788       $unwind$sf_debug_sm_change_object_selection_status 0000000180083788     sfc_debug:sfdb_animation.obj
 0002:0000879c       $chain$1$cv_create_interface 000000018008379c     sfc_debug:cv_sfinterface.obj
 0002:000087ac       $chain$0$cv_create_interface 00000001800837ac     sfc_debug:cv_sfinterface.obj
 0002:000087c0       $unwind$cv_create_interface 00000001800837c0     sfc_debug:cv_sfinterface.obj
 0002:000087d4       $unwind$cv_init_trans      00000001800837d4     sfc_debug:cv_sfinterface.obj
 0002:000087dc       $unwind$cv_init_saturation 00000001800837dc     sfc_debug:cv_sfinterface.obj
 0002:000087e4       $unwind$cv_init_testobjective 00000001800837e4     sfc_debug:cv_sfinterface.obj
 0002:000087ec       $unwind$cv_init_state      00000001800837ec     sfc_debug:cv_sfinterface.obj
 0002:000087f4       $unwind$cv_init_chart      00000001800837f4     sfc_debug:cv_sfinterface.obj
 0002:000087fc       $unwind$cv_dec_update_call 00000001800837fc     sfc_debug:cv_sfinterface.obj
 0002:00008804       $unwind$cv_cond_update_call 0000000180083804     sfc_debug:cv_sfinterface.obj
 0002:0000880c       $unwind$cv_saturation_update_call 000000018008380c     sfc_debug:cv_sfinterface.obj
 0002:00008814       $unwind$cv_saturation_update_accum 0000000180083814     sfc_debug:cv_sfinterface.obj
 0002:0000881c       $unwind$cv_testobjective_update_call 000000018008381c     sfc_debug:cv_sfinterface.obj
 0002:00008824       $unwind$cv_sigrange_update 0000000180083824     sfc_debug:cv_sfinterface.obj
 0002:0000882c       $unwind$cvsf_eml_eval      000000018008382c     sfc_debug:cv_sfinterface.obj
 0002:00008834       $unwind$cvsf_eml_init_script 0000000180083834     sfc_debug:cv_sfinterface.obj
 0002:0000883c       $unwind$cvsf_eml_init_fcn  000000018008383c     sfc_debug:cv_sfinterface.obj
 0002:00008844       $unwind$cvsf_eml_init_testobjective 0000000180083844     sfc_debug:cv_sfinterface.obj
 0002:0000884c       $unwind$cvsf_eml_init_saturation 000000018008384c     sfc_debug:cv_sfinterface.obj
 0002:00008854       $unwind$cvsf_eml_init_if   0000000180083854     sfc_debug:cv_sfinterface.obj
 0002:0000885c       $unwind$cvsf_eml_init_for  000000018008385c     sfc_debug:cv_sfinterface.obj
 0002:00008864       $unwind$cvsf_eml_init_while 0000000180083864     sfc_debug:cv_sfinterface.obj
 0002:0000886c       $unwind$cvsf_eml_init_mcdc 000000018008386c     sfc_debug:cv_sfinterface.obj
 0002:00008874       $unwind$cvsf_eml_init_switch 0000000180083874     sfc_debug:cv_sfinterface.obj
 0002:0000887c       $unwind$cvsf_script_eval   000000018008387c     sfc_debug:cv_sfinterface.obj
 0002:00008884       $unwind$cvsf_script_init_script 0000000180083884     sfc_debug:cv_sfinterface.obj
 0002:0000888c       $unwind$cvsf_script_init_fcn 000000018008388c     sfc_debug:cv_sfinterface.obj
 0002:00008894       $unwind$cvsf_script_init_testobjective 0000000180083894     sfc_debug:cv_sfinterface.obj
 0002:0000889c       $unwind$cvsf_script_init_saturation 000000018008389c     sfc_debug:cv_sfinterface.obj
 0002:000088a4       $unwind$cvsf_script_init_if 00000001800838a4     sfc_debug:cv_sfinterface.obj
 0002:000088ac       $unwind$cvsf_script_init_for 00000001800838ac     sfc_debug:cv_sfinterface.obj
 0002:000088b4       $unwind$cvsf_script_init_while 00000001800838b4     sfc_debug:cv_sfinterface.obj
 0002:000088bc       $unwind$cvsf_script_init_mcdc 00000001800838bc     sfc_debug:cv_sfinterface.obj
 0002:000088c4       $unwind$cvsf_script_init_switch 00000001800838c4     sfc_debug:cv_sfinterface.obj
 0002:000088cc       $unwind$cv_create_instance_objects 00000001800838cc     sfc_debug:cv_sfinterface.obj
 0002:000088e8       $unwind$sf_debug_cv_initialize_script 00000001800838e8     sfc_debug:cv_sfinterface.obj
 0002:000088f8       $unwind$sf_debug_cv_initialize_instance 00000001800838f8     sfc_debug:cv_sfinterface.obj
 0002:00008914       $chain$2$sf_debug_cv_terminate_chart 0000000180083914     sfc_debug:cv_sfinterface.obj
 0002:00008924       $chain$1$sf_debug_cv_terminate_chart 0000000180083924     sfc_debug:cv_sfinterface.obj
 0002:0000893c       $unwind$sf_debug_cv_terminate_chart 000000018008393c     sfc_debug:cv_sfinterface.obj
 0002:00008950       $unwind$cv_call_sub_cond_test 0000000180083950     sfc_debug:cv_sfinterface.obj
 0002:00008958       $unwind$sf_debug_st_initialize_machine 0000000180083958     sfc_debug:sfdb_data_browse.obj
 0002:00008964       $unwind$sf_debug_st_initialize_instance 0000000180083964     sfc_debug:sfdb_data_browse.obj
 0002:00008978       $chain$3$void_ptr_stack_vector_free_total 0000000180083978     sfc_debug:sfdb_data_browse.obj
 0002:00008988       $chain$2$void_ptr_stack_vector_free_total 0000000180083988     sfc_debug:sfdb_data_browse.obj
 0002:00008998       $chain$1$void_ptr_stack_vector_free_total 0000000180083998     sfc_debug:sfdb_data_browse.obj
 0002:000089ac       $chain$0$void_ptr_stack_vector_free_total 00000001800839ac     sfc_debug:sfdb_data_browse.obj
 0002:000089c0       $unwind$void_ptr_stack_vector_free_total 00000001800839c0     sfc_debug:sfdb_data_browse.obj
 0002:000089cc       $unwind$sf_debug_st_terminate_machine 00000001800839cc     sfc_debug:sfdb_data_browse.obj
 0002:000089d4       $unwind$sf_debug_st_terminate_instance 00000001800839d4     sfc_debug:sfdb_data_browse.obj
 0002:000089dc       $chain$7$sf_debug_st_terminate 00000001800839dc     sfc_debug:sfdb_data_browse.obj
 0002:000089ec       $chain$6$sf_debug_st_terminate 00000001800839ec     sfc_debug:sfdb_data_browse.obj
 0002:00008a18       $unwind$sf_debug_st_terminate 0000000180083a18     sfc_debug:sfdb_data_browse.obj
 0002:00008a20       $unwind$push_on_to_void_ptr_stack 0000000180083a20     sfc_debug:sfdb_data_browse.obj
 0002:00008a30       $unwind$sf_debug_st_set_data_value_ptr_in_machine 0000000180083a30     sfc_debug:sfdb_data_browse.obj
 0002:00008a40       $unwind$sf_debug_st_set_data_value_ptr_in_instance 0000000180083a40     sfc_debug:sfdb_data_browse.obj
 0002:00008a4c       $unwind$pop_from_void_ptr_stack 0000000180083a4c     sfc_debug:sfdb_data_browse.obj
 0002:00008a54       $unwind$sf_debug_st_unset_data_value_ptr_in_machine 0000000180083a54     sfc_debug:sfdb_data_browse.obj
 0002:00008a60       $unwind$sf_debug_st_unset_data_value_ptr_in_instance 0000000180083a60     sfc_debug:sfdb_data_browse.obj
 0002:00008a6c       $chain$3$sf_debug_st_get_data_value 0000000180083a6c     sfc_debug:sfdb_data_browse.obj
 0002:00008a84       $chain$2$sf_debug_st_get_data_value 0000000180083a84     sfc_debug:sfdb_data_browse.obj
 0002:00008a98       $chain$1$sf_debug_st_get_data_value 0000000180083a98     sfc_debug:sfdb_data_browse.obj
 0002:00008ab0       $unwind$sf_debug_st_get_data_value 0000000180083ab0     sfc_debug:sfdb_data_browse.obj
 0002:00008ac0       $unwind$sf_debug_mx_value  0000000180083ac0     sfc_debug:sfdb_data_browse.obj
 0002:00008acc       $chain$3$sf_debug_mx_packed_vector 0000000180083acc     sfc_debug:sfdb_data_browse.obj
 0002:00008adc       $chain$2$sf_debug_mx_packed_vector 0000000180083adc     sfc_debug:sfdb_data_browse.obj
 0002:00008af8       $unwind$sf_debug_mx_packed_vector 0000000180083af8     sfc_debug:sfdb_data_browse.obj
 0002:00008b08       $chain$3$sf_debug_mx_uint_vector 0000000180083b08     sfc_debug:sfdb_data_browse.obj
 0002:00008b18       $chain$2$sf_debug_mx_uint_vector 0000000180083b18     sfc_debug:sfdb_data_browse.obj
 0002:00008b34       $unwind$sf_debug_mx_uint_vector 0000000180083b34     sfc_debug:sfdb_data_browse.obj
 0002:00008b44       $unwind$sf_debug_st_get_double_value_from_void_ptr_vector 0000000180083b44     sfc_debug:sfdb_data_browse.obj
 0002:00008b64       $unwind$mx_value           0000000180083b64     sfc_debug:sfdb_data_browse.obj
 0002:00008b70       $unwind$sf_debug_st_fill_data_struct 0000000180083b70     sfc_debug:sfdb_data_browse.obj
 0002:00008b90       $unwind$data_type_format_strings 0000000180083b90     sfc_debug:sfdb_data_browse.obj
 0002:00008b98       $chain$11$sf_debug_st_fill_data 0000000180083b98     sfc_debug:sfdb_data_browse.obj
 0002:00008ba8       $chain$10$sf_debug_st_fill_data 0000000180083ba8     sfc_debug:sfdb_data_browse.obj
 0002:00008bd8       $chain$8$sf_debug_st_fill_data 0000000180083bd8     sfc_debug:sfdb_data_browse.obj
 0002:00008be8       $chain$7$sf_debug_st_fill_data 0000000180083be8     sfc_debug:sfdb_data_browse.obj
 0002:00008c10       $chain$1$sf_debug_st_fill_data 0000000180083c10     sfc_debug:sfdb_data_browse.obj
 0002:00008c28       $unwind$sf_debug_st_fill_data 0000000180083c28     sfc_debug:sfdb_data_browse.obj
 0002:00008c38       $chain$6$sf_debug_st_browse_data 0000000180083c38     sfc_debug:sfdb_data_browse.obj
 0002:00008c48       $chain$5$sf_debug_st_browse_data 0000000180083c48     sfc_debug:sfdb_data_browse.obj
 0002:00008c6c       $chain$0$sf_debug_st_browse_data 0000000180083c6c     sfc_debug:sfdb_data_browse.obj
 0002:00008c80       $unwind$sf_debug_st_browse_data 0000000180083c80     sfc_debug:sfdb_data_browse.obj
 0002:00008c90       $chain$3$sf_debug_hm_get_simulink_handle 0000000180083c90     sfc_debug:sfdb_handle_management.obj
 0002:00008ca0       $chain$2$sf_debug_hm_get_simulink_handle 0000000180083ca0     sfc_debug:sfdb_handle_management.obj
 0002:00008cb4       $chain$1$sf_debug_hm_get_simulink_handle 0000000180083cb4     sfc_debug:sfdb_handle_management.obj
 0002:00008cc4       $chain$0$sf_debug_hm_get_simulink_handle 0000000180083cc4     sfc_debug:sfdb_handle_management.obj
 0002:00008cd8       $unwind$sf_debug_hm_get_simulink_handle 0000000180083cd8     sfc_debug:sfdb_handle_management.obj
 0002:00008ce0       $chain$6$sf_debug_hm_initialize_instance 0000000180083ce0     sfc_debug:sfdb_handle_management.obj
 0002:00008cf0       $chain$5$sf_debug_hm_initialize_instance 0000000180083cf0     sfc_debug:sfdb_handle_management.obj
 0002:00008d04       $chain$4$sf_debug_hm_initialize_instance 0000000180083d04     sfc_debug:sfdb_handle_management.obj
 0002:00008d14       $chain$3$sf_debug_hm_initialize_instance 0000000180083d14     sfc_debug:sfdb_handle_management.obj
 0002:00008d28       $chain$2$sf_debug_hm_initialize_instance 0000000180083d28     sfc_debug:sfdb_handle_management.obj
 0002:00008d44       $unwind$sf_debug_hm_initialize_instance 0000000180083d44     sfc_debug:sfdb_handle_management.obj
 0002:00008d50       $unwind$sf_debug_hm_get_object_id 0000000180083d50     sfc_debug:sfdb_handle_management.obj
 0002:00008d5c       $unwind$sf_debug_hm_initialize_globals 0000000180083d5c     sfc_debug:sfdb_handle_management.obj
 0002:00008d64       $unwind$sf_debug_hm_get_machine_debug_flag 0000000180083d64     sfc_debug:sfdb_handle_management.obj
 0002:00008d70       $unwind$sf_debug_hm_get_machine_id 0000000180083d70     sfc_debug:sfdb_handle_management.obj
 0002:00008d7c       $unwind$sf_debug_hm_get_chart_id 0000000180083d7c     sfc_debug:sfdb_handle_management.obj
 0002:00008d88       $unwind$sf_debug_hm_register_executing_SFunction 0000000180083d88     sfc_debug:sfdb_handle_management.obj
 0002:00008d98       $unwind$sf_debug_hm_update_chart_visibility 0000000180083d98     sfc_debug:sfdb_handle_management.obj
 0002:00008db0       $chain$3$sf_debug_hm_form_object_boolean_properties 0000000180083db0     sfc_debug:sfdb_handle_management.obj
 0002:00008dc0       $chain$2$sf_debug_hm_form_object_boolean_properties 0000000180083dc0     sfc_debug:sfdb_handle_management.obj
 0002:00008dd0       $chain$1$sf_debug_hm_form_object_boolean_properties 0000000180083dd0     sfc_debug:sfdb_handle_management.obj
 0002:00008de4       $chain$0$sf_debug_hm_form_object_boolean_properties 0000000180083de4     sfc_debug:sfdb_handle_management.obj
 0002:00008df8       $unwind$sf_debug_hm_form_object_boolean_properties 0000000180083df8     sfc_debug:sfdb_handle_management.obj
 0002:00008e08       $unwind$sf_debug_hm_form_object_properties 0000000180083e08     sfc_debug:sfdb_handle_management.obj
 0002:00008e1c       $chain$5$sf_debug_hm_terminate_charts 0000000180083e1c     sfc_debug:sfdb_handle_management.obj
 0002:00008e2c       $chain$4$sf_debug_hm_terminate_charts 0000000180083e2c     sfc_debug:sfdb_handle_management.obj
 0002:00008e50       $unwind$sf_debug_hm_terminate_charts 0000000180083e50     sfc_debug:sfdb_handle_management.obj
 0002:00008e5c       $chain$4$sf_debug_hm_terminate_machines 0000000180083e5c     sfc_debug:sfdb_handle_management.obj
 0002:00008e6c       $chain$3$sf_debug_hm_terminate_machines 0000000180083e6c     sfc_debug:sfdb_handle_management.obj
 0002:00008e8c       $unwind$sf_debug_hm_terminate_machines 0000000180083e8c     sfc_debug:sfdb_handle_management.obj
 0002:00008e98       $unwind$sf_debug_object_is_eml_function 0000000180083e98     sfc_debug:sfdb_handle_management.obj
 0002:00008ea0       $unwind$sf_debug_hm_initialize_ids_in_machine 0000000180083ea0     sfc_debug:sfdb_handle_management.obj
 0002:00008eb0       $unwind$sf_debug_hm_initialize_ids_in_chart 0000000180083eb0     sfc_debug:sfdb_handle_management.obj
 0002:00008eb8       $chain$5$sf_debug_hm_initialize_chart 0000000180083eb8     sfc_debug:sfdb_handle_management.obj
 0002:00008ec8       $chain$4$sf_debug_hm_initialize_chart 0000000180083ec8     sfc_debug:sfdb_handle_management.obj
 0002:00008ed8       $chain$3$sf_debug_hm_initialize_chart 0000000180083ed8     sfc_debug:sfdb_handle_management.obj
 0002:00008ee8       $chain$2$sf_debug_hm_initialize_chart 0000000180083ee8     sfc_debug:sfdb_handle_management.obj
 0002:00008efc       $chain$1$sf_debug_hm_initialize_chart 0000000180083efc     sfc_debug:sfdb_handle_management.obj
 0002:00008f10       $chain$0$sf_debug_hm_initialize_chart 0000000180083f10     sfc_debug:sfdb_handle_management.obj
 0002:00008f24       $unwind$sf_debug_hm_initialize_chart 0000000180083f24     sfc_debug:sfdb_handle_management.obj
 0002:00008f34       $unwind$sf_debug_hm_terminate 0000000180083f34     sfc_debug:sfdb_handle_management.obj
 0002:00008f3c       $unwind$sf_debug_hm_initialize_machine 0000000180083f3c     sfc_debug:sfdb_handle_management.obj
 0002:00008f58       $unwind$sf_debug_ss_terminate 0000000180083f58     sfc_debug:sfdb_symbol_scope.obj
 0002:00008f68       $unwind$sf_debug_ss_push_symbol_scope 0000000180083f68     sfc_debug:sfdb_symbol_scope.obj
 0002:00008f80       $unwind$sf_debug_ss_push_symbol_scope_eml 0000000180083f80     sfc_debug:sfdb_symbol_scope.obj
 0002:00008f8c       $unwind$sf_debug_ss_pop_symbol_scope 0000000180083f8c     sfc_debug:sfdb_symbol_scope.obj
 0002:00008f98       $unwind$sf_debug_ss_add_symbol 0000000180083f98     sfc_debug:sfdb_symbol_scope.obj
 0002:00008fb0       $unwind$sf_debug_ss_add_symbol_eml 0000000180083fb0     sfc_debug:sfdb_symbol_scope.obj
 0002:00008fc8       $unwind$sf_debug_ss_copy_dimension 0000000180083fc8     sfc_debug:sfdb_symbol_scope.obj
 0002:00008fd8       $chain$8$sf_debug_ss_fill_data_struct 0000000180083fd8     sfc_debug:sfdb_symbol_scope.obj
 0002:00008fe8       $chain$7$sf_debug_ss_fill_data_struct 0000000180083fe8     sfc_debug:sfdb_symbol_scope.obj
 0002:00008ff8       $chain$6$sf_debug_ss_fill_data_struct 0000000180083ff8     sfc_debug:sfdb_symbol_scope.obj
 0002:00009008       $chain$5$sf_debug_ss_fill_data_struct 0000000180084008     sfc_debug:sfdb_symbol_scope.obj
 0002:0000901c       $chain$4$sf_debug_ss_fill_data_struct 000000018008401c     sfc_debug:sfdb_symbol_scope.obj
 0002:00009034       $chain$2$sf_debug_ss_fill_data_struct 0000000180084034     sfc_debug:sfdb_symbol_scope.obj
 0002:00009050       $unwind$sf_debug_ss_fill_data_struct 0000000180084050     sfc_debug:sfdb_symbol_scope.obj
 0002:0000906c       $unwind$sf_debug_fill_data_info_by_data_vector 000000018008406c     sfc_debug:sfdb_symbol_scope.obj
 0002:00009084       $chain$6$get_data_info_helper 0000000180084084     sfc_debug:sfdb_symbol_scope.obj
 0002:00009094       $chain$5$get_data_info_helper 0000000180084094     sfc_debug:sfdb_symbol_scope.obj
 0002:000090b0       $chain$4$get_data_info_helper 00000001800840b0     sfc_debug:sfdb_symbol_scope.obj
 0002:000090c0       $chain$3$get_data_info_helper 00000001800840c0     sfc_debug:sfdb_symbol_scope.obj
 0002:000090d0       $chain$2$get_data_info_helper 00000001800840d0     sfc_debug:sfdb_symbol_scope.obj
 0002:000090e4       $chain$1$get_data_info_helper 00000001800840e4     sfc_debug:sfdb_symbol_scope.obj
 0002:000090fc       $unwind$get_data_info_helper 00000001800840fc     sfc_debug:sfdb_symbol_scope.obj
 0002:0000910c       $unwind$sf_debug_ss_get_data_info 000000018008410c     sfc_debug:sfdb_symbol_scope.obj
 0002:00009128       $unwind$sf_debug_ss_set_data_value_try 0000000180084128     sfc_debug:sfdb_symbol_scope.obj
 0002:00009144       $unwind$sf_debug_ss_set_data_value 0000000180084144     sfc_debug:sfdb_symbol_scope.obj
 0002:00009154       $unwind$sf_debug_ss_get_data_value 0000000180084154     sfc_debug:sfdb_symbol_scope.obj
 0002:00009174       $unwind$getInstanceNumber  0000000180084174     sfc_debug:sfdb_symbol_scope.obj
 0002:00009188       $chain$2$sf_debug_ss_watch_data 0000000180084188     sfc_debug:sfdb_symbol_scope.obj
 0002:0000919c       $chain$1$sf_debug_ss_watch_data 000000018008419c     sfc_debug:sfdb_symbol_scope.obj
 0002:000091ac       $chain$0$sf_debug_ss_watch_data 00000001800841ac     sfc_debug:sfdb_symbol_scope.obj
 0002:000091c0       $unwind$sf_debug_ss_watch_data 00000001800841c0     sfc_debug:sfdb_symbol_scope.obj
 0002:000091dc       $unwind$sf_debug_ss_assign_data 00000001800841dc     sfc_debug:sfdb_symbol_scope.obj
 0002:000091f0       $unwind$sf_debug_ss_data_bytes_string 00000001800841f0     sfc_debug:sfdb_symbol_scope.obj
 0002:000091fc       $chain$4$sf_debug_ss_data_class_string 00000001800841fc     sfc_debug:sfdb_symbol_scope.obj
 0002:00009214       $chain$3$sf_debug_ss_data_class_string 0000000180084214     sfc_debug:sfdb_symbol_scope.obj
 0002:00009228       $chain$2$sf_debug_ss_data_class_string 0000000180084228     sfc_debug:sfdb_symbol_scope.obj
 0002:0000923c       $chain$1$sf_debug_ss_data_class_string 000000018008423c     sfc_debug:sfdb_symbol_scope.obj
 0002:00009254       $unwind$sf_debug_ss_data_class_string 0000000180084254     sfc_debug:sfdb_symbol_scope.obj
 0002:0000926c       $chain$1$sf_debug_ss_data_size_string 000000018008426c     sfc_debug:sfdb_symbol_scope.obj
 0002:0000927c       $chain$0$sf_debug_ss_data_size_string 000000018008427c     sfc_debug:sfdb_symbol_scope.obj
 0002:00009290       $unwind$sf_debug_ss_data_size_string 0000000180084290     sfc_debug:sfdb_symbol_scope.obj
 0002:0000929c       $chain$2$sf_debug_ss_data_create_data_info_struct 000000018008429c     sfc_debug:sfdb_symbol_scope.obj
 0002:000092ac       $chain$1$sf_debug_ss_data_create_data_info_struct 00000001800842ac     sfc_debug:sfdb_symbol_scope.obj
 0002:000092c4       $unwind$sf_debug_ss_data_create_data_info_struct 00000001800842c4     sfc_debug:sfdb_symbol_scope.obj
 0002:000092e0       $unwind$sf_debug_ss_data_create_name_value_pair 00000001800842e0     sfc_debug:sfdb_symbol_scope.obj
 0002:000092f4       $unwind$same_named_data_in_data_array 00000001800842f4     sfc_debug:sfdb_symbol_scope.obj
 0002:00009310       $unwind$sf_debug_ss_whos   0000000180084310     sfc_debug:sfdb_symbol_scope.obj
 0002:00009328       $chain$2$sf_debug_cc_initialize_chart 0000000180084328     sfc_debug:sfdb_coverage.obj
 0002:00009338       $chain$1$sf_debug_cc_initialize_chart 0000000180084338     sfc_debug:sfdb_coverage.obj
 0002:00009350       $unwind$sf_debug_cc_initialize_chart 0000000180084350     sfc_debug:sfdb_coverage.obj
 0002:0000935c       $chain$4$sf_debug_cc_initialize_instance 000000018008435c     sfc_debug:sfdb_coverage.obj
 0002:0000936c       $chain$3$sf_debug_cc_initialize_instance 000000018008436c     sfc_debug:sfdb_coverage.obj
 0002:00009380       $chain$2$sf_debug_cc_initialize_instance 0000000180084380     sfc_debug:sfdb_coverage.obj
 0002:0000939c       $unwind$sf_debug_cc_initialize_instance 000000018008439c     sfc_debug:sfdb_coverage.obj
 0002:000093ac       $chain$4$sf_debug_cc_terminate_chart 00000001800843ac     sfc_debug:sfdb_coverage.obj
 0002:000093bc       $chain$3$sf_debug_cc_terminate_chart 00000001800843bc     sfc_debug:sfdb_coverage.obj
 0002:000093cc       $chain$2$sf_debug_cc_terminate_chart 00000001800843cc     sfc_debug:sfdb_coverage.obj
 0002:000093e4       $chain$0$sf_debug_cc_terminate_chart 00000001800843e4     sfc_debug:sfdb_coverage.obj
 0002:000093f8       $unwind$sf_debug_cc_terminate_chart 00000001800843f8     sfc_debug:sfdb_coverage.obj
 0002:00009408       $unwind$sf_debug_cc_terminate_instance 0000000180084408     sfc_debug:sfdb_coverage.obj
 0002:0000941c       $chain$6$sf_debug_cc_terminate 000000018008441c     sfc_debug:sfdb_coverage.obj
 0002:0000942c       $chain$5$sf_debug_cc_terminate 000000018008442c     sfc_debug:sfdb_coverage.obj
 0002:00009454       $unwind$sf_debug_cc_terminate 0000000180084454     sfc_debug:sfdb_coverage.obj
 0002:00009460       $unwind$sf_debug_cc_set_transition_maps 0000000180084460     sfc_debug:sfdb_coverage.obj
 0002:00009468       $unwind$sf_debug_cc_set_transition_weights 0000000180084468     sfc_debug:sfdb_coverage.obj
 0002:00009484       $unwind$sf_debug_cc_set_state_weights 0000000180084484     sfc_debug:sfdb_coverage.obj
 0002:000094a0       $unwind$sf_debug_cc_mark_object_if_needed 00000001800844a0     sfc_debug:sfdb_coverage.obj
 0002:000094b4       $unwind$sf_debug_cc_mark_transition_guard 00000001800844b4     sfc_debug:sfdb_coverage.obj
 0002:000094bc       $unwind$sf_debug_cc_mark_transition_trigger 00000001800844bc     sfc_debug:sfdb_coverage.obj
 0002:000094c4       $unwind$sf_debug_cc_mark_transition_decision 00000001800844c4     sfc_debug:sfdb_coverage.obj
 0002:000094cc       $unwind$sf_debug_bm_clear_script_breakpoints 00000001800844cc     sfc_debug:sfdb_breakpoints.obj
 0002:000094d4       $unwind$sf_debug_bm_set_script_breakpoint 00000001800844d4     sfc_debug:sfdb_breakpoints.obj
 0002:000094e4       $unwind$sf_debug_bm_clear_single_script_breakpoint 00000001800844e4     sfc_debug:sfdb_breakpoints.obj
 0002:000094f4       $unwind$sf_debug_bm_query_script_breakpoint 00000001800844f4     sfc_debug:sfdb_breakpoints.obj
 0002:000094fc       $chain$4$sf_debug_bm_initialize_scripts 00000001800844fc     sfc_debug:sfdb_breakpoints.obj
 0002:0000950c       $chain$3$sf_debug_bm_initialize_scripts 000000018008450c     sfc_debug:sfdb_breakpoints.obj
 0002:0000951c       $chain$2$sf_debug_bm_initialize_scripts 000000018008451c     sfc_debug:sfdb_breakpoints.obj
 0002:00009534       $chain$0$sf_debug_bm_initialize_scripts 0000000180084534     sfc_debug:sfdb_breakpoints.obj
 0002:00009548       $unwind$sf_debug_bm_initialize_scripts 0000000180084548     sfc_debug:sfdb_breakpoints.obj
 0002:00009558       $chain$1$sf_debug_bm_initialize_eml 0000000180084558     sfc_debug:sfdb_breakpoints.obj
 0002:00009568       $chain$0$sf_debug_bm_initialize_eml 0000000180084568     sfc_debug:sfdb_breakpoints.obj
 0002:0000957c       $unwind$sf_debug_bm_initialize_eml 000000018008457c     sfc_debug:sfdb_breakpoints.obj
 0002:00009594       $chain$8$sf_debug_bm_terminate 0000000180084594     sfc_debug:sfdb_breakpoints.obj
 0002:000095a4       $chain$7$sf_debug_bm_terminate 00000001800845a4     sfc_debug:sfdb_breakpoints.obj
 0002:000095b4       $chain$6$sf_debug_bm_terminate 00000001800845b4     sfc_debug:sfdb_breakpoints.obj
 0002:000095d4       $chain$2$sf_debug_bm_terminate 00000001800845d4     sfc_debug:sfdb_breakpoints.obj
 0002:000095f0       $unwind$sf_debug_bm_terminate 00000001800845f0     sfc_debug:sfdb_breakpoints.obj
 0002:000095f8       $unwind$sf_debug_bm_remove_all_breakpoints_in_machine 00000001800845f8     sfc_debug:sfdb_breakpoints.obj
 0002:00009608       $unwind$sf_debug_bm_remove_all_breakpoints_in_chart 0000000180084608     sfc_debug:sfdb_breakpoints.obj
 0002:00009620       $unwind$sf_debug_bm_initialize_global_breakpoints 0000000180084620     sfc_debug:sfdb_breakpoints.obj
 0002:0000962c       $chain$3$sf_debug_bm_set_breakpoint 000000018008462c     sfc_debug:sfdb_breakpoints.obj
 0002:0000963c       $chain$2$sf_debug_bm_set_breakpoint 000000018008463c     sfc_debug:sfdb_breakpoints.obj
 0002:00009650       $chain$1$sf_debug_bm_set_breakpoint 0000000180084650     sfc_debug:sfdb_breakpoints.obj
 0002:00009660       $chain$0$sf_debug_bm_set_breakpoint 0000000180084660     sfc_debug:sfdb_breakpoints.obj
 0002:00009674       $unwind$sf_debug_bm_set_breakpoint 0000000180084674     sfc_debug:sfdb_breakpoints.obj
 0002:00009684       $unwind$sf_debug_bm_set_eml_breakpoint 0000000180084684     sfc_debug:sfdb_breakpoints.obj
 0002:00009690       $unwind$sf_debug_bm_map_debug_tag_to_breakpoint_tag 0000000180084690     sfc_debug:sfdb_breakpoints.obj
 0002:00009698       $unwind$sf_debug_bm_is_a_eml_breakpoint_impl 0000000180084698     sfc_debug:sfdb_breakpoints.obj
 0002:000096b0       $chain$5$sf_debug_bm_is_a_breakpoint 00000001800846b0     sfc_debug:sfdb_breakpoints.obj
 0002:000096c8       $chain$4$sf_debug_bm_is_a_breakpoint 00000001800846c8     sfc_debug:sfdb_breakpoints.obj
 0002:000096d8       $chain$3$sf_debug_bm_is_a_breakpoint 00000001800846d8     sfc_debug:sfdb_breakpoints.obj
 0002:000096f0       $chain$2$sf_debug_bm_is_a_breakpoint 00000001800846f0     sfc_debug:sfdb_breakpoints.obj
 0002:00009700       $chain$1$sf_debug_bm_is_a_breakpoint 0000000180084700     sfc_debug:sfdb_breakpoints.obj
 0002:00009718       $unwind$sf_debug_bm_is_a_breakpoint 0000000180084718     sfc_debug:sfdb_breakpoints.obj
 0002:0000972c       $chain$3$sf_debug_bm_get_all_breakpoints_in_machine 000000018008472c     sfc_debug:sfdb_breakpoints.obj
 0002:0000973c       $chain$2$sf_debug_bm_get_all_breakpoints_in_machine 000000018008473c     sfc_debug:sfdb_breakpoints.obj
 0002:00009750       $chain$1$sf_debug_bm_get_all_breakpoints_in_machine 0000000180084750     sfc_debug:sfdb_breakpoints.obj
 0002:00009760       $chain$0$sf_debug_bm_get_all_breakpoints_in_machine 0000000180084760     sfc_debug:sfdb_breakpoints.obj
 0002:00009774       $unwind$sf_debug_bm_get_all_breakpoints_in_machine 0000000180084774     sfc_debug:sfdb_breakpoints.obj
 0002:00009788       $chain$8$sf_debug_bm_get_all_breakpoints_in_chart 0000000180084788     sfc_debug:sfdb_breakpoints.obj
 0002:00009798       $chain$7$sf_debug_bm_get_all_breakpoints_in_chart 0000000180084798     sfc_debug:sfdb_breakpoints.obj
 0002:000097a8       $chain$6$sf_debug_bm_get_all_breakpoints_in_chart 00000001800847a8     sfc_debug:sfdb_breakpoints.obj
 0002:000097bc       $chain$5$sf_debug_bm_get_all_breakpoints_in_chart 00000001800847bc     sfc_debug:sfdb_breakpoints.obj
 0002:000097d0       $chain$4$sf_debug_bm_get_all_breakpoints_in_chart 00000001800847d0     sfc_debug:sfdb_breakpoints.obj
 0002:000097f4       $unwind$sf_debug_bm_get_all_breakpoints_in_chart 00000001800847f4     sfc_debug:sfdb_breakpoints.obj
 0002:00009800       $unwind$sf_debug_bm_initialize_machine 0000000180084800     sfc_debug:sfdb_breakpoints.obj
 0002:00009818       $unwind$sf_debug_bm_initialize_chart 0000000180084818     sfc_debug:sfdb_breakpoints.obj
 0002:00009834       $unwind$sf_debug_sc_push_on_error_stack 0000000180084834     sfc_debug:sfdb_state_consistency.obj
 0002:0000983c       $chain$7$sf_debug_sc_terminate 000000018008483c     sfc_debug:sfdb_state_consistency.obj
 0002:0000984c       $chain$6$sf_debug_sc_terminate 000000018008484c     sfc_debug:sfdb_state_consistency.obj
 0002:00009878       $unwind$sf_debug_sc_terminate 0000000180084878     sfc_debug:sfdb_state_consistency.obj
 0002:00009880       $chain$1$sf_debug_sc_is_state_inconsistent 0000000180084880     sfc_debug:sfdb_state_consistency.obj
 0002:00009890       $chain$0$sf_debug_sc_is_state_inconsistent 0000000180084890     sfc_debug:sfdb_state_consistency.obj
 0002:000098a4       $unwind$sf_debug_sc_is_state_inconsistent 00000001800848a4     sfc_debug:sfdb_state_consistency.obj
 0002:000098b8       $unwind$sf_debug_sc_is_chart_consistent 00000001800848b8     sfc_debug:sfdb_state_consistency.obj
 0002:000098d4       $chain$2$sf_debug_sc_fill_consistency_info 00000001800848d4     sfc_debug:sfdb_state_consistency.obj
 0002:000098e4       $chain$1$sf_debug_sc_fill_consistency_info 00000001800848e4     sfc_debug:sfdb_state_consistency.obj
 0002:000098fc       $unwind$sf_debug_sc_fill_consistency_info 00000001800848fc     sfc_debug:sfdb_state_consistency.obj
 0002:00009910       $chain$4$sf_debug_sc_get_consistency_error_info 0000000180084910     sfc_debug:sfdb_state_consistency.obj
 0002:00009920       $chain$3$sf_debug_sc_get_consistency_error_info 0000000180084920     sfc_debug:sfdb_state_consistency.obj
 0002:00009940       $unwind$sf_debug_sc_get_consistency_error_info 0000000180084940     sfc_debug:sfdb_state_consistency.obj
 0002:00009950       $chain$3$sf_debug_tm_terminate 0000000180084950     sfc_debug:sfdb_call_stack.obj
 0002:00009960       $chain$2$sf_debug_tm_terminate 0000000180084960     sfc_debug:sfdb_call_stack.obj
 0002:00009970       $chain$1$sf_debug_tm_terminate 0000000180084970     sfc_debug:sfdb_call_stack.obj
 0002:00009984       $chain$0$sf_debug_tm_terminate 0000000180084984     sfc_debug:sfdb_call_stack.obj
 0002:00009998       $unwind$sf_debug_tm_terminate 0000000180084998     sfc_debug:sfdb_call_stack.obj
 0002:000099a4       $chain$2$sf_debug_tm_push_chart_instance 00000001800849a4     sfc_debug:sfdb_call_stack.obj
 0002:000099b4       $chain$1$sf_debug_tm_push_chart_instance 00000001800849b4     sfc_debug:sfdb_call_stack.obj
 0002:000099cc       $unwind$sf_debug_tm_push_chart_instance 00000001800849cc     sfc_debug:sfdb_call_stack.obj
 0002:000099dc       $chain$8$sf_debug_tm_push_trace_node 00000001800849dc     sfc_debug:sfdb_call_stack.obj
 0002:000099ec       $chain$7$sf_debug_tm_push_trace_node 00000001800849ec     sfc_debug:sfdb_call_stack.obj
 0002:00009a14       $chain$0$sf_debug_tm_push_trace_node 0000000180084a14     sfc_debug:sfdb_call_stack.obj
 0002:00009a28       $unwind$sf_debug_tm_push_trace_node 0000000180084a28     sfc_debug:sfdb_call_stack.obj
 0002:00009a34       $chain$2$sf_debug_tm_fill_local_trace 0000000180084a34     sfc_debug:sfdb_call_stack.obj
 0002:00009a44       $chain$1$sf_debug_tm_fill_local_trace 0000000180084a44     sfc_debug:sfdb_call_stack.obj
 0002:00009a5c       $unwind$sf_debug_tm_fill_local_trace 0000000180084a5c     sfc_debug:sfdb_call_stack.obj
 0002:00009a6c       $chain$5$sf_debug_tm_browse_trace 0000000180084a6c     sfc_debug:sfdb_call_stack.obj
 0002:00009a7c       $chain$4$sf_debug_tm_browse_trace 0000000180084a7c     sfc_debug:sfdb_call_stack.obj
 0002:00009aa0       $unwind$sf_debug_tm_browse_trace 0000000180084aa0     sfc_debug:sfdb_call_stack.obj
 0002:00009ab0       $unwind$sf_debug_cd_initialize_instance 0000000180084ab0     sfc_debug:sfdb_cycle_detection.obj
 0002:00009ac4       $unwind$sf_debug_cd_terminate_instance 0000000180084ac4     sfc_debug:sfdb_cycle_detection.obj
 0002:00009acc       $chain$1$sf_debug_cd_free_checksum_stack 0000000180084acc     sfc_debug:sfdb_cycle_detection.obj
 0002:00009adc       $chain$0$sf_debug_cd_free_checksum_stack 0000000180084adc     sfc_debug:sfdb_cycle_detection.obj
 0002:00009af0       $unwind$sf_debug_cd_free_checksum_stack 0000000180084af0     sfc_debug:sfdb_cycle_detection.obj
 0002:00009af8       $chain$7$sf_debug_cd_reset_pack_strings 0000000180084af8     sfc_debug:sfdb_cycle_detection.obj
 0002:00009b08       $chain$6$sf_debug_cd_reset_pack_strings 0000000180084b08     sfc_debug:sfdb_cycle_detection.obj
 0002:00009b34       $unwind$sf_debug_cd_reset_pack_strings 0000000180084b34     sfc_debug:sfdb_cycle_detection.obj
 0002:00009b3c       $unwind$sf_debug_cd_mark_processed_transition_in_instance 0000000180084b3c     sfc_debug:sfdb_cycle_detection.obj
 0002:00009b48       $chain$5$sf_debug_cd_checksum_push 0000000180084b48     sfc_debug:sfdb_cycle_detection.obj
 0002:00009b58       $chain$4$sf_debug_cd_checksum_push 0000000180084b58     sfc_debug:sfdb_cycle_detection.obj
 0002:00009b7c       $unwind$sf_debug_cd_checksum_push 0000000180084b7c     sfc_debug:sfdb_cycle_detection.obj
 0002:00009b88       $chain$1$sf_debug_cd_checksum_pop 0000000180084b88     sfc_debug:sfdb_cycle_detection.obj
 0002:00009b98       $chain$0$sf_debug_cd_checksum_pop 0000000180084b98     sfc_debug:sfdb_cycle_detection.obj
 0002:00009bac       $unwind$sf_debug_cd_checksum_pop 0000000180084bac     sfc_debug:sfdb_cycle_detection.obj
 0002:00009bb4       $chain$1$sf_debug_cd_turn_off_cycle_detection 0000000180084bb4     sfc_debug:sfdb_cycle_detection.obj
 0002:00009bc4       $chain$0$sf_debug_cd_turn_off_cycle_detection 0000000180084bc4     sfc_debug:sfdb_cycle_detection.obj
 0002:00009bd8       $unwind$sf_debug_cd_turn_off_cycle_detection 0000000180084bd8     sfc_debug:sfdb_cycle_detection.obj
 0002:00009be0       $chain$6$sf_debug_cd_terminate 0000000180084be0     sfc_debug:sfdb_cycle_detection.obj
 0002:00009bf0       $chain$5$sf_debug_cd_terminate 0000000180084bf0     sfc_debug:sfdb_cycle_detection.obj
 0002:00009c18       $unwind$sf_debug_cd_terminate 0000000180084c18     sfc_debug:sfdb_cycle_detection.obj
 0002:00009c24       $unwind$MD5Transform       0000000180084c24     sfc_debug:ckmd5.obj
 0002:00009c48       $unwind$md5file_addn       0000000180084c48     sfc_debug:ckmd5.obj
 0002:00009c5c       $unwind$md5file_hash       0000000180084c5c     sfc_debug:ckmd5.obj
 0002:00009c70       $unwind$md5_get_hash       0000000180084c70     sfc_debug:ckmd5.obj
 0002:00009c78       $unwind$md5_get_hash_for_a_single_string 0000000180084c78     sfc_debug:ckmd5.obj
 0002:00009c80       $unwind$__GSHandlerCheckCommon 0000000180084c80     MSVCRT:gshandler.obj
 0002:00009c88       $unwind$__GSHandlerCheck   0000000180084c88     MSVCRT:gshandler.obj
 0002:00009c90       $xdatasym                  0000000180084c90     MSVCRT:chkstk.obj
 0002:00009c98       $xdatasym                  0000000180084c98     MSVCRT:amdsecgs.obj
 0002:00009c9c       $unwind$__report_securityfailure 0000000180084c9c     MSVCRT:gs_report.obj
 0002:00009ca4       $unwind$__report_securityfailureEx 0000000180084ca4     MSVCRT:gs_report.obj
 0002:00009cac       $unwind$__report_rangecheckfailure 0000000180084cac     MSVCRT:gs_report.obj
 0002:00009cb4       $unwind$__raise_securityfailure 0000000180084cb4     MSVCRT:gs_report.obj
 0002:00009cbc       $unwind$__report_gsfailure 0000000180084cbc     MSVCRT:gs_report.obj
 0002:00009cc4       $unwind$_CRT_INIT          0000000180084cc4     MSVCRT:crtdll.obj
 0002:00009ce0       $unwind$pre_c_init         0000000180084ce0     MSVCRT:crtdll.obj
 0002:00009ce8       $unwind$__DllMainCRTStartup 0000000180084ce8     MSVCRT:crtdll.obj
 0002:00009d24       $unwind$__DllMainCRTStartup$filt$0 0000000180084d24     MSVCRT:crtdll.obj
 0002:00009d2c       $unwind$__DllMainCRTStartup$fin$1 0000000180084d2c     MSVCRT:crtdll.obj
 0002:00009d34       $unwind$_DllMainCRTStartup 0000000180084d34     MSVCRT:crtdll.obj
 0002:00009d44       $unwind$_IsNonwritableInCurrentImage 0000000180084d44     MSVCRT:pesect.obj
 0002:00009d68       $unwind$_IsNonwritableInCurrentImage$filt$0 0000000180084d68     MSVCRT:pesect.obj
 0002:00009d70       $unwind$atexit             0000000180084d70     MSVCRT:atonexit.obj
 0002:00009d78       $unwind$_onexit            0000000180084d78     MSVCRT:atonexit.obj
 0002:00009d98       $unwind$_onexit$fin$0      0000000180084d98     MSVCRT:atonexit.obj
 0002:00009da0       $unwind$__atonexitinit     0000000180084da0     MSVCRT:atonexit.obj
 0002:00009da8       $unwind$__security_init_cookie 0000000180084da8     MSVCRT:gs_support.obj
 0002:00009db4       $unwind$DllMain            0000000180084db4     MSVCRT:dllmain.obj
 0002:00009dbc       $unwind$_RTC_Initialize    0000000180084dbc     MSVCRT:initsect.obj
 0002:00009dc8       $unwind$_RTC_Terminate     0000000180084dc8     MSVCRT:initsect.obj
 0002:0000a76e       .idata$6                   000000018008576e     libmx:libmx.dll
 0002:0000a848       .idata$6                   0000000180085848     libmex:libmex.dll
 0002:0000a8a0       .idata$6                   00000001800858a0     libfixedpoint:libfixedpoint.dll
 0002:0000a8fa       .idata$6                   00000001800858fa     libut:libut.dll
 0002:0000a982       .idata$6                   0000000180085982     libmwmathutil:libmwmathutil.dll
 0002:0000ab5c       .idata$6                   0000000180085b5c     libemlrt:libemlrt.dll
 0002:0000abfa       .idata$6                   0000000180085bfa     MSVCRT:MSVCR110.dll
 0002:0000ae10       .idata$6                   0000000180085e10     kernel32:KERNEL32.dll
 0002:0000ae20       .edata                     0000000180085e20     test_sfun.exp
 0002:0000ae48       rgpv                       0000000180085e48     test_sfun.exp
 0002:0000ae4c       rgszName                   0000000180085e4c     test_sfun.exp
 0002:0000ae50       rgwOrd                     0000000180085e50     test_sfun.exp
 0002:0000ae52       szName                     0000000180085e52     test_sfun.exp
 0002:0000ae63       $N00001                    0000000180085e63     test_sfun.exp
 0003:00000000       $SG17454                   0000000180086000     c1_test.obj
 0003:00000004       $SG17479                   0000000180086004     c1_test.obj
 0003:00000008       $SG17540                   0000000180086008     c1_test.obj
 0003:0000000c       $SG17615                   000000018008600c     c1_test.obj
 0003:00000010       c1_debug_family_names      0000000180086010     c1_test.obj
 0003:00000058       $SG16625                   0000000180086058     c1_test.obj
 0003:0000005c       $SG16627                   000000018008605c     c1_test.obj
 0003:00000064       $SG16629                   0000000180086064     c1_test.obj
 0003:00000068       $SG16626                   0000000180086068     c1_test.obj
 0003:00000074       $SG16630                   0000000180086074     c1_test.obj
 0003:00000078       $SG16628                   0000000180086078     c1_test.obj
 0003:00000080       $SG16631                   0000000180086080     c1_test.obj
 0003:00000084       $SG16632                   0000000180086084     c1_test.obj
 0003:00000088       $SG16633                   0000000180086088     c1_test.obj
 0003:00000090       $SG17666                   0000000180086090     c1_test.obj
 0003:000000a0       $SG17670                   00000001800860a0     c1_test.obj
 0003:000000b0       $SG17671                   00000001800860b0     c1_test.obj
 0003:000000b8       $SG17672                   00000001800860b8     c1_test.obj
 0003:000000c8       $SG17673                   00000001800860c8     c1_test.obj
 0003:000000d8       $SG17674                   00000001800860d8     c1_test.obj
 0003:000000e0       $SG17675                   00000001800860e0     c1_test.obj
 0003:000000f0       $SG17676                   00000001800860f0     c1_test.obj
 0003:00000100       $SG17677                   0000000180086100     c1_test.obj
 0003:00000110       $SG17678                   0000000180086110     c1_test.obj
 0003:00000120       $SG17679                   0000000180086120     c1_test.obj
 0003:00000130       $SG17680                   0000000180086130     c1_test.obj
 0003:0000013c       $SG17698                   000000018008613c     c1_test.obj
 0003:00000144       $SG17802                   0000000180086144     c1_test.obj
 0003:00000148       $SG17681                   0000000180086148     c1_test.obj
 0003:00000158       $SG17682                   0000000180086158     c1_test.obj
 0003:00000168       $SG17683                   0000000180086168     c1_test.obj
 0003:00000174       $SG17818                   0000000180086174     c1_test.obj
 0003:00000178       $SG17684                   0000000180086178     c1_test.obj
 0003:00000188       $SG17685                   0000000180086188     c1_test.obj
 0003:00000198       $SG17686                   0000000180086198     c1_test.obj
 0003:000001a4       $SG17985                   00000001800861a4     c1_test.obj
 0003:000001a8       $SG17687                   00000001800861a8     c1_test.obj
 0003:000001b8       $SG17688                   00000001800861b8     c1_test.obj
 0003:000001c8       $SG17689                   00000001800861c8     c1_test.obj
 0003:000001d4       $SG16980                   00000001800861d4     c1_test.obj
 0003:000001d8       $SG17690                   00000001800861d8     c1_test.obj
 0003:000001e8       $SG17691                   00000001800861e8     c1_test.obj
 0003:000001f8       $SG17692                   00000001800861f8     c1_test.obj
 0003:00000204       $SG16982                   0000000180086204     c1_test.obj
 0003:00000208       $SG17693                   0000000180086208     c1_test.obj
 0003:00000218       $SG17699                   0000000180086218     c1_test.obj
 0003:00000220       $SG17700                   0000000180086220     c1_test.obj
 0003:00000258       $SG17702                   0000000180086258     c1_test.obj
 0003:00000260       $SG17703                   0000000180086260     c1_test.obj
 0003:00000268       $SG17704                   0000000180086268     c1_test.obj
 0003:000002a0       $SG17705                   00000001800862a0     c1_test.obj
 0003:000002d8       $SG17706                   00000001800862d8     c1_test.obj
 0003:000002e4       $SG17707                   00000001800862e4     c1_test.obj
 0003:000002ec       $SG17711                   00000001800862ec     c1_test.obj
 0003:000002f4       $SG18021                   00000001800862f4     c1_test.obj
 0003:000002f8       $SG17708                   00000001800862f8     c1_test.obj
 0003:00000334       $SG17715                   0000000180086334     c1_test.obj
 0003:0000033c       $SG18061                   000000018008633c     c1_test.obj
 0003:00000340       $SG17709                   0000000180086340     c1_test.obj
 0003:00000378       $SG17710                   0000000180086378     c1_test.obj
 0003:00000388       $SG17718                   0000000180086388     c1_test.obj
 0003:00000390       $SG17712                   0000000180086390     c1_test.obj
 0003:000003d4       $SG17719                   00000001800863d4     c1_test.obj
 0003:000003dc       $SG18097                   00000001800863dc     c1_test.obj
 0003:000003e0       $SG17714                   00000001800863e0     c1_test.obj
 0003:000003ec       $SG17723                   00000001800863ec     c1_test.obj
 0003:000003f4       $SG19171                   00000001800863f4     c1_test.obj
 0003:000003f8       $SG17716                   00000001800863f8     c1_test.obj
 0003:00000434       $SG17727                   0000000180086434     c1_test.obj
 0003:0000043c       $SG19173                   000000018008643c     c1_test.obj
 0003:00000440       $SG17717                   0000000180086440     c1_test.obj
 0003:0000047c       $SG17735                   000000018008647c     c1_test.obj
 0003:00000484       $SG19174                   0000000180086484     c1_test.obj
 0003:00000488       $SG17720                   0000000180086488     c1_test.obj
 0003:000004c0       $SG17721                   00000001800864c0     c1_test.obj
 0003:000004f8       $SG17722                   00000001800864f8     c1_test.obj
 0003:00000510       $SG17724                   0000000180086510     c1_test.obj
 0003:00000558       $SG17725                   0000000180086558     c1_test.obj
 0003:00000590       $SG17726                   0000000180086590     c1_test.obj
 0003:00000598       $SG17728                   0000000180086598     c1_test.obj
 0003:000005d0       $SG17729                   00000001800865d0     c1_test.obj
 0003:00000608       $SG17730                   0000000180086608     c1_test.obj
 0003:00000618       $SG17733                   0000000180086618     c1_test.obj
 0003:00000650       $SG17732                   0000000180086650     c1_test.obj
 0003:00000690       $SG17734                   0000000180086690     c1_test.obj
 0003:000006a0       $SG17736                   00000001800866a0     c1_test.obj
 0003:000006e0       $SG17737                   00000001800866e0     c1_test.obj
 0003:00000718       $SG17738                   0000000180086718     c1_test.obj
 0003:00000724       $SG17739                   0000000180086724     c1_test.obj
 0003:0000072c       $SG17746                   000000018008672c     c1_test.obj
 0003:00000734       $SG19175                   0000000180086734     c1_test.obj
 0003:00000738       $SG17740                   0000000180086738     c1_test.obj
 0003:00000778       $SG17741                   0000000180086778     c1_test.obj
 0003:000007b8       $SG17742                   00000001800867b8     c1_test.obj
 0003:000007c8       $SG17747                   00000001800867c8     c1_test.obj
 0003:000007d0       $SG17744                   00000001800867d0     c1_test.obj
 0003:00000818       $SG17748                   0000000180086818     c1_test.obj
 0003:00000850       $SG17745                   0000000180086850     c1_test.obj
 0003:000008b0       $SG17749                   00000001800868b0     c1_test.obj
 0003:00000900       $SG17750                   0000000180086900     c1_test.obj
 0003:00000910       $SG17752                   0000000180086910     c1_test.obj
 0003:00000950       $SG17753                   0000000180086950     c1_test.obj
 0003:000009a0       $SG17754                   00000001800869a0     c1_test.obj
 0003:000009b0       $SG17755                   00000001800869b0     c1_test.obj
 0003:000009b8       $SG17756                   00000001800869b8     c1_test.obj
 0003:000009f8       $SG17758                   00000001800869f8     c1_test.obj
 0003:00000a10       $SG17757                   0000000180086a10     c1_test.obj
 0003:00000a60       $SG17759                   0000000180086a60     c1_test.obj
 0003:00000a68       $SG17763                   0000000180086a68     c1_test.obj
 0003:00000a70       $SG17760                   0000000180086a70     c1_test.obj
 0003:00000ac0       $SG17761                   0000000180086ac0     c1_test.obj
 0003:00000afc       $SG17767                   0000000180086afc     c1_test.obj
 0003:00000b04       $SG18235                   0000000180086b04     c1_test.obj
 0003:00000b08       $SG17762                   0000000180086b08     c1_test.obj
 0003:00000b14       $SG17779                   0000000180086b14     c1_test.obj
 0003:00000b1c       $SG18240                   0000000180086b1c     c1_test.obj
 0003:00000b20       $SG17764                   0000000180086b20     c1_test.obj
 0003:00000b5c       $SG17783                   0000000180086b5c     c1_test.obj
 0003:00000b64       $SG18279                   0000000180086b64     c1_test.obj
 0003:00000b68       $SG17765                   0000000180086b68     c1_test.obj
 0003:00000ba4       $SG17787                   0000000180086ba4     c1_test.obj
 0003:00000bac       $SG18342                   0000000180086bac     c1_test.obj
 0003:00000bb0       $SG17766                   0000000180086bb0     c1_test.obj
 0003:00000bbc       $SG17392                   0000000180086bbc     c1_test.obj
 0003:00000bc0       $SG17768                   0000000180086bc0     c1_test.obj
 0003:00000c00       $SG17769                   0000000180086c00     c1_test.obj
 0003:00000c40       $SG17770                   0000000180086c40     c1_test.obj
 0003:00000c50       $SG17772                   0000000180086c50     c1_test.obj
 0003:00000c90       $SG17773                   0000000180086c90     c1_test.obj
 0003:00000cd8       $SG17774                   0000000180086cd8     c1_test.obj
 0003:00000ce8       $SG17782                   0000000180086ce8     c1_test.obj
 0003:00000d00       $SG17776                   0000000180086d00     c1_test.obj
 0003:00000d40       $SG17777                   0000000180086d40     c1_test.obj
 0003:00000d88       $SG17778                   0000000180086d88     c1_test.obj
 0003:00000d98       $SG17786                   0000000180086d98     c1_test.obj
 0003:00000db0       $SG17780                   0000000180086db0     c1_test.obj
 0003:00000df8       $SG17790                   0000000180086df8     c1_test.obj
 0003:00000e00       $SG17781                   0000000180086e00     c1_test.obj
 0003:00000e44       $SG17791                   0000000180086e44     c1_test.obj
 0003:00000e50       $SG17784                   0000000180086e50     c1_test.obj
 0003:00000ea8       $SG17794                   0000000180086ea8     c1_test.obj
 0003:00000eb4       $SG17795                   0000000180086eb4     c1_test.obj
 0003:00000ec0       $SG17785                   0000000180086ec0     c1_test.obj
 0003:00000f18       $SG17796                   0000000180086f18     c1_test.obj
 0003:00000f54       $SG17799                   0000000180086f54     c1_test.obj
 0003:00000f60       $SG17788                   0000000180086f60     c1_test.obj
 0003:00000fb0       $SG17789                   0000000180086fb0     c1_test.obj
 0003:00001000       $SG17792                   0000000180087000     c1_test.obj
 0003:00001040       $SG17793                   0000000180087040     c1_test.obj
 0003:00001080       $SG17797                   0000000180087080     c1_test.obj
 0003:000010c0       $SG17798                   00000001800870c0     c1_test.obj
 0003:000010d0       $SG17800                   00000001800870d0     c1_test.obj
 0003:00001110       $SG17801                   0000000180087110     c1_test.obj
 0003:00001160       $SG17803                   0000000180087160     c1_test.obj
 0003:00001168       $SG17804                   0000000180087168     c1_test.obj
 0003:000011a0       $SG17805                   00000001800871a0     c1_test.obj
 0003:000011d8       $SG17806                   00000001800871d8     c1_test.obj
 0003:000011ec       $SG17807                   00000001800871ec     c1_test.obj
 0003:000011f8       $SG17809                   00000001800871f8     c1_test.obj
 0003:00001230       $SG17808                   0000000180087230     c1_test.obj
 0003:00001278       $SG17810                   0000000180087278     c1_test.obj
 0003:00001280       $SG17811                   0000000180087280     c1_test.obj
 0003:00001288       $SG17812                   0000000180087288     c1_test.obj
 0003:000012c0       $SG17813                   00000001800872c0     c1_test.obj
 0003:000012f8       $SG17814                   00000001800872f8     c1_test.obj
 0003:00001308       $SG17815                   0000000180087308     c1_test.obj
 0003:00001310       $SG17816                   0000000180087310     c1_test.obj
 0003:00001350       $SG17817                   0000000180087350     c1_test.obj
 0003:000013a0       $SG17819                   00000001800873a0     c1_test.obj
 0003:000013b8       $SG17820                   00000001800873b8     c1_test.obj
 0003:000013f0       $SG17821                   00000001800873f0     c1_test.obj
 0003:00001428       $SG17822                   0000000180087428     c1_test.obj
 0003:00001438       $SG17823                   0000000180087438     c1_test.obj
 0003:00001440       $SG17824                   0000000180087440     c1_test.obj
 0003:00001480       $SG17825                   0000000180087480     c1_test.obj
 0003:000014d0       $SG17826                   00000001800874d0     c1_test.obj
 0003:000014e0       $SG17827                   00000001800874e0     c1_test.obj
 0003:000014f8       $SG17828                   00000001800874f8     c1_test.obj
 0003:00001538       $SG17830                   0000000180087538     c1_test.obj
 0003:00001550       $SG17829                   0000000180087550     c1_test.obj
 0003:000015a0       $SG17831                   00000001800875a0     c1_test.obj
 0003:000015b8       $SG17839                   00000001800875b8     c1_test.obj
 0003:000015d0       $SG17832                   00000001800875d0     c1_test.obj
 0003:00001618       $SG17834                   0000000180087618     c1_test.obj
 0003:00001628       $SG17842                   0000000180087628     c1_test.obj
 0003:00001630       $SG17833                   0000000180087630     c1_test.obj
 0003:00001680       $SG17836                   0000000180087680     c1_test.obj
 0003:000016c0       $SG17837                   00000001800876c0     c1_test.obj
 0003:00001718       $SG17838                   0000000180087718     c1_test.obj
 0003:00001728       $SG17840                   0000000180087728     c1_test.obj
 0003:00001768       $SG17843                   0000000180087768     c1_test.obj
 0003:00001770       $SG17841                   0000000180087770     c1_test.obj
 0003:000017c0       $SG17844                   00000001800877c0     c1_test.obj
 0003:000017f8       $SG17845                   00000001800877f8     c1_test.obj
 0003:00001830       $SG17846                   0000000180087830     c1_test.obj
 0003:00001838       $SG17847                   0000000180087838     c1_test.obj
 0003:00001840       $SG17848                   0000000180087840     c1_test.obj
 0003:00001878       $SG17849                   0000000180087878     c1_test.obj
 0003:000018b0       $SG17850                   00000001800878b0     c1_test.obj
 0003:000018b8       $SG17851                   00000001800878b8     c1_test.obj
 0003:000018c0       $SG17852                   00000001800878c0     c1_test.obj
 0003:000018f8       $SG17853                   00000001800878f8     c1_test.obj
 0003:00001930       $SG17854                   0000000180087930     c1_test.obj
 0003:00001944       $SG17855                   0000000180087944     c1_test.obj
 0003:00001950       $SG17856                   0000000180087950     c1_test.obj
 0003:00001994       $SG17858                   0000000180087994     c1_test.obj
 0003:000019a0       $SG17857                   00000001800879a0     c1_test.obj
 0003:000019e4       $SG17859                   00000001800879e4     c1_test.obj
 0003:000019f0       $SG17860                   00000001800879f0     c1_test.obj
 0003:00001a30       $SG17861                   0000000180087a30     c1_test.obj
 0003:00001a74       $SG17862                   0000000180087a74     c1_test.obj
 0003:00001a7c       $SG17863                   0000000180087a7c     c1_test.obj
 0003:00001a88       $SG17864                   0000000180087a88     c1_test.obj
 0003:00001ac4       $SG17866                   0000000180087ac4     c1_test.obj
 0003:00001ad0       $SG17865                   0000000180087ad0     c1_test.obj
 0003:00001b24       $SG17867                   0000000180087b24     c1_test.obj
 0003:00001b30       $SG17868                   0000000180087b30     c1_test.obj
 0003:00001b70       $SG17869                   0000000180087b70     c1_test.obj
 0003:00001bc4       $SG17870                   0000000180087bc4     c1_test.obj
 0003:00001bcc       $SG17871                   0000000180087bcc     c1_test.obj
 0003:00001bd8       $SG17872                   0000000180087bd8     c1_test.obj
 0003:00001c18       $SG17874                   0000000180087c18     c1_test.obj
 0003:00001c28       $SG17875                   0000000180087c28     c1_test.obj
 0003:00001c40       $SG17873                   0000000180087c40     c1_test.obj
 0003:00001c98       $SG17876                   0000000180087c98     c1_test.obj
 0003:00001cd8       $SG17878                   0000000180087cd8     c1_test.obj
 0003:00001cf0       $SG17877                   0000000180087cf0     c1_test.obj
 0003:00001d44       $SG17879                   0000000180087d44     c1_test.obj
 0003:00001d50       $SG17880                   0000000180087d50     c1_test.obj
 0003:00001d98       $SG17882                   0000000180087d98     c1_test.obj
 0003:00001da8       $SG17890                   0000000180087da8     c1_test.obj
 0003:00001db0       $SG17881                   0000000180087db0     c1_test.obj
 0003:00001df8       $SG17886                   0000000180087df8     c1_test.obj
 0003:00001e08       $SG17891                   0000000180087e08     c1_test.obj
 0003:00001e10       $SG17884                   0000000180087e10     c1_test.obj
 0003:00001e50       $SG17885                   0000000180087e50     c1_test.obj
 0003:00001ea8       $SG17894                   0000000180087ea8     c1_test.obj
 0003:00001eb8       $SG17895                   0000000180087eb8     c1_test.obj
 0003:00001ed0       $SG17888                   0000000180087ed0     c1_test.obj
 0003:00001f10       $SG17889                   0000000180087f10     c1_test.obj
 0003:00001f68       $SG17892                   0000000180087f68     c1_test.obj
 0003:00001fa8       $SG17896                   0000000180087fa8     c1_test.obj
 0003:00001fe8       $SG17898                   0000000180087fe8     c1_test.obj
 0003:00001ff8       $SG17899                   0000000180087ff8     c1_test.obj
 0003:00002000       $SG17893                   0000000180088000     c1_test.obj
 0003:00002058       $SG17900                   0000000180088058     c1_test.obj
 0003:00002098       $SG17902                   0000000180088098     c1_test.obj
 0003:000020a8       $SG17910                   00000001800880a8     c1_test.obj
 0003:000020b0       $SG17897                   00000001800880b0     c1_test.obj
 0003:00002108       $SG17901                   0000000180088108     c1_test.obj
 0003:00002148       $SG17911                   0000000180088148     c1_test.obj
 0003:00002150       $SG17904                   0000000180088150     c1_test.obj
 0003:00002190       $SG17905                   0000000180088190     c1_test.obj
 0003:000021e0       $SG17906                   00000001800881e0     c1_test.obj
 0003:00002200       $SG17908                   0000000180088200     c1_test.obj
 0003:00002250       $SG17909                   0000000180088250     c1_test.obj
 0003:000022c8       $SG17912                   00000001800882c8     c1_test.obj
 0003:00002308       $SG17914                   0000000180088308     c1_test.obj
 0003:00002318       $SG17919                   0000000180088318     c1_test.obj
 0003:00002320       $SG17913                   0000000180088320     c1_test.obj
 0003:00002370       $SG17916                   0000000180088370     c1_test.obj
 0003:000023b0       $SG17917                   00000001800883b0     c1_test.obj
 0003:00002400       $SG17918                   0000000180088400     c1_test.obj
 0003:00002410       $SG17920                   0000000180088410     c1_test.obj
 0003:00002450       $SG17921                   0000000180088450     c1_test.obj
 0003:000024a0       $SG17922                   00000001800884a0     c1_test.obj
 0003:000024c0       $SG17924                   00000001800884c0     c1_test.obj
 0003:00002510       $SG17925                   0000000180088510     c1_test.obj
 0003:00002560       $SG17926                   0000000180088560     c1_test.obj
 0003:00002570       $SG17927                   0000000180088570     c1_test.obj
 0003:00002578       $SG17930                   0000000180088578     c1_test.obj
 0003:00002588       $SG17935                   0000000180088588     c1_test.obj
 0003:000025a0       $SG17928                   00000001800885a0     c1_test.obj
 0003:000025e0       $SG17929                   00000001800885e0     c1_test.obj
 0003:00002620       $SG17932                   0000000180088620     c1_test.obj
 0003:00002660       $SG17933                   0000000180088660     c1_test.obj
 0003:000026b0       $SG17934                   00000001800886b0     c1_test.obj
 0003:000026c0       $SG17936                   00000001800886c0     c1_test.obj
 0003:00002700       $SG17937                   0000000180088700     c1_test.obj
 0003:00002750       $SG17938                   0000000180088750     c1_test.obj
 0003:00002760       $SG17939                   0000000180088760     c1_test.obj
 0003:00002778       $SG17947                   0000000180088778     c1_test.obj
 0003:00002790       $SG17940                   0000000180088790     c1_test.obj
 0003:000027d0       $SG17941                   00000001800887d0     c1_test.obj
 0003:00002810       $SG17942                   0000000180088810     c1_test.obj
 0003:00002820       $SG17944                   0000000180088820     c1_test.obj
 0003:00002860       $SG17945                   0000000180088860     c1_test.obj
 0003:000028b0       $SG17946                   00000001800888b0     c1_test.obj
 0003:000028c0       $SG17948                   00000001800888c0     c1_test.obj
 0003:00002900       $SG17949                   0000000180088900     c1_test.obj
 0003:00002950       $SG17950                   0000000180088950     c1_test.obj
 0003:0000295c       $SG17951                   000000018008895c     c1_test.obj
 0003:00002968       $SG17957                   0000000180088968     c1_test.obj
 0003:00002978       $SG17961                   0000000180088978     c1_test.obj
 0003:00002980       $SG17952                   0000000180088980     c1_test.obj
 0003:000029c0       $SG17956                   00000001800889c0     c1_test.obj
 0003:00002a00       $SG17959                   0000000180088a00     c1_test.obj
 0003:00002a48       $SG17962                   0000000180088a48     c1_test.obj
 0003:00002a50       $SG17960                   0000000180088a50     c1_test.obj
 0003:00002ab0       $SG17963                   0000000180088ab0     c1_test.obj
 0003:00002af0       $SG17964                   0000000180088af0     c1_test.obj
 0003:00002b38       $SG17965                   0000000180088b38     c1_test.obj
 0003:00002b48       $SG17973                   0000000180088b48     c1_test.obj
 0003:00002b60       $SG17967                   0000000180088b60     c1_test.obj
 0003:00002ba0       $SG17968                   0000000180088ba0     c1_test.obj
 0003:00002bf0       $SG17969                   0000000180088bf0     c1_test.obj
 0003:00002c00       $SG17971                   0000000180088c00     c1_test.obj
 0003:00002c40       $SG17972                   0000000180088c40     c1_test.obj
 0003:00002c90       $SG17974                   0000000180088c90     c1_test.obj
 0003:00002c98       $SG17977                   0000000180088c98     c1_test.obj
 0003:00002ca8       $SG17982                   0000000180088ca8     c1_test.obj
 0003:00002cb0       $SG17975                   0000000180088cb0     c1_test.obj
 0003:00002d00       $SG17976                   0000000180088d00     c1_test.obj
 0003:00002d50       $SG17979                   0000000180088d50     c1_test.obj
 0003:00002d90       $SG17980                   0000000180088d90     c1_test.obj
 0003:00002de0       $SG17981                   0000000180088de0     c1_test.obj
 0003:00002df0       $SG17983                   0000000180088df0     c1_test.obj
 0003:00002e30       $SG17984                   0000000180088e30     c1_test.obj
 0003:00002e70       $SG17986                   0000000180088e70     c1_test.obj
 0003:00002e78       $SG17987                   0000000180088e78     c1_test.obj
 0003:00002eb0       $SG17988                   0000000180088eb0     c1_test.obj
 0003:00002ee8       $SG17989                   0000000180088ee8     c1_test.obj
 0003:00002ef8       $SG17990                   0000000180088ef8     c1_test.obj
 0003:00002f00       $SG17991                   0000000180088f00     c1_test.obj
 0003:00002f48       $SG17993                   0000000180088f48     c1_test.obj
 0003:00002f68       $SG17998                   0000000180088f68     c1_test.obj
 0003:00002f80       $SG17992                   0000000180088f80     c1_test.obj
 0003:00002fd0       $SG17995                   0000000180088fd0     c1_test.obj
 0003:00003020       $SG17996                   0000000180089020     c1_test.obj
 0003:00003070       $SG17997                   0000000180089070     c1_test.obj
 0003:00003080       $SG17999                   0000000180089080     c1_test.obj
 0003:000030c0       $SG18000                   00000001800890c0     c1_test.obj
 0003:00003110       $SG18001                   0000000180089110     c1_test.obj
 0003:0000311c       $SG18002                   000000018008911c     c1_test.obj
 0003:00003128       $SG18003                   0000000180089128     c1_test.obj
 0003:00003168       $SG18004                   0000000180089168     c1_test.obj
 0003:000031a8       $SG18005                   00000001800891a8     c1_test.obj
 0003:000031b8       $SG19030                   00000001800891b8     c1_test.obj
 0003:000031c8       $SG19031                   00000001800891c8     c1_test.obj
 0003:000031d4       $SG19032                   00000001800891d4     c1_test.obj
 0003:000031e0       $SG18007                   00000001800891e0     c1_test.obj
 0003:00003228       $SG19033                   0000000180089228     c1_test.obj
 0003:00003230       $SG18008                   0000000180089230     c1_test.obj
 0003:00003280       $SG18009                   0000000180089280     c1_test.obj
 0003:00003290       $SG19034                   0000000180089290     c1_test.obj
 0003:000032a0       $SG19035                   00000001800892a0     c1_test.obj
 0003:000032b0       $SG18011                   00000001800892b0     c1_test.obj
 0003:000032f0       $SG19036                   00000001800892f0     c1_test.obj
 0003:000032f8       $SG19037                   00000001800892f8     c1_test.obj
 0003:00003300       $SG18012                   0000000180089300     c1_test.obj
 0003:00003350       $SG18013                   0000000180089350     c1_test.obj
 0003:00003364       $SG19038                   0000000180089364     c1_test.obj
 0003:0000336c       $SG18014                   000000018008936c     c1_test.obj
 0003:00003374       $SG19039                   0000000180089374     c1_test.obj
 0003:00003380       $SG18015                   0000000180089380     c1_test.obj
 0003:000033d0       $SG18016                   00000001800893d0     c1_test.obj
 0003:00003420       $SG18017                   0000000180089420     c1_test.obj
 0003:00003430       $SG16993                   0000000180089430     c1_test.obj
 0003:00003438       $SG19042                   0000000180089438     c1_test.obj
 0003:00003450       $SG19043                   0000000180089450     c1_test.obj
 0003:00003460       $SG18019                   0000000180089460     c1_test.obj
 0003:000034a0       $SG18020                   00000001800894a0     c1_test.obj
 0003:000034f0       $SG19045                   00000001800894f0     c1_test.obj
 0003:000034f8       $SG16997                   00000001800894f8     c1_test.obj
 0003:0000350c       $SG19046                   000000018008950c     c1_test.obj
 0003:00003518       $SG18022                   0000000180089518     c1_test.obj
 0003:00003530       $SG19047                   0000000180089530     c1_test.obj
 0003:00003538       $SG18023                   0000000180089538     c1_test.obj
 0003:00003570       $SG19048                   0000000180089570     c1_test.obj
 0003:00003578       $SG18024                   0000000180089578     c1_test.obj
 0003:000035b0       $SG19049                   00000001800895b0     c1_test.obj
 0003:000035c0       $SG18025                   00000001800895c0     c1_test.obj
 0003:000035d0       $SG19050                   00000001800895d0     c1_test.obj
 0003:000035e0       $SG18026                   00000001800895e0     c1_test.obj
 0003:000035f8       $SG19056                   00000001800895f8     c1_test.obj
 0003:00003600       $SG18027                   0000000180089600     c1_test.obj
 0003:00003648       $SG18029                   0000000180089648     c1_test.obj
 0003:00003668       $SG19058                   0000000180089668     c1_test.obj
 0003:00003670       $SG18028                   0000000180089670     c1_test.obj
 0003:000036c0       $SG18031                   00000001800896c0     c1_test.obj
 0003:00003710       $SG18032                   0000000180089710     c1_test.obj
 0003:00003760       $SG18033                   0000000180089760     c1_test.obj
 0003:00003770       $SG18034                   0000000180089770     c1_test.obj
 0003:00003788       $SG19059                   0000000180089788     c1_test.obj
 0003:00003790       $SG18035                   0000000180089790     c1_test.obj
 0003:000037d0       $SG19060                   00000001800897d0     c1_test.obj
 0003:000037d8       $SG19061                   00000001800897d8     c1_test.obj
 0003:000037e0       $SG18036                   00000001800897e0     c1_test.obj
 0003:00003830       $SG18037                   0000000180089830     c1_test.obj
 0003:00003838       $SG18038                   0000000180089838     c1_test.obj
 0003:00003840       $SG19063                   0000000180089840     c1_test.obj
 0003:00003848       $SG18039                   0000000180089848     c1_test.obj
 0003:00003880       $SG19064                   0000000180089880     c1_test.obj
 0003:00003888       $SG19065                   0000000180089888     c1_test.obj
 0003:00003890       $SG18040                   0000000180089890     c1_test.obj
 0003:000038e0       $SG18041                   00000001800898e0     c1_test.obj
 0003:000038f0       $SG19066                   00000001800898f0     c1_test.obj
 0003:000038fc       $SG18042                   00000001800898fc     c1_test.obj
 0003:00003908       $SG18043                   0000000180089908     c1_test.obj
 0003:00003948       $SG18044                   0000000180089948     c1_test.obj
 0003:00003988       $SG18045                   0000000180089988     c1_test.obj
 0003:00003998       $SG19071                   0000000180089998     c1_test.obj
 0003:000039a0       $SG18047                   00000001800899a0     c1_test.obj
 0003:000039e8       $SG18048                   00000001800899e8     c1_test.obj
 0003:00003a28       $SG19073                   0000000180089a28     c1_test.obj
 0003:00003a30       $SG18049                   0000000180089a30     c1_test.obj
 0003:00003a3c       $SG19074                   0000000180089a3c     c1_test.obj
 0003:00003a44       $SG18050                   0000000180089a44     c1_test.obj
 0003:00003a4c       $SG19075                   0000000180089a4c     c1_test.obj
 0003:00003a58       $SG18051                   0000000180089a58     c1_test.obj
 0003:00003a98       $SG19076                   0000000180089a98     c1_test.obj
 0003:00003aa0       $SG18052                   0000000180089aa0     c1_test.obj
 0003:00003ae0       $SG18053                   0000000180089ae0     c1_test.obj
 0003:00003af0       $SG19078                   0000000180089af0     c1_test.obj
 0003:00003af8       $SG19079                   0000000180089af8     c1_test.obj
 0003:00003b00       $SG18055                   0000000180089b00     c1_test.obj
 0003:00003b48       $SG19080                   0000000180089b48     c1_test.obj
 0003:00003b50       $SG18056                   0000000180089b50     c1_test.obj
 0003:00003bb0       $SG19081                   0000000180089bb0     c1_test.obj
 0003:00003bbc       $SG18057                   0000000180089bbc     c1_test.obj
 0003:00003bc4       $SG18058                   0000000180089bc4     c1_test.obj
 0003:00003bd0       $SG18059                   0000000180089bd0     c1_test.obj
 0003:00003c10       $SG18060                   0000000180089c10     c1_test.obj
 0003:00003c6c       $SG19086                   0000000180089c6c     c1_test.obj
 0003:00003c74       $SG18062                   0000000180089c74     c1_test.obj
 0003:00003c80       $SG18063                   0000000180089c80     c1_test.obj
 0003:00003cb8       $SG19088                   0000000180089cb8     c1_test.obj
 0003:00003cc0       $SG18064                   0000000180089cc0     c1_test.obj
 0003:00003d10       $SG19089                   0000000180089d10     c1_test.obj
 0003:00003d18       $SG18065                   0000000180089d18     c1_test.obj
 0003:00003d28       $SG19090                   0000000180089d28     c1_test.obj
 0003:00003d30       $SG18066                   0000000180089d30     c1_test.obj
 0003:00003d38       $SG19091                   0000000180089d38     c1_test.obj
 0003:00003d40       $SG18067                   0000000180089d40     c1_test.obj
 0003:00003d80       $SG18068                   0000000180089d80     c1_test.obj
 0003:00003dd0       $SG19093                   0000000180089dd0     c1_test.obj
 0003:00003dd8       $SG18069                   0000000180089dd8     c1_test.obj
 0003:00003dec       $SG19094                   0000000180089dec     c1_test.obj
 0003:00003df4       $SG18070                   0000000180089df4     c1_test.obj
 0003:00003dfc       $SG19095                   0000000180089dfc     c1_test.obj
 0003:00003e08       $SG19096                   0000000180089e08     c1_test.obj
 0003:00003e18       $SG18073                   0000000180089e18     c1_test.obj
 0003:00003e28       $SG18074                   0000000180089e28     c1_test.obj
 0003:00003e30       $SG18071                   0000000180089e30     c1_test.obj
 0003:00003e78       $SG18075                   0000000180089e78     c1_test.obj
 0003:00003eb8       $SG19101                   0000000180089eb8     c1_test.obj
 0003:00003ec0       $SG18072                   0000000180089ec0     c1_test.obj
 0003:00003f18       $SG18077                   0000000180089f18     c1_test.obj
 0003:00003f20       $SG18076                   0000000180089f20     c1_test.obj
 0003:00003f7c       $SG18078                   0000000180089f7c     c1_test.obj
 0003:00003f84       $SG19103                   0000000180089f84     c1_test.obj
 0003:00003f90       $SG18079                   0000000180089f90     c1_test.obj
 0003:00003fc8       $SG19104                   0000000180089fc8     c1_test.obj
 0003:00003fd0       $SG18080                   0000000180089fd0     c1_test.obj
 0003:0000401c       $SG19105                   000000018008a01c     c1_test.obj
 0003:00004028       $SG18081                   000000018008a028     c1_test.obj
 0003:00004038       $SG19106                   000000018008a038     c1_test.obj
 0003:00004040       $SG18083                   000000018008a040     c1_test.obj
 0003:00004080       $SG19108                   000000018008a080     c1_test.obj
 0003:00004088       $SG19109                   000000018008a088     c1_test.obj
 0003:00004090       $SG18084                   000000018008a090     c1_test.obj
 0003:000040e0       $SG18085                   000000018008a0e0     c1_test.obj
 0003:000040f4       $SG19110                   000000018008a0f4     c1_test.obj
 0003:000040fc       $SG18086                   000000018008a0fc     c1_test.obj
 0003:00004108       $SG19111                   000000018008a108     c1_test.obj
 0003:00004114       $SG19112                   000000018008a114     c1_test.obj
 0003:00004120       $SG18087                   000000018008a120     c1_test.obj
 0003:00004170       $SG18088                   000000018008a170     c1_test.obj
 0003:000041c0       $SG19113                   000000018008a1c0     c1_test.obj
 0003:000041d0       $SG18089                   000000018008a1d0     c1_test.obj
 0003:000041e4       $SG18090                   000000018008a1e4     c1_test.obj
 0003:000041ec       $SG19115                   000000018008a1ec     c1_test.obj
 0003:000041f4       $SG19116                   000000018008a1f4     c1_test.obj
 0003:00004200       $SG18091                   000000018008a200     c1_test.obj
 0003:00004250       $SG18092                   000000018008a250     c1_test.obj
 0003:000042a0       $SG19117                   000000018008a2a0     c1_test.obj
 0003:000042a8       $SG18093                   000000018008a2a8     c1_test.obj
 0003:000042b8       $SG19118                   000000018008a2b8     c1_test.obj
 0003:000042c0       $SG19119                   000000018008a2c0     c1_test.obj
 0003:000042d0       $SG18095                   000000018008a2d0     c1_test.obj
 0003:00004310       $SG19120                   000000018008a310     c1_test.obj
 0003:00004320       $SG18096                   000000018008a320     c1_test.obj
 0003:00004370       $SG18098                   000000018008a370     c1_test.obj
 0003:00004388       $SG18099                   000000018008a388     c1_test.obj
 0003:000043c0       $SG18100                   000000018008a3c0     c1_test.obj
 0003:00004410       $SG18101                   000000018008a410     c1_test.obj
 0003:00004420       $SG19126                   000000018008a420     c1_test.obj
 0003:00004428       $SG18102                   000000018008a428     c1_test.obj
 0003:00004430       $SG18103                   000000018008a430     c1_test.obj
 0003:00004470       $SG19128                   000000018008a470     c1_test.obj
 0003:00004478       $SG19129                   000000018008a478     c1_test.obj
 0003:00004480       $SG18104                   000000018008a480     c1_test.obj
 0003:000044d0       $SG18105                   000000018008a4d0     c1_test.obj
 0003:000044f0       $SG19130                   000000018008a4f0     c1_test.obj
 0003:000044f8       $SG19131                   000000018008a4f8     c1_test.obj
 0003:00004500       $SG18107                   000000018008a500     c1_test.obj
 0003:00004550       $SG18108                   000000018008a550     c1_test.obj
 0003:000045a0       $SG19133                   000000018008a5a0     c1_test.obj
 0003:000045a8       $SG18109                   000000018008a5a8     c1_test.obj
 0003:000045b8       $SG19134                   000000018008a5b8     c1_test.obj
 0003:000045c0       $SG18110                   000000018008a5c0     c1_test.obj
 0003:000045c8       $SG19135                   000000018008a5c8     c1_test.obj
 0003:000045d0       $SG18111                   000000018008a5d0     c1_test.obj
 0003:00004610       $SG19136                   000000018008a610     c1_test.obj
 0003:00004620       $SG18112                   000000018008a620     c1_test.obj
 0003:00004670       $SG19137                   000000018008a670     c1_test.obj
 0003:00004678       $SG18113                   000000018008a678     c1_test.obj
 0003:00004688       $SG19138                   000000018008a688     c1_test.obj
 0003:00004690       $SG18114                   000000018008a690     c1_test.obj
 0003:000046a8       $SG18115                   000000018008a6a8     c1_test.obj
 0003:000046e8       $SG18118                   000000018008a6e8     c1_test.obj
 0003:000046f0       $SG18116                   000000018008a6f0     c1_test.obj
 0003:00004740       $SG18117                   000000018008a740     c1_test.obj
 0003:00004750       $SG18119                   000000018008a750     c1_test.obj
 0003:00004790       $SG18120                   000000018008a790     c1_test.obj
 0003:000047d8       $SG18121                   000000018008a7d8     c1_test.obj
 0003:000047e8       $SG18122                   000000018008a7e8     c1_test.obj
 0003:000047f0       $SG19147                   000000018008a7f0     c1_test.obj
 0003:00004800       $SG18123                   000000018008a800     c1_test.obj
 0003:00004840       $SG19148                   000000018008a840     c1_test.obj
 0003:00004850       $SG18124                   000000018008a850     c1_test.obj
 0003:00004898       $SG19149                   000000018008a898     c1_test.obj
 0003:000048a0       $SG18125                   000000018008a8a0     c1_test.obj
 0003:000048c0       $SG19150                   000000018008a8c0     c1_test.obj
 0003:000048c8       $SG18130                   000000018008a8c8     c1_test.obj
 0003:000048d0       $SG18127                   000000018008a8d0     c1_test.obj
 0003:00004920       $SG18128                   000000018008a920     c1_test.obj
 0003:00004968       $SG18133                   000000018008a968     c1_test.obj
 0003:00004978       $SG18137                   000000018008a978     c1_test.obj
 0003:00004980       $SG19153                   000000018008a980     c1_test.obj
 0003:000049e8       $SG18129                   000000018008a9e8     c1_test.obj
 0003:000049f8       $SG18131                   000000018008a9f8     c1_test.obj
 0003:00004a38       $SG18138                   000000018008aa38     c1_test.obj
 0003:00004a40       $SG19154                   000000018008aa40     c1_test.obj
 0003:00004aa8       $SG18132                   000000018008aaa8     c1_test.obj
 0003:00004ae8       $SG18139                   000000018008aae8     c1_test.obj
 0003:00004b20       $SG18135                   000000018008ab20     c1_test.obj
 0003:00004b68       $SG18141                   000000018008ab68     c1_test.obj
 0003:00004b78       $SG18146                   000000018008ab78     c1_test.obj
 0003:00004b80       $SG18136                   000000018008ab80     c1_test.obj
 0003:00004be0       $SG18140                   000000018008abe0     c1_test.obj
 0003:00004c30       $SG18143                   000000018008ac30     c1_test.obj
 0003:00004c70       $SG18144                   000000018008ac70     c1_test.obj
 0003:00004cc0       $SG18145                   000000018008acc0     c1_test.obj
 0003:00004cd0       $SG18147                   000000018008acd0     c1_test.obj
 0003:00004d10       $SG19172                   000000018008ad10     c1_test.obj
 0003:00004d18       $SG18149                   000000018008ad18     c1_test.obj
 0003:00004d30       $SG18148                   000000018008ad30     c1_test.obj
 0003:00004d80       $SG18150                   000000018008ad80     c1_test.obj
 0003:00004d88       $SG18153                   000000018008ad88     c1_test.obj
 0003:00004d98       $SG18154                   000000018008ad98     c1_test.obj
 0003:00004da0       $SG18151                   000000018008ada0     c1_test.obj
 0003:00004df0       $SG18152                   000000018008adf0     c1_test.obj
 0003:00004e40       $SG18155                   000000018008ae40     c1_test.obj
 0003:00004e80       $SG18156                   000000018008ae80     c1_test.obj
 0003:00004ed0       $SG19181                   000000018008aed0     c1_test.obj
 0003:00004ee0       $SG18157                   000000018008aee0     c1_test.obj
 0003:00004ef0       $SG18158                   000000018008aef0     c1_test.obj
 0003:00004ef8       $SG18161                   000000018008aef8     c1_test.obj
 0003:00004f08       $SG18170                   000000018008af08     c1_test.obj
 0003:00004f20       $SG18159                   000000018008af20     c1_test.obj
 0003:00004f60       $SG18160                   000000018008af60     c1_test.obj
 0003:00004fb0       $SG18163                   000000018008afb0     c1_test.obj
 0003:00004ff0       $SG18164                   000000018008aff0     c1_test.obj
 0003:00005040       $SG18165                   000000018008b040     c1_test.obj
 0003:00005060       $SG18167                   000000018008b060     c1_test.obj
 0003:000050b0       $SG18168                   000000018008b0b0     c1_test.obj
 0003:00005100       $SG18169                   000000018008b100     c1_test.obj
 0003:00005110       $SG18171                   000000018008b110     c1_test.obj
 0003:00005150       $SG18172                   000000018008b150     c1_test.obj
 0003:000051a0       $SG18173                   000000018008b1a0     c1_test.obj
 0003:000051b0       $SG18174                   000000018008b1b0     c1_test.obj
 0003:000051c8       $SG18175                   000000018008b1c8     c1_test.obj
 0003:00005208       $SG18178                   000000018008b208     c1_test.obj
 0003:00005210       $SG18176                   000000018008b210     c1_test.obj
 0003:00005260       $SG18177                   000000018008b260     c1_test.obj
 0003:00005270       $SG18179                   000000018008b270     c1_test.obj
 0003:000052b0       $SG18180                   000000018008b2b0     c1_test.obj
 0003:00005328       $SG18181                   000000018008b328     c1_test.obj
 0003:00005330       $SG18182                   000000018008b330     c1_test.obj
 0003:00005338       $SG18183                   000000018008b338     c1_test.obj
 0003:00005378       $SG18185                   000000018008b378     c1_test.obj
 0003:00005380       $SG18184                   000000018008b380     c1_test.obj
 0003:000053d0       $SG18186                   000000018008b3d0     c1_test.obj
 0003:000053d8       $SG18187                   000000018008b3d8     c1_test.obj
 0003:00005410       $SG19234                   000000018008b410     c1_test.obj
 0003:00005428       ?c1_cv0@?1??c1_check_forloop_overflow_error@@9@9 000000018008b428     c1_test.obj
 0003:00005450       ?c1_cv1@?1??c1_check_forloop_overflow_error@@9@9 000000018008b450     c1_test.obj
 0003:00005468       $SG18241                   000000018008b468     c1_test.obj
 0003:00005470       $SG18242                   000000018008b470     c1_test.obj
 0003:00005478       $SG19267                   000000018008b478     c1_test.obj
 0003:00005490       $SG19271                   000000018008b490     c1_test.obj
 0003:000054a0       $SG19275                   000000018008b4a0     c1_test.obj
 0003:000054e8       $SG19288                   000000018008b4e8     c1_test.obj
 0003:00005500       $SG19290                   000000018008b500     c1_test.obj
 0003:00005510       $SG19294                   000000018008b510     c1_test.obj
 0003:00005558       ?c1_varargin_1@?1??c1_eml_warning@@9@9 000000018008b558     c1_test.obj
 0003:00005578       $SG18280                   000000018008b578     c1_test.obj
 0003:00005580       $SG18281                   000000018008b580     c1_test.obj
 0003:00005588       $SG19351                   000000018008b588     c1_test.obj
 0003:00005590       $SG19358                   000000018008b590     c1_test.obj
 0003:000055b8       $SG19379                   000000018008b5b8     c1_test.obj
 0003:000055c8       $SG19380                   000000018008b5c8     c1_test.obj
 0003:000055e0       $SG19391                   000000018008b5e0     c1_test.obj
 0003:00005610       $SG19416                   000000018008b610     c1_test.obj
 0003:00005670       $SG18432                   000000018008b670     c2_test.obj
 0003:00005678       $SG18433                   000000018008b678     c2_test.obj
 0003:000056b8       $SG18435                   000000018008b6b8     c2_test.obj
 0003:000056d0       $SG18434                   000000018008b6d0     c2_test.obj
 0003:00005714       $SG18436                   000000018008b714     c2_test.obj
 0003:00005720       $SG18437                   000000018008b720     c2_test.obj
 0003:00005764       $SG18439                   000000018008b764     c2_test.obj
 0003:00005768       $SG18440                   000000018008b768     c2_test.obj
 0003:00005770       $SG18438                   000000018008b770     c2_test.obj
 0003:000057b4       $SG18479                   000000018008b7b4     c2_test.obj
 0003:000057b8       $SG18441                   000000018008b7b8     c2_test.obj
 0003:000057f0       $SG18442                   000000018008b7f0     c2_test.obj
 0003:00005828       $SG18443                   000000018008b828     c2_test.obj
 0003:00005838       $SG18444                   000000018008b838     c2_test.obj
 0003:00005840       $SG18445                   000000018008b840     c2_test.obj
 0003:00005880       $SG18446                   000000018008b880     c2_test.obj
 0003:000058d0       $SG18447                   000000018008b8d0     c2_test.obj
 0003:000058e0       $SG18448                   000000018008b8e0     c2_test.obj
 0003:000058e8       $SG18449                   000000018008b8e8     c2_test.obj
 0003:00005928       $SG18451                   000000018008b928     c2_test.obj
 0003:00005940       $SG18450                   000000018008b940     c2_test.obj
 0003:00005990       $SG18452                   000000018008b990     c2_test.obj
 0003:00005998       $SG18455                   000000018008b998     c2_test.obj
 0003:000059a8       $SG18460                   000000018008b9a8     c2_test.obj
 0003:000059b0       $SG18453                   000000018008b9b0     c2_test.obj
 0003:000059f8       $SG18459                   000000018008b9f8     c2_test.obj
 0003:00005a08       $SG18463                   000000018008ba08     c2_test.obj
 0003:00005a18       $SG18471                   000000018008ba18     c2_test.obj
 0003:00005a20       $SG18454                   000000018008ba20     c2_test.obj
 0003:00005a70       $SG18457                   000000018008ba70     c2_test.obj
 0003:00005ab0       $SG18458                   000000018008bab0     c2_test.obj
 0003:00005b08       $SG18461                   000000018008bb08     c2_test.obj
 0003:00005b48       $SG18467                   000000018008bb48     c2_test.obj
 0003:00005b68       $SG18472                   000000018008bb68     c2_test.obj
 0003:00005b70       $SG18462                   000000018008bb70     c2_test.obj
 0003:00005bb4       $SG18475                   000000018008bbb4     c2_test.obj
 0003:00005bc0       $SG18465                   000000018008bbc0     c2_test.obj
 0003:00005c00       $SG18466                   000000018008bc00     c2_test.obj
 0003:00005c44       $SG18476                   000000018008bc44     c2_test.obj
 0003:00005c50       $SG18469                   000000018008bc50     c2_test.obj
 0003:00005ca0       $SG18470                   000000018008bca0     c2_test.obj
 0003:00005d18       $SG18473                   000000018008bd18     c2_test.obj
 0003:00005d54       $SG18480                   000000018008bd54     c2_test.obj
 0003:00005d5c       $SG18523                   000000018008bd5c     c2_test.obj
 0003:00005d60       $SG18477                   000000018008bd60     c2_test.obj
 0003:00005d98       $SG18481                   000000018008bd98     c2_test.obj
 0003:00005dcc       $SG18531                   000000018008bdcc     c2_test.obj
 0003:00005dd0       $SG18482                   000000018008bdd0     c2_test.obj
 0003:00005e04       $SG18483                   000000018008be04     c2_test.obj
 0003:00005e0c       $SG18484                   000000018008be0c     c2_test.obj
 0003:00005e14       $SG18539                   000000018008be14     c2_test.obj
 0003:00005e18       $SG18485                   000000018008be18     c2_test.obj
 0003:00005e50       $SG18486                   000000018008be50     c2_test.obj
 0003:00005e88       $SG18487                   000000018008be88     c2_test.obj
 0003:00005e98       $SG18490                   000000018008be98     c2_test.obj
 0003:00005ed0       $SG18489                   000000018008bed0     c2_test.obj
 0003:00005f10       $SG18491                   000000018008bf10     c2_test.obj
 0003:00005f20       $SG18492                   000000018008bf20     c2_test.obj
 0003:00005f28       $SG18493                   000000018008bf28     c2_test.obj
 0003:00005f68       $SG18494                   000000018008bf68     c2_test.obj
 0003:00005fa0       $SG18495                   000000018008bfa0     c2_test.obj
 0003:00005fac       $SG18496                   000000018008bfac     c2_test.obj
 0003:00005fb4       $SG18503                   000000018008bfb4     c2_test.obj
 0003:00005fbc       $SG16633                   000000018008bfbc     c2_test.obj
 0003:00005fc0       $SG18497                   000000018008bfc0     c2_test.obj
 0003:00006000       $SG18498                   000000018008c000     c2_test.obj
 0003:00006040       $SG18499                   000000018008c040     c2_test.obj
 0003:00006050       $SG18501                   000000018008c050     c2_test.obj
 0003:00006098       $SG18504                   000000018008c098     c2_test.obj
 0003:000060a0       $SG18502                   000000018008c0a0     c2_test.obj
 0003:00006100       $SG18505                   000000018008c100     c2_test.obj
 0003:00006138       $SG18507                   000000018008c138     c2_test.obj
 0003:00006148       $SG18512                   000000018008c148     c2_test.obj
 0003:00006150       $SG18506                   000000018008c150     c2_test.obj
 0003:000061a0       $SG18509                   000000018008c1a0     c2_test.obj
 0003:000061e0       $SG18510                   000000018008c1e0     c2_test.obj
 0003:00006230       $SG18511                   000000018008c230     c2_test.obj
 0003:00006240       $SG18513                   000000018008c240     c2_test.obj
 0003:00006280       $SG18514                   000000018008c280     c2_test.obj
 0003:000062d0       $SG18515                   000000018008c2d0     c2_test.obj
 0003:000062e4       $SG18516                   000000018008c2e4     c2_test.obj
 0003:000062f0       $SG18517                   000000018008c2f0     c2_test.obj
 0003:00006340       $SG18518                   000000018008c340     c2_test.obj
 0003:00006374       $SG18519                   000000018008c374     c2_test.obj
 0003:0000637c       $SG18520                   000000018008c37c     c2_test.obj
 0003:00006384       $SG16634                   000000018008c384     c2_test.obj
 0003:00006388       $SG18521                   000000018008c388     c2_test.obj
 0003:000063c0       $SG18524                   000000018008c3c0     c2_test.obj
 0003:000063c8       $SG18525                   000000018008c3c8     c2_test.obj
 0003:00006400       $SG18526                   000000018008c400     c2_test.obj
 0003:00006438       $SG18527                   000000018008c438     c2_test.obj
 0003:00006448       $SG18528                   000000018008c448     c2_test.obj
 0003:00006450       $SG18529                   000000018008c450     c2_test.obj
 0003:00006494       $SG18532                   000000018008c494     c2_test.obj
 0003:0000649c       $SG16636                   000000018008c49c     c2_test.obj
 0003:000064a0       $SG18533                   000000018008c4a0     c2_test.obj
 0003:000064d8       $SG18534                   000000018008c4d8     c2_test.obj
 0003:00006510       $SG18535                   000000018008c510     c2_test.obj
 0003:00006520       $SG18536                   000000018008c520     c2_test.obj
 0003:00006528       $SG18540                   000000018008c528     c2_test.obj
 0003:00006530       $SG18537                   000000018008c530     c2_test.obj
 0003:00006574       $SG18544                   000000018008c574     c2_test.obj
 0003:0000657c       $SG16637                   000000018008c57c     c2_test.obj
 0003:00006580       $SG18541                   000000018008c580     c2_test.obj
 0003:000065b8       $SG18542                   000000018008c5b8     c2_test.obj
 0003:000065f0       $SG18543                   000000018008c5f0     c2_test.obj
 0003:000065f8       $SG18545                   000000018008c5f8     c2_test.obj
 0003:00006634       $SG18548                   000000018008c634     c2_test.obj
 0003:0000663c       $SG16638                   000000018008c63c     c2_test.obj
 0003:00006640       $SG18546                   000000018008c640     c2_test.obj
 0003:0000667c       $SG18552                   000000018008c67c     c2_test.obj
 0003:00006684       $SG16639                   000000018008c684     c2_test.obj
 0003:00006688       $SG18547                   000000018008c688     c2_test.obj
 0003:000066a0       $SG18549                   000000018008c6a0     c2_test.obj
 0003:000066e4       $SG18556                   000000018008c6e4     c2_test.obj
 0003:000066ec       $SG16640                   000000018008c6ec     c2_test.obj
 0003:000066f0       $SG18550                   000000018008c6f0     c2_test.obj
 0003:00006728       $SG18551                   000000018008c728     c2_test.obj
 0003:00006748       $SG18554                   000000018008c748     c2_test.obj
 0003:00006780       $SG18553                   000000018008c780     c2_test.obj
 0003:000067cc       $SG16641                   000000018008c7cc     c2_test.obj
 0003:000067d0       $SG18555                   000000018008c7d0     c2_test.obj
 0003:000067e0       $SG18557                   000000018008c7e0     c2_test.obj
 0003:00006820       $SG18558                   000000018008c820     c2_test.obj
 0003:00006858       $SG18559                   000000018008c858     c2_test.obj
 0003:00006868       $SG18562                   000000018008c868     c2_test.obj
 0003:000068a0       $SG18561                   000000018008c8a0     c2_test.obj
 0003:000068e0       $SG18563                   000000018008c8e0     c2_test.obj
 0003:00006900       $SG18565                   000000018008c900     c2_test.obj
 0003:00006950       $SG18566                   000000018008c950     c2_test.obj
 0003:00006988       $SG18567                   000000018008c988     c2_test.obj
 0003:00006994       $SG18568                   000000018008c994     c2_test.obj
 0003:0000699c       $SG16647                   000000018008c99c     c2_test.obj
 0003:000069a0       $SG18569                   000000018008c9a0     c2_test.obj
 0003:000069e0       $SG18570                   000000018008c9e0     c2_test.obj
 0003:00006a20       $SG18571                   000000018008ca20     c2_test.obj
 0003:00006a30       $SG18573                   000000018008ca30     c2_test.obj
 0003:00006a78       $SG18574                   000000018008ca78     c2_test.obj
 0003:00006ab8       $SG18575                   000000018008cab8     c2_test.obj
 0003:00006ac4       $SG18576                   000000018008cac4     c2_test.obj
 0003:00006acc       $SG16648                   000000018008cacc     c2_test.obj
 0003:00006ad0       $SG18577                   000000018008cad0     c2_test.obj
 0003:00006b10       $SG18578                   000000018008cb10     c2_test.obj
 0003:00006b50       $SG18579                   000000018008cb50     c2_test.obj
 0003:00006b60       $SG18581                   000000018008cb60     c2_test.obj
 0003:00006ba8       $SG18583                   000000018008cba8     c2_test.obj
 0003:00006bb8       $SG18587                   000000018008cbb8     c2_test.obj
 0003:00006bd0       $SG18582                   000000018008cbd0     c2_test.obj
 0003:00006c20       $SG18585                   000000018008cc20     c2_test.obj
 0003:00006c60       $SG18586                   000000018008cc60     c2_test.obj
 0003:00006cac       $SG18588                   000000018008ccac     c2_test.obj
 0003:00006cb8       $SG18591                   000000018008ccb8     c2_test.obj
 0003:00006cd0       $SG18589                   000000018008ccd0     c2_test.obj
 0003:00006d20       $SG18590                   000000018008cd20     c2_test.obj
 0003:00006d70       $SG18592                   000000018008cd70     c2_test.obj
 0003:00006d78       $SG18595                   000000018008cd78     c2_test.obj
 0003:00006d88       $SG18596                   000000018008cd88     c2_test.obj
 0003:00006d90       $SG18593                   000000018008cd90     c2_test.obj
 0003:00006de0       $SG18594                   000000018008cde0     c2_test.obj
 0003:00006e30       $SG18597                   000000018008ce30     c2_test.obj
 0003:00006e70       $SG18598                   000000018008ce70     c2_test.obj
 0003:00006ec0       $SG18599                   000000018008cec0     c2_test.obj
 0003:00006ed0       $SG18601                   000000018008ced0     c2_test.obj
 0003:00006f10       $SG18602                   000000018008cf10     c2_test.obj
 0003:00006f60       $SG18603                   000000018008cf60     c2_test.obj
 0003:00006f70       $SG18604                   000000018008cf70     c2_test.obj
 0003:00006f78       $SG18607                   000000018008cf78     c2_test.obj
 0003:00006f88       $SG18612                   000000018008cf88     c2_test.obj
 0003:00006fa0       $SG18605                   000000018008cfa0     c2_test.obj
 0003:00006fe0       $SG18606                   000000018008cfe0     c2_test.obj
 0003:00007020       $SG18609                   000000018008d020     c2_test.obj
 0003:00007060       $SG18610                   000000018008d060     c2_test.obj
 0003:000070b0       $SG18611                   000000018008d0b0     c2_test.obj
 0003:000070c0       $SG18613                   000000018008d0c0     c2_test.obj
 0003:00007100       $SG18614                   000000018008d100     c2_test.obj
 0003:00007140       $SG18615                   000000018008d140     c2_test.obj
 0003:00007150       $SG18617                   000000018008d150     c2_test.obj
 0003:00007190       $SG18618                   000000018008d190     c2_test.obj
 0003:000071e0       $SG18619                   000000018008d1e0     c2_test.obj
 0003:000071f0       $SG18620                   000000018008d1f0     c2_test.obj
 0003:00007208       $SG18621                   000000018008d208     c2_test.obj
 0003:00007248       $SG18622                   000000018008d248     c2_test.obj
 0003:00007288       $SG18623                   000000018008d288     c2_test.obj
 0003:00007298       $SG18631                   000000018008d298     c2_test.obj
 0003:000072a0       $SG18625                   000000018008d2a0     c2_test.obj
 0003:000072e0       $SG18626                   000000018008d2e0     c2_test.obj
 0003:00007330       $SG18627                   000000018008d330     c2_test.obj
 0003:00007350       $SG18629                   000000018008d350     c2_test.obj
 0003:000073a0       $SG18632                   000000018008d3a0     c2_test.obj
 0003:000073a8       $SG18633                   000000018008d3a8     c2_test.obj
 0003:000073e0       $SG18634                   000000018008d3e0     c2_test.obj
 0003:00007418       $SG18635                   000000018008d418     c2_test.obj
 0003:00007424       $SG18636                   000000018008d424     c2_test.obj
 0003:0000742c       $SG18640                   000000018008d42c     c2_test.obj
 0003:00007434       $SG16650                   000000018008d434     c2_test.obj
 0003:00007438       $SG18637                   000000018008d438     c2_test.obj
 0003:00007474       $SG18644                   000000018008d474     c2_test.obj
 0003:0000747c       $SG16651                   000000018008d47c     c2_test.obj
 0003:00007480       $SG18638                   000000018008d480     c2_test.obj
 0003:000074b8       $SG18639                   000000018008d4b8     c2_test.obj
 0003:000074c8       $SG18647                   000000018008d4c8     c2_test.obj
 0003:000074d0       $SG18641                   000000018008d4d0     c2_test.obj
 0003:00007514       $SG18648                   000000018008d514     c2_test.obj
 0003:0000751c       $SG16653                   000000018008d51c     c2_test.obj
 0003:00007520       $SG18643                   000000018008d520     c2_test.obj
 0003:0000752c       $SG18652                   000000018008d52c     c2_test.obj
 0003:00007534       $SG18702                   000000018008d534     c2_test.obj
 0003:00007538       $SG18645                   000000018008d538     c2_test.obj
 0003:00007574       $SG18656                   000000018008d574     c2_test.obj
 0003:0000757c       $SG16654                   000000018008d57c     c2_test.obj
 0003:00007580       $SG18646                   000000018008d580     c2_test.obj
 0003:000075bc       $SG18660                   000000018008d5bc     c2_test.obj
 0003:000075c4       $SG16655                   000000018008d5c4     c2_test.obj
 0003:000075c8       $SG18649                   000000018008d5c8     c2_test.obj
 0003:00007600       $SG18650                   000000018008d600     c2_test.obj
 0003:00007638       $SG18651                   000000018008d638     c2_test.obj
 0003:00007650       $SG18653                   000000018008d650     c2_test.obj
 0003:00007698       $SG18654                   000000018008d698     c2_test.obj
 0003:000076d0       $SG18655                   000000018008d6d0     c2_test.obj
 0003:000076d8       $SG18657                   000000018008d6d8     c2_test.obj
 0003:00007710       $SG18659                   000000018008d710     c2_test.obj
 0003:0000771c       $SG18664                   000000018008d71c     c2_test.obj
 0003:00007724       $SG16656                   000000018008d724     c2_test.obj
 0003:00007728       $SG18661                   000000018008d728     c2_test.obj
 0003:00007764       $SG16629                   000000018008d764     c2_test.obj
 0003:0000776c       $SG16661                   000000018008d76c     c2_test.obj
 0003:00007770       $SG18662                   000000018008d770     c2_test.obj
 0003:000077ac       $SG16630                   000000018008d7ac     c2_test.obj
 0003:000077b4       $SG18679                   000000018008d7b4     c2_test.obj
 0003:000077bc       $SG16662                   000000018008d7bc     c2_test.obj
 0003:000077c0       $SG18663                   000000018008d7c0     c2_test.obj
 0003:000077cc       $SG16663                   000000018008d7cc     c2_test.obj
 0003:000077d0       $SG18665                   000000018008d7d0     c2_test.obj
 0003:0000780c       $SG18718                   000000018008d80c     c2_test.obj
 0003:00007810       $SG18669                   000000018008d810     c2_test.obj
 0003:0000784c       $SG18858                   000000018008d84c     c2_test.obj
 0003:00007850       $SG18670                   000000018008d850     c2_test.obj
 0003:00007860       c2_debug_family_names      000000018008d860     c2_test.obj
 0003:000078f8       $SG16626                   000000018008d8f8     c2_test.obj
 0003:00007900       $SG18672                   000000018008d900     c2_test.obj
 0003:00007940       $SG18673                   000000018008d940     c2_test.obj
 0003:00007988       $SG16625                   000000018008d988     c2_test.obj
 0003:00007998       $SG18674                   000000018008d998     c2_test.obj
 0003:000079a8       $SG16627                   000000018008d9a8     c2_test.obj
 0003:000079b0       $SG18676                   000000018008d9b0     c2_test.obj
 0003:000079f0       $SG16628                   000000018008d9f0     c2_test.obj
 0003:000079f8       $SG16631                   000000018008d9f8     c2_test.obj
 0003:00007a00       $SG18677                   000000018008da00     c2_test.obj
 0003:00007a48       $SG18678                   000000018008da48     c2_test.obj
 0003:00007a58       $SG16632                   000000018008da58     c2_test.obj
 0003:00007a60       $SG18680                   000000018008da60     c2_test.obj
 0003:00007aa8       $SG18682                   000000018008daa8     c2_test.obj
 0003:00007ac0       $SG18681                   000000018008dac0     c2_test.obj
 0003:00007b04       $SG18683                   000000018008db04     c2_test.obj
 0003:00007b0c       $SG16635                   000000018008db0c     c2_test.obj
 0003:00007b18       $SG18686                   000000018008db18     c2_test.obj
 0003:00007b30       $SG18684                   000000018008db30     c2_test.obj
 0003:00007b84       $SG18687                   000000018008db84     c2_test.obj
 0003:00007b90       $SG18685                   000000018008db90     c2_test.obj
 0003:00007be8       $SG18690                   000000018008dbe8     c2_test.obj
 0003:00007bf0       $SG18688                   000000018008dbf0     c2_test.obj
 0003:00007c40       $SG18689                   000000018008dc40     c2_test.obj
 0003:00007c90       $SG16642                   000000018008dc90     c2_test.obj
 0003:00007c98       $SG18691                   000000018008dc98     c2_test.obj
 0003:00007ca0       $SG16643                   000000018008dca0     c2_test.obj
 0003:00007ca8       c2_b_debug_family_names    000000018008dca8     c2_test.obj
 0003:00007cc8       $SG18692                   000000018008dcc8     c2_test.obj
 0003:00007d04       $SG16645                   000000018008dd04     c2_test.obj
 0003:00007d0c       $SG18894                   000000018008dd0c     c2_test.obj
 0003:00007d10       $SG18693                   000000018008dd10     c2_test.obj
 0003:00007d4c       $SG16659                   000000018008dd4c     c2_test.obj
 0003:00007d54       $SG18937                   000000018008dd54     c2_test.obj
 0003:00007d58       $SG18694                   000000018008dd58     c2_test.obj
 0003:00007d64       $SG17935                   000000018008dd64     c2_test.obj
 0003:00007d68       $SG16646                   000000018008dd68     c2_test.obj
 0003:00007d70       $SG18695                   000000018008dd70     c2_test.obj
 0003:00007d78       $SG18696                   000000018008dd78     c2_test.obj
 0003:00007db4       $SG18699                   000000018008ddb4     c2_test.obj
 0003:00007dc0       c2_c_debug_family_names    000000018008ddc0     c2_test.obj
 0003:00007e30       $SG18697                   000000018008de30     c2_test.obj
 0003:00007e6c       $SG18961                   000000018008de6c     c2_test.obj
 0003:00007e70       $SG18698                   000000018008de70     c2_test.obj
 0003:00007e80       $SG18700                   000000018008de80     c2_test.obj
 0003:00007ec0       $SG16652                   000000018008dec0     c2_test.obj
 0003:00007ec8       $SG18703                   000000018008dec8     c2_test.obj
 0003:00007ed0       $SG18701                   000000018008ded0     c2_test.obj
 0003:00007f20       $SG18704                   000000018008df20     c2_test.obj
 0003:00007f58       $SG18705                   000000018008df58     c2_test.obj
 0003:00007f90       $SG16657                   000000018008df90     c2_test.obj
 0003:00007f98       $SG18706                   000000018008df98     c2_test.obj
 0003:00007fac       $SG18006                   000000018008dfac     c2_test.obj
 0003:00007fb0       $SG16658                   000000018008dfb0     c2_test.obj
 0003:00007fb8       $SG18707                   000000018008dfb8     c2_test.obj
 0003:00007fc0       $SG18708                   000000018008dfc0     c2_test.obj
 0003:00008004       $SG18022                   000000018008e004     c2_test.obj
 0003:00008008       $SG16660                   000000018008e008     c2_test.obj
 0003:00008010       $SG18709                   000000018008e010     c2_test.obj
 0003:00008048       $SG18710                   000000018008e048     c2_test.obj
 0003:00008050       $SG18711                   000000018008e050     c2_test.obj
 0003:00008058       $SG18712                   000000018008e058     c2_test.obj
 0003:00008090       $SG18713                   000000018008e090     c2_test.obj
 0003:000080c8       $SG18714                   000000018008e0c8     c2_test.obj
 0003:000080d8       $SG18715                   000000018008e0d8     c2_test.obj
 0003:000080e0       $SG18716                   000000018008e0e0     c2_test.obj
 0003:00008120       $SG18717                   000000018008e120     c2_test.obj
 0003:00008170       $SG18719                   000000018008e170     c2_test.obj
 0003:00008188       $SG18720                   000000018008e188     c2_test.obj
 0003:000081c0       $SG18721                   000000018008e1c0     c2_test.obj
 0003:00008210       $SG18722                   000000018008e210     c2_test.obj
 0003:00008220       $SG18723                   000000018008e220     c2_test.obj
 0003:00008238       $SG18724                   000000018008e238     c2_test.obj
 0003:00008278       $SG18726                   000000018008e278     c2_test.obj
 0003:00008290       $SG18725                   000000018008e290     c2_test.obj
 0003:000082e0       $SG18727                   000000018008e2e0     c2_test.obj
 0003:000082f8       $SG18731                   000000018008e2f8     c2_test.obj
 0003:00008310       $SG18728                   000000018008e310     c2_test.obj
 0003:00008358       $SG18730                   000000018008e358     c2_test.obj
 0003:00008368       $SG18734                   000000018008e368     c2_test.obj
 0003:00008370       $SG18729                   000000018008e370     c2_test.obj
 0003:000083c8       $SG18732                   000000018008e3c8     c2_test.obj
 0003:00008408       $SG18735                   000000018008e408     c2_test.obj
 0003:00008410       $SG18733                   000000018008e410     c2_test.obj
 0003:00008460       $SG18736                   000000018008e460     c2_test.obj
 0003:00008498       $SG18737                   000000018008e498     c2_test.obj
 0003:000084d0       $SG18738                   000000018008e4d0     c2_test.obj
 0003:000084d8       $SG18739                   000000018008e4d8     c2_test.obj
 0003:000084e0       $SG18740                   000000018008e4e0     c2_test.obj
 0003:00008518       $SG18741                   000000018008e518     c2_test.obj
 0003:00008550       $SG18742                   000000018008e550     c2_test.obj
 0003:00008558       $SG18743                   000000018008e558     c2_test.obj
 0003:00008560       $SG18744                   000000018008e560     c2_test.obj
 0003:00008598       $SG18745                   000000018008e598     c2_test.obj
 0003:000085d0       $SG18746                   000000018008e5d0     c2_test.obj
 0003:000085e4       $SG18747                   000000018008e5e4     c2_test.obj
 0003:000085f0       $SG18748                   000000018008e5f0     c2_test.obj
 0003:00008634       $SG18750                   000000018008e634     c2_test.obj
 0003:00008640       $SG18749                   000000018008e640     c2_test.obj
 0003:00008684       $SG18751                   000000018008e684     c2_test.obj
 0003:0000868c       $SG18754                   000000018008e68c     c2_test.obj
 0003:00008694       $SG18057                   000000018008e694     c2_test.obj
 0003:00008698       $SG18752                   000000018008e698     c2_test.obj
 0003:000086d4       $SG18755                   000000018008e6d4     c2_test.obj
 0003:000086e0       $SG18753                   000000018008e6e0     c2_test.obj
 0003:00008724       $SG18758                   000000018008e724     c2_test.obj
 0003:0000872c       $SG20120                   000000018008e72c     c2_test.obj
 0003:00008730       $SG18756                   000000018008e730     c2_test.obj
 0003:00008770       $SG18757                   000000018008e770     c2_test.obj
 0003:000087c4       $SG18759                   000000018008e7c4     c2_test.obj
 0003:000087cc       $SG18762                   000000018008e7cc     c2_test.obj
 0003:000087d4       $SG20122                   000000018008e7d4     c2_test.obj
 0003:000087d8       $SG18760                   000000018008e7d8     c2_test.obj
 0003:00008814       $SG18763                   000000018008e814     c2_test.obj
 0003:00008820       $SG18761                   000000018008e820     c2_test.obj
 0003:00008874       $SG20124                   000000018008e874     c2_test.obj
 0003:00008878       $SG18764                   000000018008e878     c2_test.obj
 0003:000088b8       $SG18766                   000000018008e8b8     c2_test.obj
 0003:000088c8       $SG18767                   000000018008e8c8     c2_test.obj
 0003:000088e0       $SG18765                   000000018008e8e0     c2_test.obj
 0003:00008934       $SG20125                   000000018008e934     c2_test.obj
 0003:00008938       $SG18768                   000000018008e938     c2_test.obj
 0003:00008978       $SG18770                   000000018008e978     c2_test.obj
 0003:00008990       $SG18769                   000000018008e990     c2_test.obj
 0003:000089e4       $SG18771                   000000018008e9e4     c2_test.obj
 0003:000089f0       $SG18772                   000000018008e9f0     c2_test.obj
 0003:00008a38       $SG18774                   000000018008ea38     c2_test.obj
 0003:00008a48       $SG18782                   000000018008ea48     c2_test.obj
 0003:00008a50       $SG18773                   000000018008ea50     c2_test.obj
 0003:00008a98       $SG18778                   000000018008ea98     c2_test.obj
 0003:00008aa8       $SG18783                   000000018008eaa8     c2_test.obj
 0003:00008ab0       $SG18776                   000000018008eab0     c2_test.obj
 0003:00008af0       $SG18777                   000000018008eaf0     c2_test.obj
 0003:00008b48       $SG18786                   000000018008eb48     c2_test.obj
 0003:00008b58       $SG18787                   000000018008eb58     c2_test.obj
 0003:00008b70       $SG18780                   000000018008eb70     c2_test.obj
 0003:00008bb0       $SG18781                   000000018008ebb0     c2_test.obj
 0003:00008c04       $SG20126                   000000018008ec04     c2_test.obj
 0003:00008c08       $SG18784                   000000018008ec08     c2_test.obj
 0003:00008c48       $SG18788                   000000018008ec48     c2_test.obj
 0003:00008c88       $SG18790                   000000018008ec88     c2_test.obj
 0003:00008c98       $SG18791                   000000018008ec98     c2_test.obj
 0003:00008ca0       $SG18785                   000000018008eca0     c2_test.obj
 0003:00008cf8       $SG18792                   000000018008ecf8     c2_test.obj
 0003:00008d38       $SG18798                   000000018008ed38     c2_test.obj
 0003:00008d48       $SG18803                   000000018008ed48     c2_test.obj
 0003:00008d50       $SG18789                   000000018008ed50     c2_test.obj
 0003:00008da8       $SG18794                   000000018008eda8     c2_test.obj
 0003:00008dc8       $SG18810                   000000018008edc8     c2_test.obj
 0003:00008dd8       $SG18811                   000000018008edd8     c2_test.obj
 0003:00008de0       $SG18793                   000000018008ede0     c2_test.obj
 0003:00008e30       $SG18796                   000000018008ee30     c2_test.obj
 0003:00008e80       $SG18797                   000000018008ee80     c2_test.obj
 0003:00008ed0       $SG18800                   000000018008eed0     c2_test.obj
 0003:00008f10       $SG18801                   000000018008ef10     c2_test.obj
 0003:00008f60       $SG18802                   000000018008ef60     c2_test.obj
 0003:00008f70       $SG18804                   000000018008ef70     c2_test.obj
 0003:00008fb0       $SG18805                   000000018008efb0     c2_test.obj
 0003:00009000       $SG18806                   000000018008f000     c2_test.obj
 0003:00009020       $SG18808                   000000018008f020     c2_test.obj
 0003:00009070       $SG18809                   000000018008f070     c2_test.obj
 0003:000090c0       $SG18812                   000000018008f0c0     c2_test.obj
 0003:00009100       $SG18813                   000000018008f100     c2_test.obj
 0003:00009150       $SG18814                   000000018008f150     c2_test.obj
 0003:00009160       $SG18815                   000000018008f160     c2_test.obj
 0003:00009178       $SG18819                   000000018008f178     c2_test.obj
 0003:00009190       $SG18816                   000000018008f190     c2_test.obj
 0003:000091d0       $SG18817                   000000018008f1d0     c2_test.obj
 0003:00009220       $SG18818                   000000018008f220     c2_test.obj
 0003:00009230       $SG18820                   000000018008f230     c2_test.obj
 0003:00009270       $SG18821                   000000018008f270     c2_test.obj
 0003:000092c0       $SG18822                   000000018008f2c0     c2_test.obj
 0003:000092d0       $SG18823                   000000018008f2d0     c2_test.obj
 0003:000092e8       $SG18824                   000000018008f2e8     c2_test.obj
 0003:00009328       $SG18827                   000000018008f328     c2_test.obj
 0003:00009330       $SG18825                   000000018008f330     c2_test.obj
 0003:00009380       $SG18826                   000000018008f380     c2_test.obj
 0003:00009390       $SG18828                   000000018008f390     c2_test.obj
 0003:000093d0       $SG18829                   000000018008f3d0     c2_test.obj
 0003:00009410       $SG18830                   000000018008f410     c2_test.obj
 0003:00009420       $SG18832                   000000018008f420     c2_test.obj
 0003:00009468       $SG18834                   000000018008f468     c2_test.obj
 0003:00009470       $SG18833                   000000018008f470     c2_test.obj
 0003:000094d0       $SG18835                   000000018008f4d0     c2_test.obj
 0003:000094d8       $SG18836                   000000018008f4d8     c2_test.obj
 0003:00009518       $SG18838                   000000018008f518     c2_test.obj
 0003:00009528       $SG18846                   000000018008f528     c2_test.obj
 0003:00009540       $SG18837                   000000018008f540     c2_test.obj
 0003:00009588       $SG18842                   000000018008f588     c2_test.obj
 0003:00009598       $SG18847                   000000018008f598     c2_test.obj
 0003:000095a0       $SG18840                   000000018008f5a0     c2_test.obj
 0003:000095e0       $SG18841                   000000018008f5e0     c2_test.obj
 0003:00009630       $SG18844                   000000018008f630     c2_test.obj
 0003:00009670       $SG18845                   000000018008f670     c2_test.obj
 0003:000096c0       $SG18848                   000000018008f6c0     c2_test.obj
 0003:00009710       $SG18849                   000000018008f710     c2_test.obj
 0003:00009760       $SG18850                   000000018008f760     c2_test.obj
 0003:00009770       $SG18852                   000000018008f770     c2_test.obj
 0003:000097b0       $SG18853                   000000018008f7b0     c2_test.obj
 0003:00009800       $SG18854                   000000018008f800     c2_test.obj
 0003:0000980c       $SG18855                   000000018008f80c     c2_test.obj
 0003:00009814       $SG18859                   000000018008f814     c2_test.obj
 0003:00009820       $SG18856                   000000018008f820     c2_test.obj
 0003:00009860       $SG18857                   000000018008f860     c2_test.obj
 0003:000098a0       $SG18860                   000000018008f8a0     c2_test.obj
 0003:000098d8       $SG18861                   000000018008f8d8     c2_test.obj
 0003:00009910       $SG18862                   000000018008f910     c2_test.obj
 0003:00009920       $SG18863                   000000018008f920     c2_test.obj
 0003:00009928       $SG19891                   000000018008f928     c2_test.obj
 0003:00009930       $SG18864                   000000018008f930     c2_test.obj
 0003:00009974       $SG19892                   000000018008f974     c2_test.obj
 0003:0000997c       $SG20127                   000000018008f97c     c2_test.obj
 0003:00009980       $SG19889                   000000018008f980     c2_test.obj
 0003:00009990       $SG18865                   000000018008f990     c2_test.obj
 0003:000099e0       $SG19890                   000000018008f9e0     c2_test.obj
 0003:000099ec       $SG19897                   000000018008f9ec     c2_test.obj
 0003:000099f4       $SG20128                   000000018008f9f4     c2_test.obj
 0003:000099f8       $SG18866                   000000018008f9f8     c2_test.obj
 0003:00009a18       $SG19895                   000000018008fa18     c2_test.obj
 0003:00009a20       $SG18868                   000000018008fa20     c2_test.obj
 0003:00009a70       $SG19893                   000000018008fa70     c2_test.obj
 0003:00009a80       $SG18869                   000000018008fa80     c2_test.obj
 0003:00009ad0       $SG19894                   000000018008fad0     c2_test.obj
 0003:00009adc       $SG20129                   000000018008fadc     c2_test.obj
 0003:00009ae0       $SG18870                   000000018008fae0     c2_test.obj
 0003:00009af0       $SG18871                   000000018008faf0     c2_test.obj
 0003:00009b08       $SG19896                   000000018008fb08     c2_test.obj
 0003:00009b10       $SG18872                   000000018008fb10     c2_test.obj
 0003:00009b50       $SG18873                   000000018008fb50     c2_test.obj
 0003:00009ba0       $SG19898                   000000018008fba0     c2_test.obj
 0003:00009ba8       $SG18874                   000000018008fba8     c2_test.obj
 0003:00009bb4       $SG18875                   000000018008fbb4     c2_test.obj
 0003:00009bbc       $SG20137                   000000018008fbbc     c2_test.obj
 0003:00009bc0       $SG18876                   000000018008fbc0     c2_test.obj
 0003:00009c00       $SG19901                   000000018008fc00     c2_test.obj
 0003:00009c18       $SG18877                   000000018008fc18     c2_test.obj
 0003:00009c58       $SG19902                   000000018008fc58     c2_test.obj
 0003:00009c64       $SG18887                   000000018008fc64     c2_test.obj
 0003:00009c6c       $SG19129                   000000018008fc6c     c2_test.obj
 0003:00009c70       $SG18878                   000000018008fc70     c2_test.obj
 0003:00009c80       $SG19904                   000000018008fc80     c2_test.obj
 0003:00009c88       $SG19905                   000000018008fc88     c2_test.obj
 0003:00009c90       $SG18880                   000000018008fc90     c2_test.obj
 0003:00009cd8       $SG19906                   000000018008fcd8     c2_test.obj
 0003:00009ce0       $SG18881                   000000018008fce0     c2_test.obj
 0003:00009d30       $SG18882                   000000018008fd30     c2_test.obj
 0003:00009d40       $SG19907                   000000018008fd40     c2_test.obj
 0003:00009d48       $SG19908                   000000018008fd48     c2_test.obj
 0003:00009d58       $SG18886                   000000018008fd58     c2_test.obj
 0003:00009d70       $SG18884                   000000018008fd70     c2_test.obj
 0003:00009db0       $SG19909                   000000018008fdb0     c2_test.obj
 0003:00009dc0       $SG18885                   000000018008fdc0     c2_test.obj
 0003:00009e10       $SG18888                   000000018008fe10     c2_test.obj
 0003:00009e60       $SG18889                   000000018008fe60     c2_test.obj
 0003:00009eb0       $SG18890                   000000018008feb0     c2_test.obj
 0003:00009ec0       $SG19915                   000000018008fec0     c2_test.obj
 0003:00009ec8       $SG19917                   000000018008fec8     c2_test.obj
 0003:00009ed0       $SG18892                   000000018008fed0     c2_test.obj
 0003:00009f10       $SG18893                   000000018008ff10     c2_test.obj
 0003:00009f60       $SG19918                   000000018008ff60     c2_test.obj
 0003:00009f68       $SG19919                   000000018008ff68     c2_test.obj
 0003:00009f70       $SG18895                   000000018008ff70     c2_test.obj
 0003:00009f88       $SG19920                   000000018008ff88     c2_test.obj
 0003:00009f90       $SG18896                   000000018008ff90     c2_test.obj
 0003:00009fc8       $SG18897                   000000018008ffc8     c2_test.obj
 0003:0000a000       $SG19922                   0000000180090000     c2_test.obj
 0003:0000a008       $SG18898                   0000000180090008     c2_test.obj
 0003:0000a018       $SG19923                   0000000180090018     c2_test.obj
 0003:0000a020       $SG18899                   0000000180090020     c2_test.obj
 0003:0000a038       $SG19924                   0000000180090038     c2_test.obj
 0003:0000a040       $SG18900                   0000000180090040     c2_test.obj
 0003:0000a084       $SG19934                   0000000180090084     c2_test.obj
 0003:0000a08c       $SG18911                   000000018009008c     c2_test.obj
 0003:0000a094       $SG19134                   0000000180090094     c2_test.obj
 0003:0000a098       $SG19925                   0000000180090098     c2_test.obj
 0003:0000a0a8       $SG18902                   00000001800900a8     c2_test.obj
 0003:0000a0c8       $SG19930                   00000001800900c8     c2_test.obj
 0003:0000a0d0       $SG18901                   00000001800900d0     c2_test.obj
 0003:0000a120       $SG18904                   0000000180090120     c2_test.obj
 0003:0000a170       $SG18905                   0000000180090170     c2_test.obj
 0003:0000a1c0       $SG18906                   00000001800901c0     c2_test.obj
 0003:0000a1d0       $SG18907                   00000001800901d0     c2_test.obj
 0003:0000a1e8       $SG19932                   00000001800901e8     c2_test.obj
 0003:0000a1f0       $SG18908                   00000001800901f0     c2_test.obj
 0003:0000a230       $SG19933                   0000000180090230     c2_test.obj
 0003:0000a238       $SG18910                   0000000180090238     c2_test.obj
 0003:0000a240       $SG18909                   0000000180090240     c2_test.obj
 0003:0000a290       $SG19935                   0000000180090290     c2_test.obj
 0003:0000a298       $SG18912                   0000000180090298     c2_test.obj
 0003:0000a2d0       $SG19937                   00000001800902d0     c2_test.obj
 0003:0000a2d8       $SG19938                   00000001800902d8     c2_test.obj
 0003:0000a2e0       $SG18913                   00000001800902e0     c2_test.obj
 0003:0000a330       $SG18914                   0000000180090330     c2_test.obj
 0003:0000a33c       $SG19939                   000000018009033c     c2_test.obj
 0003:0000a344       $SG18915                   0000000180090344     c2_test.obj
 0003:0000a34c       $SG17097                   000000018009034c     c2_test.obj
 0003:0000a350       $SG19940                   0000000180090350     c2_test.obj
 0003:0000a35c       $SG17099                   000000018009035c     c2_test.obj
 0003:0000a360       $SG18916                   0000000180090360     c2_test.obj
 0003:0000a3a0       $SG18917                   00000001800903a0     c2_test.obj
 0003:0000a3e0       $SG18918                   00000001800903e0     c2_test.obj
 0003:0000a3f0       $SG18920                   00000001800903f0     c2_test.obj
 0003:0000a438       $SG19945                   0000000180090438     c2_test.obj
 0003:0000a440       $SG18921                   0000000180090440     c2_test.obj
 0003:0000a480       $SG18922                   0000000180090480     c2_test.obj
 0003:0000a48c       $SG19947                   000000018009048c     c2_test.obj
 0003:0000a494       $SG18923                   0000000180090494     c2_test.obj
 0003:0000a49c       $SG19948                   000000018009049c     c2_test.obj
 0003:0000a4a4       $SG19949                   00000001800904a4     c2_test.obj
 0003:0000a4ac       $SG18933                   00000001800904ac     c2_test.obj
 0003:0000a4b4       $SG19173                   00000001800904b4     c2_test.obj
 0003:0000a4b8       $SG18924                   00000001800904b8     c2_test.obj
 0003:0000a4f8       $SG19950                   00000001800904f8     c2_test.obj
 0003:0000a500       $SG19952                   0000000180090500     c2_test.obj
 0003:0000a508       $SG18928                   0000000180090508     c2_test.obj
 0003:0000a548       $SG19953                   0000000180090548     c2_test.obj
 0003:0000a550       $SG18929                   0000000180090550     c2_test.obj
 0003:0000a560       $SG19954                   0000000180090560     c2_test.obj
 0003:0000a568       $SG19955                   0000000180090568     c2_test.obj
 0003:0000a578       $SG17909                   0000000180090578     c2_test.obj
 0003:0000a5b0       $SG18931                   00000001800905b0     c2_test.obj
 0003:0000a5f8       $SG18934                   00000001800905f8     c2_test.obj
 0003:0000a600       $SG18932                   0000000180090600     c2_test.obj
 0003:0000a65c       $SG18153                   000000018009065c     c2_test.obj
 0003:0000a660       $SG17910                   0000000180090660     c2_test.obj
 0003:0000a694       $SG19233                   0000000180090694     c2_test.obj
 0003:0000a698       $SG18935                   0000000180090698     c2_test.obj
 0003:0000a6d4       $SG19960                   00000001800906d4     c2_test.obj
 0003:0000a6e0       $SG18936                   00000001800906e0     c2_test.obj
 0003:0000a73c       $SG19962                   000000018009073c     c2_test.obj
 0003:0000a744       $SG18938                   0000000180090744     c2_test.obj
 0003:0000a74c       $SG19963                   000000018009074c     c2_test.obj
 0003:0000a754       $SG19964                   0000000180090754     c2_test.obj
 0003:0000a75c       $SG18941                   000000018009075c     c2_test.obj
 0003:0000a764       $SG18228                   0000000180090764     c2_test.obj
 0003:0000a768       $SG18939                   0000000180090768     c2_test.obj
 0003:0000a7a0       $SG18940                   00000001800907a0     c2_test.obj
 0003:0000a7fc       $SG19965                   00000001800907fc     c2_test.obj
 0003:0000a804       $SG18942                   0000000180090804     c2_test.obj
 0003:0000a80c       $SG19967                   000000018009080c     c2_test.obj
 0003:0000a814       $SG19968                   0000000180090814     c2_test.obj
 0003:0000a81c       $SG18950                   000000018009081c     c2_test.obj
 0003:0000a824       $SG18333                   0000000180090824     c2_test.obj
 0003:0000a828       $SG18943                   0000000180090828     c2_test.obj
 0003:0000a860       $SG18944                   0000000180090860     c2_test.obj
 0003:0000a8ac       $SG19969                   00000001800908ac     c2_test.obj
 0003:0000a8b4       $SG19979                   00000001800908b4     c2_test.obj
 0003:0000a8bc       $SG18966                   00000001800908bc     c2_test.obj
 0003:0000a8c4       $SG18411                   00000001800908c4     c2_test.obj
 0003:0000a8c8       $SG18945                   00000001800908c8     c2_test.obj
 0003:0000a8d8       $SG19970                   00000001800908d8     c2_test.obj
 0003:0000a8e8       $SG18949                   00000001800908e8     c2_test.obj
 0003:0000a900       $SG18947                   0000000180090900     c2_test.obj
 0003:0000a940       $SG18948                   0000000180090940     c2_test.obj
 0003:0000a98c       $SG19975                   000000018009098c     c2_test.obj
 0003:0000a994       $SG19977                   0000000180090994     c2_test.obj
 0003:0000a9a0       $SG18951                   00000001800909a0     c2_test.obj
 0003:0000a9f0       $SG18952                   00000001800909f0     c2_test.obj
 0003:0000aa40       $SG18953                   0000000180090a40     c2_test.obj
 0003:0000aa54       $SG19978                   0000000180090a54     c2_test.obj
 0003:0000aa5c       $SG18954                   0000000180090a5c     c2_test.obj
 0003:0000aa64       $SG19980                   0000000180090a64     c2_test.obj
 0003:0000aa70       $SG18955                   0000000180090a70     c2_test.obj
 0003:0000aac0       $SG18956                   0000000180090ac0     c2_test.obj
 0003:0000ab10       $SG18957                   0000000180090b10     c2_test.obj
 0003:0000ab20       $SG19982                   0000000180090b20     c2_test.obj
 0003:0000ab28       $SG19983                   0000000180090b28     c2_test.obj
 0003:0000ab30       $SG18959                   0000000180090b30     c2_test.obj
 0003:0000ab70       $SG19984                   0000000180090b70     c2_test.obj
 0003:0000ab78       $SG18962                   0000000180090b78     c2_test.obj
 0003:0000ab90       $SG18960                   0000000180090b90     c2_test.obj
 0003:0000abe0       $SG19985                   0000000180090be0     c2_test.obj
 0003:0000abf0       $SG18963                   0000000180090bf0     c2_test.obj
 0003:0000ac28       $SG18965                   0000000180090c28     c2_test.obj
 0003:0000ac38       $SG19990                   0000000180090c38     c2_test.obj
 0003:0000ac40       $SG18964                   0000000180090c40     c2_test.obj
 0003:0000ac90       $SG18967                   0000000180090c90     c2_test.obj
 0003:0000acd0       $SG19992                   0000000180090cd0     c2_test.obj
 0003:0000acd8       $SG19993                   0000000180090cd8     c2_test.obj
 0003:0000ace0       $SG18968                   0000000180090ce0     c2_test.obj
 0003:0000ad30       $SG18969                   0000000180090d30     c2_test.obj
 0003:0000ad50       $SG19994                   0000000180090d50     c2_test.obj
 0003:0000ad58       $SG19995                   0000000180090d58     c2_test.obj
 0003:0000ad60       $SG18971                   0000000180090d60     c2_test.obj
 0003:0000adb0       $SG18972                   0000000180090db0     c2_test.obj
 0003:0000ae00       $SG19997                   0000000180090e00     c2_test.obj
 0003:0000ae08       $SG18973                   0000000180090e08     c2_test.obj
 0003:0000ae18       $SG19998                   0000000180090e18     c2_test.obj
 0003:0000ae20       $SG18974                   0000000180090e20     c2_test.obj
 0003:0000ae28       $SG19999                   0000000180090e28     c2_test.obj
 0003:0000ae30       $SG18975                   0000000180090e30     c2_test.obj
 0003:0000ae70       $SG20000                   0000000180090e70     c2_test.obj
 0003:0000ae80       $SG18976                   0000000180090e80     c2_test.obj
 0003:0000aed0       $SG18977                   0000000180090ed0     c2_test.obj
 0003:0000aee0       $SG18978                   0000000180090ee0     c2_test.obj
 0003:0000aef8       $SG18979                   0000000180090ef8     c2_test.obj
 0003:0000af38       $SG20005                   0000000180090f38     c2_test.obj
 0003:0000af40       $SG18980                   0000000180090f40     c2_test.obj
 0003:0000af90       $SG18981                   0000000180090f90     c2_test.obj
 0003:0000af9c       $SG18982                   0000000180090f9c     c2_test.obj
 0003:0000afa4       $SG20007                   0000000180090fa4     c2_test.obj
 0003:0000afb0       $SG18983                   0000000180090fb0     c2_test.obj
 0003:0000afec       $SG20008                   0000000180090fec     c2_test.obj
 0003:0000aff4       $SG20009                   0000000180090ff4     c2_test.obj
 0003:0000b000       $SG18984                   0000000180091000     c2_test.obj
 0003:0000b048       $SG18985                   0000000180091048     c2_test.obj
 0003:0000b058       $SG20010                   0000000180091058     c2_test.obj
 0003:0000b060       $SG18986                   0000000180091060     c2_test.obj
 0003:0000b068       $SG18987                   0000000180091068     c2_test.obj
 0003:0000b0a8       $SG20012                   00000001800910a8     c2_test.obj
 0003:0000b0b0       $SG18988                   00000001800910b0     c2_test.obj
 0003:0000b0f8       $SG20013                   00000001800910f8     c2_test.obj
 0003:0000b100       $SG18989                   0000000180091100     c2_test.obj
 0003:0000b120       $SG20014                   0000000180091120     c2_test.obj
 0003:0000b128       $SG20015                   0000000180091128     c2_test.obj
 0003:0000b134       $SG18994                   0000000180091134     c2_test.obj
 0003:0000b140       $SG18991                   0000000180091140     c2_test.obj
 0003:0000b190       $SG18992                   0000000180091190     c2_test.obj
 0003:0000b1d8       $SG18993                   00000001800911d8     c2_test.obj
 0003:0000b1e8       $SG18995                   00000001800911e8     c2_test.obj
 0003:0000b228       $SG20020                   0000000180091228     c2_test.obj
 0003:0000b230       $SG18996                   0000000180091230     c2_test.obj
 0003:0000b270       $SG18997                   0000000180091270     c2_test.obj
 0003:0000b280       $SG20022                   0000000180091280     c2_test.obj
 0003:0000b288       $SG20023                   0000000180091288     c2_test.obj
 0003:0000b290       $SG18999                   0000000180091290     c2_test.obj
 0003:0000b2d8       $SG20024                   00000001800912d8     c2_test.obj
 0003:0000b2e0       $SG19000                   00000001800912e0     c2_test.obj
 0003:0000b340       $SG20025                   0000000180091340     c2_test.obj
 0003:0000b348       $SG19001                   0000000180091348     c2_test.obj
 0003:0000b350       $SG19002                   0000000180091350     c2_test.obj
 0003:0000b358       $SG20027                   0000000180091358     c2_test.obj
 0003:0000b360       $SG19003                   0000000180091360     c2_test.obj
 0003:0000b398       $SG20028                   0000000180091398     c2_test.obj
 0003:0000b3a0       $SG19004                   00000001800913a0     c2_test.obj
 0003:0000b3f0       $SG20029                   00000001800913f0     c2_test.obj
 0003:0000b3f8       $SG19005                   00000001800913f8     c2_test.obj
 0003:0000b408       $SG20030                   0000000180091408     c2_test.obj
 0003:0000b418       $SG19009                   0000000180091418     c2_test.obj
 0003:0000b428       $SG19010                   0000000180091428     c2_test.obj
 0003:0000b430       $SG19007                   0000000180091430     c2_test.obj
 0003:0000b470       $SG19008                   0000000180091470     c2_test.obj
 0003:0000b4c0       $SG20035                   00000001800914c0     c2_test.obj
 0003:0000b4c8       $SG19011                   00000001800914c8     c2_test.obj
 0003:0000b508       $SG20037                   0000000180091508     c2_test.obj
 0003:0000b510       $SG19012                   0000000180091510     c2_test.obj
 0003:0000b560       $SG19013                   0000000180091560     c2_test.obj
 0003:0000b574       $SG20038                   0000000180091574     c2_test.obj
 0003:0000b57c       $SG19014                   000000018009157c     c2_test.obj
 0003:0000b584       $SG20039                   0000000180091584     c2_test.obj
 0003:0000b590       $SG19015                   0000000180091590     c2_test.obj
 0003:0000b5e0       $SG20040                   00000001800915e0     c2_test.obj
 0003:0000b5e8       $SG20042                   00000001800915e8     c2_test.obj
 0003:0000b5f0       $SG19016                   00000001800915f0     c2_test.obj
 0003:0000b640       $SG19017                   0000000180091640     c2_test.obj
 0003:0000b650       $SG19018                   0000000180091650     c2_test.obj
 0003:0000b658       $SG20043                   0000000180091658     c2_test.obj
 0003:0000b660       $SG19019                   0000000180091660     c2_test.obj
 0003:0000b6a0       $SG20044                   00000001800916a0     c2_test.obj
 0003:0000b6a8       $SG19021                   00000001800916a8     c2_test.obj
 0003:0000b6b8       $SG19022                   00000001800916b8     c2_test.obj
 0003:0000b6c0       $SG19020                   00000001800916c0     c2_test.obj
 0003:0000b710       $SG20045                   0000000180091710     c2_test.obj
 0003:0000b720       $SG19023                   0000000180091720     c2_test.obj
 0003:0000b760       $SG19024                   0000000180091760     c2_test.obj
 0003:0000b7b0       $SG19025                   00000001800917b0     c2_test.obj
 0003:0000b7c0       $SG20050                   00000001800917c0     c2_test.obj
 0003:0000b7c8       $SG20052                   00000001800917c8     c2_test.obj
 0003:0000b7d0       $SG19027                   00000001800917d0     c2_test.obj
 0003:0000b810       $SG19028                   0000000180091810     c2_test.obj
 0003:0000b860       $SG20053                   0000000180091860     c2_test.obj
 0003:0000b868       $SG19029                   0000000180091868     c2_test.obj
 0003:0000b878       $SG20054                   0000000180091878     c2_test.obj
 0003:0000b880       $SG19030                   0000000180091880     c2_test.obj
 0003:0000b898       $SG20055                   0000000180091898     c2_test.obj
 0003:0000b8a0       $SG19031                   00000001800918a0     c2_test.obj
 0003:0000b8e0       $SG19032                   00000001800918e0     c2_test.obj
 0003:0000b930       $SG20057                   0000000180091930     c2_test.obj
 0003:0000b938       $SG19033                   0000000180091938     c2_test.obj
 0003:0000b948       $SG20058                   0000000180091948     c2_test.obj
 0003:0000b950       $SG19034                   0000000180091950     c2_test.obj
 0003:0000b968       $SG20059                   0000000180091968     c2_test.obj
 0003:0000b970       $SG19035                   0000000180091970     c2_test.obj
 0003:0000b9b0       $SG20060                   00000001800919b0     c2_test.obj
 0003:0000b9c0       $SG19036                   00000001800919c0     c2_test.obj
 0003:0000ba10       $SG20061                   0000000180091a10     c2_test.obj
 0003:0000ba18       $SG19037                   0000000180091a18     c2_test.obj
 0003:0000ba38       $SG20062                   0000000180091a38     c2_test.obj
 0003:0000ba44       $SG20064                   0000000180091a44     c2_test.obj
 0003:0000ba50       $SG19039                   0000000180091a50     c2_test.obj
 0003:0000baa0       $SG19040                   0000000180091aa0     c2_test.obj
 0003:0000baf0       $SG20065                   0000000180091af0     c2_test.obj
 0003:0000baf8       $SG19041                   0000000180091af8     c2_test.obj
 0003:0000bb08       $SG20066                   0000000180091b08     c2_test.obj
 0003:0000bb10       $SG19042                   0000000180091b10     c2_test.obj
 0003:0000bb18       $SG20067                   0000000180091b18     c2_test.obj
 0003:0000bb20       $SG19043                   0000000180091b20     c2_test.obj
 0003:0000bb60       $SG20068                   0000000180091b60     c2_test.obj
 0003:0000bb70       $SG19044                   0000000180091b70     c2_test.obj
 0003:0000bbe8       $SG20069                   0000000180091be8     c2_test.obj
 0003:0000bbf4       $SG19045                   0000000180091bf4     c2_test.obj
 0003:0000bbfc       $SG19046                   0000000180091bfc     c2_test.obj
 0003:0000bc08       $SG19047                   0000000180091c08     c2_test.obj
 0003:0000bc48       $SG19049                   0000000180091c48     c2_test.obj
 0003:0000bc50       $SG19048                   0000000180091c50     c2_test.obj
 0003:0000bca0       $SG19050                   0000000180091ca0     c2_test.obj
 0003:0000bca8       $SG20075                   0000000180091ca8     c2_test.obj
 0003:0000bcb0       $SG19051                   0000000180091cb0     c2_test.obj
 0003:0000bce8       $SG20077                   0000000180091ce8     c2_test.obj
 0003:0000bcf0       $SG20078                   0000000180091cf0     c2_test.obj
 0003:0000bcf8       $SG20079                   0000000180091cf8     c2_test.obj
 0003:0000bd00       $SG20080                   0000000180091d00     c2_test.obj
 0003:0000bd08       $SG20082                   0000000180091d08     c2_test.obj
 0003:0000bd10       $SG20083                   0000000180091d10     c2_test.obj
 0003:0000bd18       $SG20084                   0000000180091d18     c2_test.obj
 0003:0000bd20       $SG20085                   0000000180091d20     c2_test.obj
 0003:0000bd30       $SG20086                   0000000180091d30     c2_test.obj
 0003:0000bd38       $SG20087                   0000000180091d38     c2_test.obj
 0003:0000bd40       $SG20096                   0000000180091d40     c2_test.obj
 0003:0000bd50       $SG20097                   0000000180091d50     c2_test.obj
 0003:0000bd60       $SG20098                   0000000180091d60     c2_test.obj
 0003:0000bd68       $SG20099                   0000000180091d68     c2_test.obj
 0003:0000bd70       $SG20102                   0000000180091d70     c2_test.obj
 0003:0000bdd4       $SG20121                   0000000180091dd4     c2_test.obj
 0003:0000bde0       $SG20103                   0000000180091de0     c2_test.obj
 0003:0000be44       $SG20123                   0000000180091e44     c2_test.obj
 0003:0000be4c       $SG20130                   0000000180091e4c     c2_test.obj
 0003:0000be58       $SG20136                   0000000180091e58     c2_test.obj
 0003:0000be68       ?c2_cv0@?1??c2_check_forloop_overflow_error@@9@9 0000000180091e68     c2_test.obj
 0003:0000be8c       $SG20138                   0000000180091e8c     c2_test.obj
 0003:0000be98       ?c2_cv1@?1??c2_check_forloop_overflow_error@@9@9 0000000180091e98     c2_test.obj
 0003:0000beb0       $SG19135                   0000000180091eb0     c2_test.obj
 0003:0000beb8       $SG19136                   0000000180091eb8     c2_test.obj
 0003:0000bec0       $SG17110                   0000000180091ec0     c2_test.obj
 0003:0000bec8       $SG17114                   0000000180091ec8     c2_test.obj
 0003:0000bee0       ?c2_varargin_1@?1??c2_eml_warning@@9@9 0000000180091ee0     c2_test.obj
 0003:0000bf00       $SG19174                   0000000180091f00     c2_test.obj
 0003:0000bf08       $SG19175                   0000000180091f08     c2_test.obj
 0003:0000bf10       $SG20239                   0000000180091f10     c2_test.obj
 0003:0000bf28       $SG20272                   0000000180091f28     c2_test.obj
 0003:0000bf40       $SG20276                   0000000180091f40     c2_test.obj
 0003:0000bf50       $SG20280                   0000000180091f50     c2_test.obj
 0003:0000bf98       $SG20293                   0000000180091f98     c2_test.obj
 0003:0000bfb0       ?c2_b_b@?1??c2_chartstep_c2_test@@9@9 0000000180091fb0     c2_test.obj
 0003:0000bff8       $SG20295                   0000000180091ff8     c2_test.obj
 0003:0000c004       $SG20356                   0000000180092004     c2_test.obj
 0003:0000c010       $SG20299                   0000000180092010     c2_test.obj
 0003:0000c058       $SG20363                   0000000180092058     c2_test.obj
 0003:0000c080       ?c2_n_b@?1??c2_chartstep_c2_test@@9@9 0000000180092080     c2_test.obj
 0003:0000c0b0       $SG20384                   00000001800920b0     c2_test.obj
 0003:0000c0c0       $SG20385                   00000001800920c0     c2_test.obj
 0003:0000c0d8       ?c2_r_b@?1??c2_chartstep_c2_test@@9@9 00000001800920d8     c2_test.obj
 0003:0000c108       $SG20396                   0000000180092108     c2_test.obj
 0003:0000c138       ?c2_s_b@?1??c2_chartstep_c2_test@@9@9 0000000180092138     c2_test.obj
 0003:0000c168       $SG18384                   0000000180092168     c2_test.obj
 0003:0000c170       $SG20421                   0000000180092170     c2_test.obj
 0003:0000c1d0       $SG18379                   00000001800921d0     c2_test.obj
 0003:0000c1e0       $SG18383                   00000001800921e0     c2_test.obj
 0003:0000c1f0       $SG18385                   00000001800921f0     c2_test.obj
 0003:0000c200       $SG18386                   0000000180092200     c2_test.obj
 0003:0000c210       $SG18387                   0000000180092210     c2_test.obj
 0003:0000c218       $SG18388                   0000000180092218     c2_test.obj
 0003:0000c228       $SG18389                   0000000180092228     c2_test.obj
 0003:0000c238       $SG18390                   0000000180092238     c2_test.obj
 0003:0000c248       $SG18391                   0000000180092248     c2_test.obj
 0003:0000c258       $SG18392                   0000000180092258     c2_test.obj
 0003:0000c268       $SG18393                   0000000180092268     c2_test.obj
 0003:0000c278       $SG18394                   0000000180092278     c2_test.obj
 0003:0000c288       $SG18395                   0000000180092288     c2_test.obj
 0003:0000c298       $SG18396                   0000000180092298     c2_test.obj
 0003:0000c2a8       $SG18397                   00000001800922a8     c2_test.obj
 0003:0000c2b8       $SG18398                   00000001800922b8     c2_test.obj
 0003:0000c2c8       $SG18399                   00000001800922c8     c2_test.obj
 0003:0000c2d8       $SG18400                   00000001800922d8     c2_test.obj
 0003:0000c2e8       $SG18401                   00000001800922e8     c2_test.obj
 0003:0000c2f8       $SG18402                   00000001800922f8     c2_test.obj
 0003:0000c308       $SG18403                   0000000180092308     c2_test.obj
 0003:0000c318       $SG18404                   0000000180092318     c2_test.obj
 0003:0000c328       $SG18405                   0000000180092328     c2_test.obj
 0003:0000c338       $SG18406                   0000000180092338     c2_test.obj
 0003:0000c348       $SG18412                   0000000180092348     c2_test.obj
 0003:0000c350       $SG18413                   0000000180092350     c2_test.obj
 0003:0000c388       $SG18416                   0000000180092388     c2_test.obj
 0003:0000c390       $SG18414                   0000000180092390     c2_test.obj
 0003:0000c3d8       $SG18415                   00000001800923d8     c2_test.obj
 0003:0000c3f4       $SG18419                   00000001800923f4     c2_test.obj
 0003:0000c400       $SG18417                   0000000180092400     c2_test.obj
 0003:0000c450       $SG18418                   0000000180092450     c2_test.obj
 0003:0000c4a8       $SG18420                   00000001800924a8     c2_test.obj
 0003:0000c4b0       $SG18421                   00000001800924b0     c2_test.obj
 0003:0000c4e8       $SG18423                   00000001800924e8     c2_test.obj
 0003:0000c4f0       $SG18422                   00000001800924f0     c2_test.obj
 0003:0000c54c       $SG18424                   000000018009254c     c2_test.obj
 0003:0000c558       $SG18425                   0000000180092558     c2_test.obj
 0003:0000c590       $SG18426                   0000000180092590     c2_test.obj
 0003:0000c5e0       $SG18427                   00000001800925e0     c2_test.obj
 0003:0000c5f0       $SG18429                   00000001800925f0     c2_test.obj
 0003:0000c630       $SG18430                   0000000180092630     c2_test.obj
 0003:0000c67c       $SG18431                   000000018009267c     c2_test.obj
 0003:0000c690       $SG17463                   0000000180092690     c3_test.obj
 0003:0000c698       $SG17514                   0000000180092698     c3_test.obj
 0003:0000c6a8       $SG17518                   00000001800926a8     c3_test.obj
 0003:0000c6b8       $SG17519                   00000001800926b8     c3_test.obj
 0003:0000c6c0       $SG17520                   00000001800926c0     c3_test.obj
 0003:0000c6d0       $SG17521                   00000001800926d0     c3_test.obj
 0003:0000c6e0       $SG17522                   00000001800926e0     c3_test.obj
 0003:0000c6e8       $SG17523                   00000001800926e8     c3_test.obj
 0003:0000c6f8       $SG17524                   00000001800926f8     c3_test.obj
 0003:0000c708       $SG17525                   0000000180092708     c3_test.obj
 0003:0000c718       $SG17526                   0000000180092718     c3_test.obj
 0003:0000c728       $SG17527                   0000000180092728     c3_test.obj
 0003:0000c738       $SG17528                   0000000180092738     c3_test.obj
 0003:0000c744       $SG17547                   0000000180092744     c3_test.obj
 0003:0000c74c       $SG17550                   000000018009274c     c3_test.obj
 0003:0000c750       $SG17529                   0000000180092750     c3_test.obj
 0003:0000c760       $SG17530                   0000000180092760     c3_test.obj
 0003:0000c770       $SG17531                   0000000180092770     c3_test.obj
 0003:0000c77c       $SG17558                   000000018009277c     c3_test.obj
 0003:0000c780       $SG17532                   0000000180092780     c3_test.obj
 0003:0000c790       $SG17533                   0000000180092790     c3_test.obj
 0003:0000c7a0       $SG17534                   00000001800927a0     c3_test.obj
 0003:0000c7ac       $SG17570                   00000001800927ac     c3_test.obj
 0003:0000c7b0       $SG17535                   00000001800927b0     c3_test.obj
 0003:0000c7c0       $SG17536                   00000001800927c0     c3_test.obj
 0003:0000c7d0       $SG17537                   00000001800927d0     c3_test.obj
 0003:0000c7dc       $SG17574                   00000001800927dc     c3_test.obj
 0003:0000c7e0       $SG17538                   00000001800927e0     c3_test.obj
 0003:0000c7f0       $SG17539                   00000001800927f0     c3_test.obj
 0003:0000c800       $SG17540                   0000000180092800     c3_test.obj
 0003:0000c80c       $SG16625                   000000018009280c     c3_test.obj
 0003:0000c810       $SG17541                   0000000180092810     c3_test.obj
 0003:0000c820       $SG17546                   0000000180092820     c3_test.obj
 0003:0000c82c       $SG17551                   000000018009282c     c3_test.obj
 0003:0000c834       $SG16626                   0000000180092834     c3_test.obj
 0003:0000c838       $SG17548                   0000000180092838     c3_test.obj
 0003:0000c874       $SG17555                   0000000180092874     c3_test.obj
 0003:0000c87c       $SG16627                   000000018009287c     c3_test.obj
 0003:0000c880       $SG17549                   0000000180092880     c3_test.obj
 0003:0000c8bc       $SG17559                   00000001800928bc     c3_test.obj
 0003:0000c8c4       $SG16630                   00000001800928c4     c3_test.obj
 0003:0000c8c8       $SG17552                   00000001800928c8     c3_test.obj
 0003:0000c900       $SG17553                   0000000180092900     c3_test.obj
 0003:0000c938       $SG17554                   0000000180092938     c3_test.obj
 0003:0000c948       $SG17560                   0000000180092948     c3_test.obj
 0003:0000c980       $SG17556                   0000000180092980     c3_test.obj
 0003:0000c9c4       $SG17563                   00000001800929c4     c3_test.obj
 0003:0000c9cc       $SG16631                   00000001800929cc     c3_test.obj
 0003:0000c9d0       $SG17557                   00000001800929d0     c3_test.obj
 0003:0000ca0c       $SG17567                   0000000180092a0c     c3_test.obj
 0003:0000ca14       $SG17659                   0000000180092a14     c3_test.obj
 0003:0000ca18       $SG17561                   0000000180092a18     c3_test.obj
 0003:0000ca50       $SG17562                   0000000180092a50     c3_test.obj
 0003:0000ca60       $SG17564                   0000000180092a60     c3_test.obj
 0003:0000caa4       $SG17571                   0000000180092aa4     c3_test.obj
 0003:0000caac       $SG16636                   0000000180092aac     c3_test.obj
 0003:0000cab0       $SG17565                   0000000180092ab0     c3_test.obj
 0003:0000caec       $SG17566                   0000000180092aec     c3_test.obj
 0003:0000caf4       $SG17575                   0000000180092af4     c3_test.obj
 0003:0000cafc       $SG16637                   0000000180092afc     c3_test.obj
 0003:0000cb00       $SG17568                   0000000180092b00     c3_test.obj
 0003:0000cb38       $SG17569                   0000000180092b38     c3_test.obj
 0003:0000cb70       $SG17572                   0000000180092b70     c3_test.obj
 0003:0000cba8       $SG17573                   0000000180092ba8     c3_test.obj
 0003:0000cbe0       $SG17576                   0000000180092be0     c3_test.obj
 0003:0000cc18       $SG17577                   0000000180092c18     c3_test.obj
 0003:0000cc50       $SG17578                   0000000180092c50     c3_test.obj
 0003:0000cc58       $SG17579                   0000000180092c58     c3_test.obj
 0003:0000cc60       $SG17580                   0000000180092c60     c3_test.obj
 0003:0000cc98       $SG17581                   0000000180092c98     c3_test.obj
 0003:0000ccd4       $SG17582                   0000000180092cd4     c3_test.obj
 0003:0000ccdc       $SG17583                   0000000180092cdc     c3_test.obj
 0003:0000cce4       $SG17586                   0000000180092ce4     c3_test.obj
 0003:0000ccec       $SG16642                   0000000180092cec     c3_test.obj
 0003:0000ccf0       $SG17584                   0000000180092cf0     c3_test.obj
 0003:0000cd28       $SG17585                   0000000180092d28     c3_test.obj
 0003:0000cd64       $SG17587                   0000000180092d64     c3_test.obj
 0003:0000cd6c       $SG16644                   0000000180092d6c     c3_test.obj
 0003:0000cd70       $SG17588                   0000000180092d70     c3_test.obj
 0003:0000cda8       $SG17589                   0000000180092da8     c3_test.obj
 0003:0000cde4       $SG17591                   0000000180092de4     c3_test.obj
 0003:0000cdec       $SG16645                   0000000180092dec     c3_test.obj
 0003:0000cdf0       $SG17590                   0000000180092df0     c3_test.obj
 0003:0000cdfc       $SG17595                   0000000180092dfc     c3_test.obj
 0003:0000ce04       $SG16649                   0000000180092e04     c3_test.obj
 0003:0000ce08       $SG17592                   0000000180092e08     c3_test.obj
 0003:0000ce44       $SG17599                   0000000180092e44     c3_test.obj
 0003:0000ce4c       $SG16650                   0000000180092e4c     c3_test.obj
 0003:0000ce50       $SG17593                   0000000180092e50     c3_test.obj
 0003:0000ce8c       $SG17603                   0000000180092e8c     c3_test.obj
 0003:0000ce94       $SG16653                   0000000180092e94     c3_test.obj
 0003:0000ce98       $SG17594                   0000000180092e98     c3_test.obj
 0003:0000cea0       $SG17596                   0000000180092ea0     c3_test.obj
 0003:0000ced8       $SG17597                   0000000180092ed8     c3_test.obj
 0003:0000cf10       $SG17598                   0000000180092f10     c3_test.obj
 0003:0000cf28       $SG17601                   0000000180092f28     c3_test.obj
 0003:0000cf60       $SG17600                   0000000180092f60     c3_test.obj
 0003:0000cfa8       $SG17602                   0000000180092fa8     c3_test.obj
 0003:0000cfb0       $SG17604                   0000000180092fb0     c3_test.obj
 0003:0000cfe8       $SG17606                   0000000180092fe8     c3_test.obj
 0003:0000cff0       $SG17607                   0000000180092ff0     c3_test.obj
 0003:0000cff8       $SG17608                   0000000180092ff8     c3_test.obj
 0003:0000d030       $SG17609                   0000000180093030     c3_test.obj
 0003:0000d068       $SG17610                   0000000180093068     c3_test.obj
 0003:0000d078       $SG17613                   0000000180093078     c3_test.obj
 0003:0000d0b0       $SG17612                   00000001800930b0     c3_test.obj
 0003:0000d0f0       $SG17614                   00000001800930f0     c3_test.obj
 0003:0000d100       $SG17615                   0000000180093100     c3_test.obj
 0003:0000d108       $SG17616                   0000000180093108     c3_test.obj
 0003:0000d148       $SG17617                   0000000180093148     c3_test.obj
 0003:0000d180       $SG17618                   0000000180093180     c3_test.obj
 0003:0000d18c       $SG17619                   000000018009318c     c3_test.obj
 0003:0000d194       $SG17626                   0000000180093194     c3_test.obj
 0003:0000d19c       $SG16655                   000000018009319c     c3_test.obj
 0003:0000d1a0       $SG17620                   00000001800931a0     c3_test.obj
 0003:0000d1e0       $SG17621                   00000001800931e0     c3_test.obj
 0003:0000d220       $SG17622                   0000000180093220     c3_test.obj
 0003:0000d230       $SG17624                   0000000180093230     c3_test.obj
 0003:0000d278       $SG17627                   0000000180093278     c3_test.obj
 0003:0000d280       $SG17625                   0000000180093280     c3_test.obj
 0003:0000d2e0       $SG17628                   00000001800932e0     c3_test.obj
 0003:0000d318       $SG17630                   0000000180093318     c3_test.obj
 0003:0000d328       $SG17635                   0000000180093328     c3_test.obj
 0003:0000d330       $SG17629                   0000000180093330     c3_test.obj
 0003:0000d380       $SG17632                   0000000180093380     c3_test.obj
 0003:0000d3c0       $SG17633                   00000001800933c0     c3_test.obj
 0003:0000d410       $SG17634                   0000000180093410     c3_test.obj
 0003:0000d420       $SG17636                   0000000180093420     c3_test.obj
 0003:0000d460       $SG17637                   0000000180093460     c3_test.obj
 0003:0000d4b0       $SG17638                   00000001800934b0     c3_test.obj
 0003:0000d4c4       $SG17639                   00000001800934c4     c3_test.obj
 0003:0000d4d0       $SG17640                   00000001800934d0     c3_test.obj
 0003:0000d520       c3_debug_family_names      0000000180093520     c3_test.obj
 0003:0000d560       $SG16628                   0000000180093560     c3_test.obj
 0003:0000d568       $SG16629                   0000000180093568     c3_test.obj
 0003:0000d570       $SG16632                   0000000180093570     c3_test.obj
 0003:0000d578       $SG16634                   0000000180093578     c3_test.obj
 0003:0000d580       c3_b_debug_family_names    0000000180093580     c3_test.obj
 0003:0000d5e0       $SG16635                   00000001800935e0     c3_test.obj
 0003:0000d5e8       $SG16638                   00000001800935e8     c3_test.obj
 0003:0000d5f0       $SG16639                   00000001800935f0     c3_test.obj
 0003:0000d5f8       $SG16640                   00000001800935f8     c3_test.obj
 0003:0000d600       $SG16641                   0000000180093600     c3_test.obj
 0003:0000d608       $SG16643                   0000000180093608     c3_test.obj
 0003:0000d610       c3_c_debug_family_names    0000000180093610     c3_test.obj
 0003:0000d670       $SG16647                   0000000180093670     c3_test.obj
 0003:0000d678       $SG16648                   0000000180093678     c3_test.obj
 0003:0000d680       $SG16651                   0000000180093680     c3_test.obj
 0003:0000d688       $SG16652                   0000000180093688     c3_test.obj
 0003:0000d690       $SG16654                   0000000180093690     c3_test.obj
 0003:0000d698       $SG16656                   0000000180093698     c3_test.obj
 0003:0000d69c       $SG16657                   000000018009369c     c3_test.obj
 0003:0000d6a0       $SG16658                   00000001800936a0     c3_test.obj
 0003:0000d6a4       $SG17839                   00000001800936a4     c3_test.obj
 0003:0000d6a8       $SG17728                   00000001800936a8     c3_test.obj
 0003:0000d6b4       $SG17730                   00000001800936b4     c3_test.obj
 0003:0000d6bc       $SG17841                   00000001800936bc     c3_test.obj
 0003:0000d6c0       $SG17729                   00000001800936c0     c3_test.obj
 0003:0000d6cc       $SG17731                   00000001800936cc     c3_test.obj
 0003:0000d6d4       $SG16901                   00000001800936d4     c3_test.obj
 0003:0000d6d8       $SG17732                   00000001800936d8     c3_test.obj
 0003:0000d6e4       $SG16903                   00000001800936e4     c3_test.obj
 0003:0000d6e8       $SG17733                   00000001800936e8     c3_test.obj
 0003:0000d6f4       $SG17208                   00000001800936f4     c3_test.obj
 0003:0000d6f8       $SG17734                   00000001800936f8     c3_test.obj
 0003:0000d700       $SG17735                   0000000180093700     c3_test.obj
 0003:0000d708       $SG17736                   0000000180093708     c3_test.obj
 0003:0000d710       $SG17737                   0000000180093710     c3_test.obj
 0003:0000d718       $SG17740                   0000000180093718     c3_test.obj
 0003:0000d730       $SG17741                   0000000180093730     c3_test.obj
 0003:0000d73c       $SG17743                   000000018009373c     c3_test.obj
 0003:0000d744       $SG17744                   0000000180093744     c3_test.obj
 0003:0000d74c       $SG17745                   000000018009374c     c3_test.obj
 0003:0000d754       $SG17746                   0000000180093754     c3_test.obj
 0003:0000d75c       $SG17758                   000000018009375c     c3_test.obj
 0003:0000d764       $SG17780                   0000000180093764     c3_test.obj
 0003:0000d76c       $SG17265                   000000018009376c     c3_test.obj
 0003:0000d770       $SG17747                   0000000180093770     c3_test.obj
 0003:0000d77c       $SG17327                   000000018009377c     c3_test.obj
 0003:0000d780       $SG17748                   0000000180093780     c3_test.obj
 0003:0000d78c       $SG17754                   000000018009378c     c3_test.obj
 0003:0000d794       $SG17756                   0000000180093794     c3_test.obj
 0003:0000d79c       $SG17757                   000000018009379c     c3_test.obj
 0003:0000d7a4       $SG17759                   00000001800937a4     c3_test.obj
 0003:0000d7ac       $SG17761                   00000001800937ac     c3_test.obj
 0003:0000d7b4       $SG17762                   00000001800937b4     c3_test.obj
 0003:0000d7bc       $SG17763                   00000001800937bc     c3_test.obj
 0003:0000d7c4       $SG17773                   00000001800937c4     c3_test.obj
 0003:0000d7cc       $SG17806                   00000001800937cc     c3_test.obj
 0003:0000d7d4       $SG17388                   00000001800937d4     c3_test.obj
 0003:0000d7d8       $SG17764                   00000001800937d8     c3_test.obj
 0003:0000d7e4       $SG17769                   00000001800937e4     c3_test.obj
 0003:0000d7ec       $SG17771                   00000001800937ec     c3_test.obj
 0003:0000d7f4       $SG17772                   00000001800937f4     c3_test.obj
 0003:0000d7fc       $SG17774                   00000001800937fc     c3_test.obj
 0003:0000d804       $SG17776                   0000000180093804     c3_test.obj
 0003:0000d80c       $SG17777                   000000018009380c     c3_test.obj
 0003:0000d814       $SG17778                   0000000180093814     c3_test.obj
 0003:0000d81c       $SG17798                   000000018009381c     c3_test.obj
 0003:0000d828       $SG17779                   0000000180093828     c3_test.obj
 0003:0000d838       $SG17781                   0000000180093838     c3_test.obj
 0003:0000d844       $SG17783                   0000000180093844     c3_test.obj
 0003:0000d84c       $SG17784                   000000018009384c     c3_test.obj
 0003:0000d854       $SG17785                   0000000180093854     c3_test.obj
 0003:0000d85c       $SG17786                   000000018009385c     c3_test.obj
 0003:0000d868       $SG17787                   0000000180093868     c3_test.obj
 0003:0000d878       $SG17788                   0000000180093878     c3_test.obj
 0003:0000d884       $SG17794                   0000000180093884     c3_test.obj
 0003:0000d88c       $SG17796                   000000018009388c     c3_test.obj
 0003:0000d894       $SG17797                   0000000180093894     c3_test.obj
 0003:0000d89c       $SG17799                   000000018009389c     c3_test.obj
 0003:0000d8a4       $SG17801                   00000001800938a4     c3_test.obj
 0003:0000d8ac       $SG17802                   00000001800938ac     c3_test.obj
 0003:0000d8b4       $SG17803                   00000001800938b4     c3_test.obj
 0003:0000d8c0       $SG17804                   00000001800938c0     c3_test.obj
 0003:0000d8d0       $SG17805                   00000001800938d0     c3_test.obj
 0003:0000d8d8       $SG17815                   00000001800938d8     c3_test.obj
 0003:0000d8e8       $SG17816                   00000001800938e8     c3_test.obj
 0003:0000d8f8       $SG17817                   00000001800938f8     c3_test.obj
 0003:0000d900       $SG17818                   0000000180093900     c3_test.obj
 0003:0000d908       $SG17840                   0000000180093908     c3_test.obj
 0003:0000d910       $SG17821                   0000000180093910     c3_test.obj
 0003:0000d978       $SG17847                   0000000180093978     c3_test.obj
 0003:0000d988       $SG17849                   0000000180093988     c3_test.obj
 0003:0000d990       $SG17822                   0000000180093990     c3_test.obj
 0003:0000d9f8       $SG17848                   00000001800939f8     c3_test.obj
 0003:0000da08       $SG17886                   0000000180093a08     c3_test.obj
 0003:0000da20       $SG17919                   0000000180093a20     c3_test.obj
 0003:0000da38       $SG17923                   0000000180093a38     c3_test.obj
 0003:0000da48       $SG16914                   0000000180093a48     c3_test.obj
 0003:0000da50       $SG17927                   0000000180093a50     c3_test.obj
 0003:0000da98       $SG17940                   0000000180093a98     c3_test.obj
 0003:0000dab0       $SG17942                   0000000180093ab0     c3_test.obj
 0003:0000dac0       $SG16918                   0000000180093ac0     c3_test.obj
 0003:0000dad4       $SG18003                   0000000180093ad4     c3_test.obj
 0003:0000dae0       $SG17946                   0000000180093ae0     c3_test.obj
 0003:0000db28       $SG18010                   0000000180093b28     c3_test.obj
 0003:0000db50       $SG18031                   0000000180093b50     c3_test.obj
 0003:0000db60       $SG18032                   0000000180093b60     c3_test.obj
 0003:0000db78       $SG18043                   0000000180093b78     c3_test.obj
 0003:0000dba8       ?c3_varargin_1@?1??c3_eulerang@@9@9 0000000180093ba8     c3_test.obj
 0003:0000dbd0       $SG18068                   0000000180093bd0     c3_test.obj
 0003:0000dc2c       $SG17209                   0000000180093c2c     c3_test.obj
 0003:0000dc38       $SG17239                   0000000180093c38     c3_test.obj
 0003:0000dc70       $SG17240                   0000000180093c70     c3_test.obj
 0003:0000dcb0       $SG17442                   0000000180093cb0     c4_test.obj
 0003:0000dcc0       $SG17446                   0000000180093cc0     c4_test.obj
 0003:0000dcd0       $SG17447                   0000000180093cd0     c4_test.obj
 0003:0000dcd8       $SG17448                   0000000180093cd8     c4_test.obj
 0003:0000dce8       $SG17449                   0000000180093ce8     c4_test.obj
 0003:0000dcf8       $SG17450                   0000000180093cf8     c4_test.obj
 0003:0000dd00       $SG17451                   0000000180093d00     c4_test.obj
 0003:0000dd10       $SG17452                   0000000180093d10     c4_test.obj
 0003:0000dd20       $SG17453                   0000000180093d20     c4_test.obj
 0003:0000dd30       $SG17454                   0000000180093d30     c4_test.obj
 0003:0000dd40       $SG17455                   0000000180093d40     c4_test.obj
 0003:0000dd50       $SG17456                   0000000180093d50     c4_test.obj
 0003:0000dd5c       $SG17474                   0000000180093d5c     c4_test.obj
 0003:0000dd60       $SG17457                   0000000180093d60     c4_test.obj
 0003:0000dd70       $SG17458                   0000000180093d70     c4_test.obj
 0003:0000dd80       $SG17459                   0000000180093d80     c4_test.obj
 0003:0000dd8c       $SG17526                   0000000180093d8c     c4_test.obj
 0003:0000dd90       $SG17460                   0000000180093d90     c4_test.obj
 0003:0000dda0       $SG17461                   0000000180093da0     c4_test.obj
 0003:0000ddb0       $SG17462                   0000000180093db0     c4_test.obj
 0003:0000ddbc       $SG17534                   0000000180093dbc     c4_test.obj
 0003:0000ddc0       $SG17463                   0000000180093dc0     c4_test.obj
 0003:0000ddd0       $SG17464                   0000000180093dd0     c4_test.obj
 0003:0000dde0       $SG17465                   0000000180093de0     c4_test.obj
 0003:0000ddec       $SG17612                   0000000180093dec     c4_test.obj
 0003:0000ddf0       $SG17466                   0000000180093df0     c4_test.obj
 0003:0000de00       $SG17467                   0000000180093e00     c4_test.obj
 0003:0000de10       $SG17468                   0000000180093e10     c4_test.obj
 0003:0000de1c       $SG16625                   0000000180093e1c     c4_test.obj
 0003:0000de20       $SG17469                   0000000180093e20     c4_test.obj
 0003:0000de30       $SG17475                   0000000180093e30     c4_test.obj
 0003:0000de38       $SG17476                   0000000180093e38     c4_test.obj
 0003:0000de70       $SG17477                   0000000180093e70     c4_test.obj
 0003:0000dea8       $SG17478                   0000000180093ea8     c4_test.obj
 0003:0000deb0       $SG17479                   0000000180093eb0     c4_test.obj
 0003:0000deb8       $SG17480                   0000000180093eb8     c4_test.obj
 0003:0000def4       $SG17483                   0000000180093ef4     c4_test.obj
 0003:0000defc       $SG16626                   0000000180093efc     c4_test.obj
 0003:0000df00       $SG17481                   0000000180093f00     c4_test.obj
 0003:0000df3c       $SG17487                   0000000180093f3c     c4_test.obj
 0003:0000df44       $SG16631                   0000000180093f44     c4_test.obj
 0003:0000df48       $SG17482                   0000000180093f48     c4_test.obj
 0003:0000df60       $SG17484                   0000000180093f60     c4_test.obj
 0003:0000dfa4       $SG17491                   0000000180093fa4     c4_test.obj
 0003:0000dfac       $SG16635                   0000000180093fac     c4_test.obj
 0003:0000dfb0       $SG17485                   0000000180093fb0     c4_test.obj
 0003:0000dfe8       $SG17486                   0000000180093fe8     c4_test.obj
 0003:0000e008       $SG17489                   0000000180094008     c4_test.obj
 0003:0000e040       $SG17488                   0000000180094040     c4_test.obj
 0003:0000e08c       $SG16640                   000000018009408c     c4_test.obj
 0003:0000e090       $SG17490                   0000000180094090     c4_test.obj
 0003:0000e0a0       $SG17492                   00000001800940a0     c4_test.obj
 0003:0000e0e0       $SG17493                   00000001800940e0     c4_test.obj
 0003:0000e118       $SG17494                   0000000180094118     c4_test.obj
 0003:0000e128       $SG17497                   0000000180094128     c4_test.obj
 0003:0000e160       $SG17496                   0000000180094160     c4_test.obj
 0003:0000e1a0       $SG17498                   00000001800941a0     c4_test.obj
 0003:0000e1c0       $SG17500                   00000001800941c0     c4_test.obj
 0003:0000e210       $SG17501                   0000000180094210     c4_test.obj
 0003:0000e288       $SG17502                   0000000180094288     c4_test.obj
 0003:0000e290       $SG17503                   0000000180094290     c4_test.obj
 0003:0000e298       $SG17504                   0000000180094298     c4_test.obj
 0003:0000e2d4       $SG17506                   00000001800942d4     c4_test.obj
 0003:0000e2dc       $SG17507                   00000001800942dc     c4_test.obj
 0003:0000e2e4       $SG16863                   00000001800942e4     c4_test.obj
 0003:0000e2e8       $SG17508                   00000001800942e8     c4_test.obj
 0003:0000e320       $SG17510                   0000000180094320     c4_test.obj
 0003:0000e32c       $SG17511                   000000018009432c     c4_test.obj
 0003:0000e334       $SG16865                   0000000180094334     c4_test.obj
 0003:0000e338       $SG17512                   0000000180094338     c4_test.obj
 0003:0000e374       $SG17515                   0000000180094374     c4_test.obj
 0003:0000e37c       $SG16867                   000000018009437c     c4_test.obj
 0003:0000e380       $SG17513                   0000000180094380     c4_test.obj
 0003:0000e3bc       $SG17519                   00000001800943bc     c4_test.obj
 0003:0000e3c4       $SG17927                   00000001800943c4     c4_test.obj
 0003:0000e3c8       $SG17514                   00000001800943c8     c4_test.obj
 0003:0000e3d0       $SG17516                   00000001800943d0     c4_test.obj
 0003:0000e408       $SG17517                   0000000180094408     c4_test.obj
 0003:0000e440       $SG17518                   0000000180094440     c4_test.obj
 0003:0000e458       $SG17521                   0000000180094458     c4_test.obj
 0003:0000e490       $SG17520                   0000000180094490     c4_test.obj
 0003:0000e4d8       $SG17522                   00000001800944d8     c4_test.obj
 0003:0000e4e0       $SG17523                   00000001800944e0     c4_test.obj
 0003:0000e4e8       $SG17524                   00000001800944e8     c4_test.obj
 0003:0000e520       $SG17527                   0000000180094520     c4_test.obj
 0003:0000e528       $SG17528                   0000000180094528     c4_test.obj
 0003:0000e560       $SG17529                   0000000180094560     c4_test.obj
 0003:0000e598       $SG17530                   0000000180094598     c4_test.obj
 0003:0000e5a8       $SG17531                   00000001800945a8     c4_test.obj
 0003:0000e5b0       $SG17532                   00000001800945b0     c4_test.obj
 0003:0000e5f4       $SG17535                   00000001800945f4     c4_test.obj
 0003:0000e5fc       $SG17933                   00000001800945fc     c4_test.obj
 0003:0000e600       $SG17536                   0000000180094600     c4_test.obj
 0003:0000e638       $SG17537                   0000000180094638     c4_test.obj
 0003:0000e670       $SG17538                   0000000180094670     c4_test.obj
 0003:0000e680       $SG17539                   0000000180094680     c4_test.obj
 0003:0000e688       $SG17541                   0000000180094688     c4_test.obj
 0003:0000e6c0       $SG17540                   00000001800946c0     c4_test.obj
 0003:0000e704       $SG17547                   0000000180094704     c4_test.obj
 0003:0000e70c       $SG17938                   000000018009470c     c4_test.obj
 0003:0000e710       $SG17542                   0000000180094710     c4_test.obj
 0003:0000e720       $SG17544                   0000000180094720     c4_test.obj
 0003:0000e760       $SG17545                   0000000180094760     c4_test.obj
 0003:0000e798       $SG17546                   0000000180094798     c4_test.obj
 0003:0000e7a8       $SG17548                   00000001800947a8     c4_test.obj
 0003:0000e7e8       $SG17549                   00000001800947e8     c4_test.obj
 0003:0000e820       $SG17550                   0000000180094820     c4_test.obj
 0003:0000e82c       $SG17551                   000000018009482c     c4_test.obj
 0003:0000e834       $SG17558                   0000000180094834     c4_test.obj
 0003:0000e83c       $SG17210                   000000018009483c     c4_test.obj
 0003:0000e840       $SG17552                   0000000180094840     c4_test.obj
 0003:0000e880       $SG17553                   0000000180094880     c4_test.obj
 0003:0000e8c0       $SG17554                   00000001800948c0     c4_test.obj
 0003:0000e8d0       $SG17556                   00000001800948d0     c4_test.obj
 0003:0000e918       $SG17559                   0000000180094918     c4_test.obj
 0003:0000e920       $SG17557                   0000000180094920     c4_test.obj
 0003:0000e980       $SG17560                   0000000180094980     c4_test.obj
 0003:0000e9b8       $SG17562                   00000001800949b8     c4_test.obj
 0003:0000e9c8       $SG17567                   00000001800949c8     c4_test.obj
 0003:0000e9d0       $SG17561                   00000001800949d0     c4_test.obj
 0003:0000ea20       $SG17564                   0000000180094a20     c4_test.obj
 0003:0000ea60       $SG17565                   0000000180094a60     c4_test.obj
 0003:0000eab0       $SG17566                   0000000180094ab0     c4_test.obj
 0003:0000eac0       $SG17568                   0000000180094ac0     c4_test.obj
 0003:0000eb00       $SG17569                   0000000180094b00     c4_test.obj
 0003:0000eb50       $SG17570                   0000000180094b50     c4_test.obj
 0003:0000eb64       $SG17571                   0000000180094b64     c4_test.obj
 0003:0000eb70       $SG17572                   0000000180094b70     c4_test.obj
 0003:0000ebc0       c4_debug_family_names      0000000180094bc0     c4_test.obj
 0003:0000ec50       $SG16627                   0000000180094c50     c4_test.obj
 0003:0000ec58       $SG16628                   0000000180094c58     c4_test.obj
 0003:0000ec64       $SG16629                   0000000180094c64     c4_test.obj
 0003:0000ec6c       $SG17271                   0000000180094c6c     c4_test.obj
 0003:0000ec70       $SG16630                   0000000180094c70     c4_test.obj
 0003:0000ec78       $SG16632                   0000000180094c78     c4_test.obj
 0003:0000ec80       $SG16633                   0000000180094c80     c4_test.obj
 0003:0000ec88       $SG16634                   0000000180094c88     c4_test.obj
 0003:0000eca0       $SG16636                   0000000180094ca0     c4_test.obj
 0003:0000eca8       $SG16637                   0000000180094ca8     c4_test.obj
 0003:0000ecb0       $SG16638                   0000000180094cb0     c4_test.obj
 0003:0000ecb8       $SG16639                   0000000180094cb8     c4_test.obj
 0003:0000ecc0       $SG16641                   0000000180094cc0     c4_test.obj
 0003:0000ecc8       $SG16642                   0000000180094cc8     c4_test.obj
 0003:0000ecd4       $SG17683                   0000000180094cd4     c4_test.obj
 0003:0000ecdc       $SG17306                   0000000180094cdc     c4_test.obj
 0003:0000ece0       $SG17681                   0000000180094ce0     c4_test.obj
 0003:0000ecec       $SG17684                   0000000180094cec     c4_test.obj
 0003:0000ecf4       $SG17331                   0000000180094cf4     c4_test.obj
 0003:0000ecf8       $SG17682                   0000000180094cf8     c4_test.obj
 0003:0000ed04       $SG17689                   0000000180094d04     c4_test.obj
 0003:0000ed0c       $SG17356                   0000000180094d0c     c4_test.obj
 0003:0000ed10       $SG17685                   0000000180094d10     c4_test.obj
 0003:0000ed20       $SG17686                   0000000180094d20     c4_test.obj
 0003:0000ed30       $SG17687                   0000000180094d30     c4_test.obj
 0003:0000ed38       $SG17688                   0000000180094d38     c4_test.obj
 0003:0000ed40       $SG17690                   0000000180094d40     c4_test.obj
 0003:0000ed48       $SG17693                   0000000180094d48     c4_test.obj
 0003:0000ed60       $SG17694                   0000000180094d60     c4_test.obj
 0003:0000ed6c       $SG17696                   0000000180094d6c     c4_test.obj
 0003:0000ed74       $SG17697                   0000000180094d74     c4_test.obj
 0003:0000ed7c       $SG17698                   0000000180094d7c     c4_test.obj
 0003:0000ed84       $SG17699                   0000000180094d84     c4_test.obj
 0003:0000ed90       $SG17700                   0000000180094d90     c4_test.obj
 0003:0000eda0       $SG17701                   0000000180094da0     c4_test.obj
 0003:0000edac       $SG17707                   0000000180094dac     c4_test.obj
 0003:0000edb4       $SG17709                   0000000180094db4     c4_test.obj
 0003:0000edbc       $SG17710                   0000000180094dbc     c4_test.obj
 0003:0000edc4       $SG17711                   0000000180094dc4     c4_test.obj
 0003:0000edcc       $SG17712                   0000000180094dcc     c4_test.obj
 0003:0000edd4       $SG17714                   0000000180094dd4     c4_test.obj
 0003:0000eddc       $SG17715                   0000000180094ddc     c4_test.obj
 0003:0000ede4       $SG17716                   0000000180094de4     c4_test.obj
 0003:0000edf0       $SG17717                   0000000180094df0     c4_test.obj
 0003:0000edfc       $SG17722                   0000000180094dfc     c4_test.obj
 0003:0000ee04       $SG17724                   0000000180094e04     c4_test.obj
 0003:0000ee0c       $SG17725                   0000000180094e0c     c4_test.obj
 0003:0000ee14       $SG17726                   0000000180094e14     c4_test.obj
 0003:0000ee1c       $SG17727                   0000000180094e1c     c4_test.obj
 0003:0000ee24       $SG17729                   0000000180094e24     c4_test.obj
 0003:0000ee2c       $SG17730                   0000000180094e2c     c4_test.obj
 0003:0000ee34       $SG17731                   0000000180094e34     c4_test.obj
 0003:0000ee40       $SG17732                   0000000180094e40     c4_test.obj
 0003:0000ee4c       $SG17737                   0000000180094e4c     c4_test.obj
 0003:0000ee54       $SG17739                   0000000180094e54     c4_test.obj
 0003:0000ee5c       $SG17740                   0000000180094e5c     c4_test.obj
 0003:0000ee64       $SG17741                   0000000180094e64     c4_test.obj
 0003:0000ee6c       $SG17742                   0000000180094e6c     c4_test.obj
 0003:0000ee74       $SG17744                   0000000180094e74     c4_test.obj
 0003:0000ee7c       $SG17745                   0000000180094e7c     c4_test.obj
 0003:0000ee84       $SG17746                   0000000180094e84     c4_test.obj
 0003:0000ee90       $SG17747                   0000000180094e90     c4_test.obj
 0003:0000ee9c       $SG17752                   0000000180094e9c     c4_test.obj
 0003:0000eea4       $SG17754                   0000000180094ea4     c4_test.obj
 0003:0000eeac       $SG17755                   0000000180094eac     c4_test.obj
 0003:0000eeb4       $SG17756                   0000000180094eb4     c4_test.obj
 0003:0000eebc       $SG17757                   0000000180094ebc     c4_test.obj
 0003:0000eec4       $SG17759                   0000000180094ec4     c4_test.obj
 0003:0000eecc       $SG17760                   0000000180094ecc     c4_test.obj
 0003:0000eed4       $SG17761                   0000000180094ed4     c4_test.obj
 0003:0000eee0       $SG17762                   0000000180094ee0     c4_test.obj
 0003:0000eeec       $SG17767                   0000000180094eec     c4_test.obj
 0003:0000eef4       $SG17769                   0000000180094ef4     c4_test.obj
 0003:0000eefc       $SG17770                   0000000180094efc     c4_test.obj
 0003:0000ef04       $SG17771                   0000000180094f04     c4_test.obj
 0003:0000ef0c       $SG17772                   0000000180094f0c     c4_test.obj
 0003:0000ef14       $SG17774                   0000000180094f14     c4_test.obj
 0003:0000ef1c       $SG17775                   0000000180094f1c     c4_test.obj
 0003:0000ef24       $SG17776                   0000000180094f24     c4_test.obj
 0003:0000ef30       $SG17777                   0000000180094f30     c4_test.obj
 0003:0000ef3c       $SG17782                   0000000180094f3c     c4_test.obj
 0003:0000ef44       $SG17784                   0000000180094f44     c4_test.obj
 0003:0000ef4c       $SG17785                   0000000180094f4c     c4_test.obj
 0003:0000ef54       $SG17786                   0000000180094f54     c4_test.obj
 0003:0000ef5c       $SG17787                   0000000180094f5c     c4_test.obj
 0003:0000ef64       $SG17789                   0000000180094f64     c4_test.obj
 0003:0000ef6c       $SG17790                   0000000180094f6c     c4_test.obj
 0003:0000ef74       $SG17791                   0000000180094f74     c4_test.obj
 0003:0000ef80       $SG17792                   0000000180094f80     c4_test.obj
 0003:0000ef8c       $SG17797                   0000000180094f8c     c4_test.obj
 0003:0000ef94       $SG17799                   0000000180094f94     c4_test.obj
 0003:0000ef9c       $SG17800                   0000000180094f9c     c4_test.obj
 0003:0000efa4       $SG17801                   0000000180094fa4     c4_test.obj
 0003:0000efac       $SG17802                   0000000180094fac     c4_test.obj
 0003:0000efb4       $SG17804                   0000000180094fb4     c4_test.obj
 0003:0000efbc       $SG17805                   0000000180094fbc     c4_test.obj
 0003:0000efc4       $SG17806                   0000000180094fc4     c4_test.obj
 0003:0000efd0       $SG17807                   0000000180094fd0     c4_test.obj
 0003:0000efdc       $SG17812                   0000000180094fdc     c4_test.obj
 0003:0000efe4       $SG17814                   0000000180094fe4     c4_test.obj
 0003:0000efec       $SG17815                   0000000180094fec     c4_test.obj
 0003:0000eff4       $SG17816                   0000000180094ff4     c4_test.obj
 0003:0000effc       $SG17817                   0000000180094ffc     c4_test.obj
 0003:0000f004       $SG17819                   0000000180095004     c4_test.obj
 0003:0000f00c       $SG17820                   000000018009500c     c4_test.obj
 0003:0000f014       $SG17821                   0000000180095014     c4_test.obj
 0003:0000f020       $SG17822                   0000000180095020     c4_test.obj
 0003:0000f02c       $SG17827                   000000018009502c     c4_test.obj
 0003:0000f034       $SG17829                   0000000180095034     c4_test.obj
 0003:0000f03c       $SG17830                   000000018009503c     c4_test.obj
 0003:0000f044       $SG17831                   0000000180095044     c4_test.obj
 0003:0000f04c       $SG17832                   000000018009504c     c4_test.obj
 0003:0000f054       $SG17834                   0000000180095054     c4_test.obj
 0003:0000f05c       $SG17835                   000000018009505c     c4_test.obj
 0003:0000f064       $SG17836                   0000000180095064     c4_test.obj
 0003:0000f070       $SG17837                   0000000180095070     c4_test.obj
 0003:0000f07c       $SG17842                   000000018009507c     c4_test.obj
 0003:0000f084       $SG17844                   0000000180095084     c4_test.obj
 0003:0000f08c       $SG17845                   000000018009508c     c4_test.obj
 0003:0000f094       $SG17846                   0000000180095094     c4_test.obj
 0003:0000f09c       $SG17847                   000000018009509c     c4_test.obj
 0003:0000f0a4       $SG17849                   00000001800950a4     c4_test.obj
 0003:0000f0ac       $SG17850                   00000001800950ac     c4_test.obj
 0003:0000f0b4       $SG17851                   00000001800950b4     c4_test.obj
 0003:0000f0c0       $SG17852                   00000001800950c0     c4_test.obj
 0003:0000f0cc       $SG17853                   00000001800950cc     c4_test.obj
 0003:0000f0d8       $SG17854                   00000001800950d8     c4_test.obj
 0003:0000f0e4       $SG17856                   00000001800950e4     c4_test.obj
 0003:0000f0ec       $SG17857                   00000001800950ec     c4_test.obj
 0003:0000f0f4       $SG17858                   00000001800950f4     c4_test.obj
 0003:0000f0fc       $SG17859                   00000001800950fc     c4_test.obj
 0003:0000f108       $SG17860                   0000000180095108     c4_test.obj
 0003:0000f118       $SG17861                   0000000180095118     c4_test.obj
 0003:0000f124       $SG17867                   0000000180095124     c4_test.obj
 0003:0000f12c       $SG17869                   000000018009512c     c4_test.obj
 0003:0000f134       $SG17870                   0000000180095134     c4_test.obj
 0003:0000f13c       $SG17871                   000000018009513c     c4_test.obj
 0003:0000f144       $SG17872                   0000000180095144     c4_test.obj
 0003:0000f14c       $SG17874                   000000018009514c     c4_test.obj
 0003:0000f154       $SG17875                   0000000180095154     c4_test.obj
 0003:0000f15c       $SG17876                   000000018009515c     c4_test.obj
 0003:0000f168       $SG17877                   0000000180095168     c4_test.obj
 0003:0000f174       $SG17882                   0000000180095174     c4_test.obj
 0003:0000f17c       $SG17884                   000000018009517c     c4_test.obj
 0003:0000f184       $SG17885                   0000000180095184     c4_test.obj
 0003:0000f18c       $SG17886                   000000018009518c     c4_test.obj
 0003:0000f194       $SG17887                   0000000180095194     c4_test.obj
 0003:0000f19c       $SG17889                   000000018009519c     c4_test.obj
 0003:0000f1a4       $SG17890                   00000001800951a4     c4_test.obj
 0003:0000f1ac       $SG17891                   00000001800951ac     c4_test.obj
 0003:0000f1b8       $SG17892                   00000001800951b8     c4_test.obj
 0003:0000f1c8       $SG17893                   00000001800951c8     c4_test.obj
 0003:0000f1d0       $SG17894                   00000001800951d0     c4_test.obj
 0003:0000f1d8       $SG16878                   00000001800951d8     c4_test.obj
 0003:0000f1e0       $SG17903                   00000001800951e0     c4_test.obj
 0003:0000f1f0       $SG16879                   00000001800951f0     c4_test.obj
 0003:0000f200       $SG17904                   0000000180095200     c4_test.obj
 0003:0000f210       $SG16880                   0000000180095210     c4_test.obj
 0003:0000f228       $SG17905                   0000000180095228     c4_test.obj
 0003:0000f230       $SG17906                   0000000180095230     c4_test.obj
 0003:0000f238       $SG17928                   0000000180095238     c4_test.obj
 0003:0000f240       $SG17909                   0000000180095240     c4_test.obj
 0003:0000f2c0       $SG17910                   00000001800952c0     c4_test.obj
 0003:0000f340       $SG17929                   0000000180095340     c4_test.obj
 0003:0000f348       $SG17930                   0000000180095348     c4_test.obj
 0003:0000f350       $SG17931                   0000000180095350     c4_test.obj
 0003:0000f368       $SG17932                   0000000180095368     c4_test.obj
 0003:0000f378       $SG17934                   0000000180095378     c4_test.obj
 0003:0000f380       $SG17935                   0000000180095380     c4_test.obj
 0003:0000f388       $SG17936                   0000000180095388     c4_test.obj
 0003:0000f390       $SG17937                   0000000180095390     c4_test.obj
 0003:0000f398       $SG17944                   0000000180095398     c4_test.obj
 0003:0000f3a8       $SG18052                   00000001800953a8     c4_test.obj
 0003:0000f3c0       $SG18085                   00000001800953c0     c4_test.obj
 0003:0000f3d8       $SG18089                   00000001800953d8     c4_test.obj
 0003:0000f3e8       $SG18106                   00000001800953e8     c4_test.obj
 0003:0000f400       $SG18093                   0000000180095400     c4_test.obj
 0003:0000f448       $SG18108                   0000000180095448     c4_test.obj
 0003:0000f454       $SG18169                   0000000180095454     c4_test.obj
 0003:0000f460       $SG18112                   0000000180095460     c4_test.obj
 0003:0000f4a8       $SG18176                   00000001800954a8     c4_test.obj
 0003:0000f4d0       $SG18197                   00000001800954d0     c4_test.obj
 0003:0000f4e0       $SG18198                   00000001800954e0     c4_test.obj
 0003:0000f4f8       $SG18209                   00000001800954f8     c4_test.obj
 0003:0000f530       $SG18234                   0000000180095530     c4_test.obj
 0003:0000f590       $SG17417                   0000000180095590     c5_test.obj
 0003:0000f598       $SG17418                   0000000180095598     c5_test.obj
 0003:0000f5a0       $SG17419                   00000001800955a0     c5_test.obj
 0003:0000f5a4       $SG17439                   00000001800955a4     c5_test.obj
 0003:0000f5a8       $SG17420                   00000001800955a8     c5_test.obj
 0003:0000f5b0       $SG18463                   00000001800955b0     c5_test.obj
 0003:0000f5c8       $SG17440                   00000001800955c8     c5_test.obj
 0003:0000f5d0       $SG17441                   00000001800955d0     c5_test.obj
 0003:0000f5d4       $SG17452                   00000001800955d4     c5_test.obj
 0003:0000f5d8       $SG17442                   00000001800955d8     c5_test.obj
 0003:0000f5e0       $SG18467                   00000001800955e0     c5_test.obj
 0003:0000f5f0       $SG18471                   00000001800955f0     c5_test.obj
 0003:0000f634       $SG17472                   0000000180095634     c5_test.obj
 0003:0000f638       $SG17453                   0000000180095638     c5_test.obj
 0003:0000f640       $SG18484                   0000000180095640     c5_test.obj
 0003:0000f658       $SG18486                   0000000180095658     c5_test.obj
 0003:0000f668       $SG17473                   0000000180095668     c5_test.obj
 0003:0000f670       $SG18490                   0000000180095670     c5_test.obj
 0003:0000f6b4       $SG17474                   00000001800956b4     c5_test.obj
 0003:0000f6b8       $SG17475                   00000001800956b8     c5_test.obj
 0003:0000f6c0       $SG17487                   00000001800956c0     c5_test.obj
 0003:0000f6c4       $SG17551                   00000001800956c4     c5_test.obj
 0003:0000f6c8       $SG17488                   00000001800956c8     c5_test.obj
 0003:0000f6d0       $SG18547                   00000001800956d0     c5_test.obj
 0003:0000f6d8       $SG18554                   00000001800956d8     c5_test.obj
 0003:0000f6fc       $SG17613                   00000001800956fc     c5_test.obj
 0003:0000f700       $SG18575                   0000000180095700     c5_test.obj
 0003:0000f710       $SG18576                   0000000180095710     c5_test.obj
 0003:0000f724       $SG16625                   0000000180095724     c5_test.obj
 0003:0000f728       $SG18587                   0000000180095728     c5_test.obj
 0003:0000f758       $SG16626                   0000000180095758     c5_test.obj
 0003:0000f760       $SG18612                   0000000180095760     c5_test.obj
 0003:0000f7c0       c5_debug_family_names      00000001800957c0     c5_test.obj
 0003:0000f910       $SG16627                   0000000180095910     c5_test.obj
 0003:0000f914       $SG16628                   0000000180095914     c5_test.obj
 0003:0000f91c       $SG16629                   000000018009591c     c5_test.obj
 0003:0000f920       $SG16630                   0000000180095920     c5_test.obj
 0003:0000f928       $SG16631                   0000000180095928     c5_test.obj
 0003:0000f92c       $SG16640                   000000018009592c     c5_test.obj
 0003:0000f930       $SG16632                   0000000180095930     c5_test.obj
 0003:0000f940       $SG16633                   0000000180095940     c5_test.obj
 0003:0000f948       $SG16634                   0000000180095948     c5_test.obj
 0003:0000f950       $SG16635                   0000000180095950     c5_test.obj
 0003:0000f95c       $SG16637                   000000018009595c     c5_test.obj
 0003:0000f964       $SG17665                   0000000180095964     c5_test.obj
 0003:0000f968       $SG16636                   0000000180095968     c5_test.obj
 0003:0000f974       $SG16638                   0000000180095974     c5_test.obj
 0003:0000f97c       $SG16641                   000000018009597c     c5_test.obj
 0003:0000f980       $SG16639                   0000000180095980     c5_test.obj
 0003:0000f988       $SG16642                   0000000180095988     c5_test.obj
 0003:0000f98c       $SG16643                   000000018009598c     c5_test.obj
 0003:0000f994       $SG16644                   0000000180095994     c5_test.obj
 0003:0000f99c       $SG16645                   000000018009599c     c5_test.obj
 0003:0000f9a4       $SG16646                   00000001800959a4     c5_test.obj
 0003:0000f9a8       $SG16647                   00000001800959a8     c5_test.obj
 0003:0000f9b0       $SG16648                   00000001800959b0     c5_test.obj
 0003:0000f9bc       $SG16652                   00000001800959bc     c5_test.obj
 0003:0000f9c0       $SG16649                   00000001800959c0     c5_test.obj
 0003:0000f9cc       $SG16653                   00000001800959cc     c5_test.obj
 0003:0000f9d0       $SG16650                   00000001800959d0     c5_test.obj
 0003:0000f9d8       $SG16651                   00000001800959d8     c5_test.obj
 0003:0000f9e0       $SG16654                   00000001800959e0     c5_test.obj
 0003:0000f9e4       $SG16655                   00000001800959e4     c5_test.obj
 0003:0000f9e8       $SG16656                   00000001800959e8     c5_test.obj
 0003:0000f9f0       $SG16657                   00000001800959f0     c5_test.obj
 0003:0000f9f4       $SG16658                   00000001800959f4     c5_test.obj
 0003:0000f9fc       $SG16661                   00000001800959fc     c5_test.obj
 0003:0000fa00       $SG16659                   0000000180095a00     c5_test.obj
 0003:0000fa08       $SG16660                   0000000180095a08     c5_test.obj
 0003:0000fa10       $SG16662                   0000000180095a10     c5_test.obj
 0003:0000fa20       $SG16663                   0000000180095a20     c5_test.obj
 0003:0000fa34       $SG17726                   0000000180095a34     c5_test.obj
 0003:0000fa38       $SG16664                   0000000180095a38     c5_test.obj
 0003:0000fa40       $SG16665                   0000000180095a40     c5_test.obj
 0003:0000fa4c       $SG17797                   0000000180095a4c     c5_test.obj
 0003:0000fa50       $SG16666                   0000000180095a50     c5_test.obj
 0003:0000fa5c       $SG17832                   0000000180095a5c     c5_test.obj
 0003:0000fa60       $SG17883                   0000000180095a60     c5_test.obj
 0003:0000fa70       $SG17887                   0000000180095a70     c5_test.obj
 0003:0000fa80       $SG17888                   0000000180095a80     c5_test.obj
 0003:0000fa88       $SG17889                   0000000180095a88     c5_test.obj
 0003:0000fa98       $SG17890                   0000000180095a98     c5_test.obj
 0003:0000faa8       $SG17891                   0000000180095aa8     c5_test.obj
 0003:0000fab0       $SG17892                   0000000180095ab0     c5_test.obj
 0003:0000fac0       $SG17893                   0000000180095ac0     c5_test.obj
 0003:0000fad0       $SG17894                   0000000180095ad0     c5_test.obj
 0003:0000fae0       $SG17895                   0000000180095ae0     c5_test.obj
 0003:0000faf0       $SG17896                   0000000180095af0     c5_test.obj
 0003:0000fb00       $SG17897                   0000000180095b00     c5_test.obj
 0003:0000fb0c       $SG17915                   0000000180095b0c     c5_test.obj
 0003:0000fb10       $SG17898                   0000000180095b10     c5_test.obj
 0003:0000fb20       $SG17899                   0000000180095b20     c5_test.obj
 0003:0000fb30       $SG17900                   0000000180095b30     c5_test.obj
 0003:0000fb3c       $SG17923                   0000000180095b3c     c5_test.obj
 0003:0000fb40       $SG17901                   0000000180095b40     c5_test.obj
 0003:0000fb50       $SG17902                   0000000180095b50     c5_test.obj
 0003:0000fb60       $SG17903                   0000000180095b60     c5_test.obj
 0003:0000fb6c       $SG18003                   0000000180095b6c     c5_test.obj
 0003:0000fb70       $SG17904                   0000000180095b70     c5_test.obj
 0003:0000fb80       $SG17905                   0000000180095b80     c5_test.obj
 0003:0000fb90       $SG17906                   0000000180095b90     c5_test.obj
 0003:0000fb9c       $SG16992                   0000000180095b9c     c5_test.obj
 0003:0000fba0       $SG17907                   0000000180095ba0     c5_test.obj
 0003:0000fbb0       $SG17908                   0000000180095bb0     c5_test.obj
 0003:0000fbc0       $SG17909                   0000000180095bc0     c5_test.obj
 0003:0000fbcc       $SG16997                   0000000180095bcc     c5_test.obj
 0003:0000fbd0       $SG17910                   0000000180095bd0     c5_test.obj
 0003:0000fbe0       $SG17916                   0000000180095be0     c5_test.obj
 0003:0000fbe8       $SG17917                   0000000180095be8     c5_test.obj
 0003:0000fc20       $SG17918                   0000000180095c20     c5_test.obj
 0003:0000fc58       $SG17919                   0000000180095c58     c5_test.obj
 0003:0000fc68       $SG17920                   0000000180095c68     c5_test.obj
 0003:0000fc70       $SG17921                   0000000180095c70     c5_test.obj
 0003:0000fcb4       $SG17924                   0000000180095cb4     c5_test.obj
 0003:0000fcbc       $SG16999                   0000000180095cbc     c5_test.obj
 0003:0000fcc0       $SG17925                   0000000180095cc0     c5_test.obj
 0003:0000fcf8       $SG17926                   0000000180095cf8     c5_test.obj
 0003:0000fd30       $SG17927                   0000000180095d30     c5_test.obj
 0003:0000fd40       $SG17928                   0000000180095d40     c5_test.obj
 0003:0000fd48       $SG17931                   0000000180095d48     c5_test.obj
 0003:0000fd50       $SG17929                   0000000180095d50     c5_test.obj
 0003:0000fd94       $SG17932                   0000000180095d94     c5_test.obj
 0003:0000fd9c       $SG17001                   0000000180095d9c     c5_test.obj
 0003:0000fda0       $SG17933                   0000000180095da0     c5_test.obj
 0003:0000fdd8       $SG17934                   0000000180095dd8     c5_test.obj
 0003:0000fe10       $SG17935                   0000000180095e10     c5_test.obj
 0003:0000fe20       $SG17936                   0000000180095e20     c5_test.obj
 0003:0000fe28       $SG17937                   0000000180095e28     c5_test.obj
 0003:0000fe68       $SG17938                   0000000180095e68     c5_test.obj
 0003:0000fea0       $SG17939                   0000000180095ea0     c5_test.obj
 0003:0000feb4       $SG17940                   0000000180095eb4     c5_test.obj
 0003:0000fec0       $SG17941                   0000000180095ec0     c5_test.obj
 0003:0000ff04       $SG17944                   0000000180095f04     c5_test.obj
 0003:0000ff0c       $SG17006                   0000000180095f0c     c5_test.obj
 0003:0000ff10       $SG17942                   0000000180095f10     c5_test.obj
 0003:0000ff48       $SG17943                   0000000180095f48     c5_test.obj
 0003:0000ff60       $SG17945                   0000000180095f60     c5_test.obj
 0003:0000ffa4       $SG17947                   0000000180095fa4     c5_test.obj
 0003:0000ffac       $SG17948                   0000000180095fac     c5_test.obj
 0003:0000ffb4       $SG17008                   0000000180095fb4     c5_test.obj
 0003:0000ffb8       $SG17949                   0000000180095fb8     c5_test.obj
 0003:0000fff0       $SG17950                   0000000180095ff0     c5_test.obj
 0003:00010028       $SG17951                   0000000180096028     c5_test.obj
 0003:00010030       $SG17952                   0000000180096030     c5_test.obj
 0003:00010038       $SG17953                   0000000180096038     c5_test.obj
 0003:00010070       $SG17954                   0000000180096070     c5_test.obj
 0003:000100b0       $SG17955                   00000001800960b0     c5_test.obj
 0003:000100c0       $SG17956                   00000001800960c0     c5_test.obj
 0003:000100c8       $SG17957                   00000001800960c8     c5_test.obj
 0003:00010108       $SG17958                   0000000180096108     c5_test.obj
 0003:00010148       $SG17959                   0000000180096148     c5_test.obj
 0003:0001015c       $SG17960                   000000018009615c     c5_test.obj
 0003:00010168       $SG17962                   0000000180096168     c5_test.obj
 0003:000101a8       $SG17963                   00000001800961a8     c5_test.obj
 0003:000101b0       $SG17961                   00000001800961b0     c5_test.obj
 0003:000101f4       $SG17964                   00000001800961f4     c5_test.obj
 0003:000101fc       ?c5_cv1@?1??c5_eml_error@@9@9 00000001800961fc     c5_test.obj
 0003:00010200       $SG17965                   0000000180096200     c5_test.obj
 0003:00010238       $SG17966                   0000000180096238     c5_test.obj
 0003:00010270       $SG17967                   0000000180096270     c5_test.obj
 0003:00010284       $SG17968                   0000000180096284     c5_test.obj
 0003:00010290       $SG17969                   0000000180096290     c5_test.obj
 0003:000102d8       $SG17971                   00000001800962d8     c5_test.obj
 0003:000102e8       $SG17972                   00000001800962e8     c5_test.obj
 0003:000102f0       $SG17970                   00000001800962f0     c5_test.obj
 0003:0001033c       $SG17975                   000000018009633c     c5_test.obj
 0003:00010344       $SG18074                   0000000180096344     c5_test.obj
 0003:00010348       $SG17973                   0000000180096348     c5_test.obj
 0003:00010388       $SG17976                   0000000180096388     c5_test.obj
 0003:00010390       $SG17974                   0000000180096390     c5_test.obj
 0003:000103dc       $SG17980                   00000001800963dc     c5_test.obj
 0003:000103e4       $SG18079                   00000001800963e4     c5_test.obj
 0003:000103e8       $SG17977                   00000001800963e8     c5_test.obj
 0003:00010420       $SG17979                   0000000180096420     c5_test.obj
 0003:00010428       $SG17981                   0000000180096428     c5_test.obj
 0003:00010460       $SG17982                   0000000180096460     c5_test.obj
 0003:00010498       $SG17983                   0000000180096498     c5_test.obj
 0003:000104a4       $SG17984                   00000001800964a4     c5_test.obj
 0003:000104ac       $SG17988                   00000001800964ac     c5_test.obj
 0003:000104b4       $SG18097                   00000001800964b4     c5_test.obj
 0003:000104b8       $SG17985                   00000001800964b8     c5_test.obj
 0003:000104f4       $SG17991                   00000001800964f4     c5_test.obj
 0003:000104fc       $SG18346                   00000001800964fc     c5_test.obj
 0003:00010500       $SG17986                   0000000180096500     c5_test.obj
 0003:00010538       $SG17987                   0000000180096538     c5_test.obj
 0003:00010548       $SG17992                   0000000180096548     c5_test.obj
 0003:00010550       $SG17989                   0000000180096550     c5_test.obj
 0003:00010594       $SG17996                   0000000180096594     c5_test.obj
 0003:0001059c       $SG17358                   000000018009659c     c5_test.obj
 0003:000105a0       $SG17993                   00000001800965a0     c5_test.obj
 0003:000105d8       $SG17995                   00000001800965d8     c5_test.obj
 0003:000105e0       $SG17997                   00000001800965e0     c5_test.obj
 0003:00010618       $SG17998                   0000000180096618     c5_test.obj
 0003:00010650       $SG17999                   0000000180096650     c5_test.obj
 0003:00010660       $SG18000                   0000000180096660     c5_test.obj
 0003:00010668       $SG18004                   0000000180096668     c5_test.obj
 0003:00010670       $SG18001                   0000000180096670     c5_test.obj
 0003:000106b4       $SG18008                   00000001800966b4     c5_test.obj
 0003:000106bc       $SG17378                   00000001800966bc     c5_test.obj
 0003:000106c0       $SG18005                   00000001800966c0     c5_test.obj
 0003:000106f8       $SG18006                   00000001800966f8     c5_test.obj
 0003:00010730       $SG18007                   0000000180096730     c5_test.obj
 0003:00010740       $SG18009                   0000000180096740     c5_test.obj
 0003:00010784       $SG18012                   0000000180096784     c5_test.obj
 0003:0001078c       $SG17389                   000000018009678c     c5_test.obj
 0003:00010790       $SG18011                   0000000180096790     c5_test.obj
 0003:0001079c       $SG18016                   000000018009679c     c5_test.obj
 0003:000107a8       $SG18013                   00000001800967a8     c5_test.obj
 0003:000107e8       $SG18014                   00000001800967e8     c5_test.obj
 0003:00010828       $SG18015                   0000000180096828     c5_test.obj
 0003:00010830       $SG18017                   0000000180096830     c5_test.obj
 0003:00010868       $SG18018                   0000000180096868     c5_test.obj
 0003:000108a0       $SG18019                   00000001800968a0     c5_test.obj
 0003:000108b8       $SG18020                   00000001800968b8     c5_test.obj
 0003:000108c0       $SG18021                   00000001800968c0     c5_test.obj
 0003:00010908       $SG18022                   0000000180096908     c5_test.obj
 0003:00010940       $SG18023                   0000000180096940     c5_test.obj
 0003:00010948       $SG18024                   0000000180096948     c5_test.obj
 0003:00010950       $SG18025                   0000000180096950     c5_test.obj
 0003:00010988       $SG17031                   0000000180096988     c5_test.obj
 0003:00010998       $SG17035                   0000000180096998     c5_test.obj
 0003:000109a8       ?c5_cv0@?1??c5_eml_error@@9@9 00000001800969a8     c5_test.obj
 0003:000109c8       $SG17039                   00000001800969c8     c5_test.obj
 0003:000109d0       $SG17040                   00000001800969d0     c5_test.obj
 0003:000109e8       $SG17041                   00000001800969e8     c5_test.obj
 0003:000109f8       $SG17045                   00000001800969f8     c5_test.obj
 0003:00010a10       $SG18080                   0000000180096a10     c5_test.obj
 0003:00010a18       $SG18081                   0000000180096a18     c5_test.obj
 0003:00010a20       $SG18172                   0000000180096a20     c5_test.obj
 0003:00010a30       $SG18173                   0000000180096a30     c5_test.obj
 0003:00010a3c       $SG18174                   0000000180096a3c     c5_test.obj
 0003:00010a44       $SG18175                   0000000180096a44     c5_test.obj
 0003:00010a50       $SG18176                   0000000180096a50     c5_test.obj
 0003:00010a60       $SG18177                   0000000180096a60     c5_test.obj
 0003:00010a70       $SG18178                   0000000180096a70     c5_test.obj
 0003:00010a78       $SG18179                   0000000180096a78     c5_test.obj
 0003:00010a80       $SG18180                   0000000180096a80     c5_test.obj
 0003:00010a88       $SG18181                   0000000180096a88     c5_test.obj
 0003:00010a90       $SG18184                   0000000180096a90     c5_test.obj
 0003:00010aa8       $SG18185                   0000000180096aa8     c5_test.obj
 0003:00010ab4       $SG18187                   0000000180096ab4     c5_test.obj
 0003:00010abc       $SG18188                   0000000180096abc     c5_test.obj
 0003:00010ac4       $SG18189                   0000000180096ac4     c5_test.obj
 0003:00010acc       $SG18190                   0000000180096acc     c5_test.obj
 0003:00010ad8       $SG18191                   0000000180096ad8     c5_test.obj
 0003:00010ae8       $SG18192                   0000000180096ae8     c5_test.obj
 0003:00010af4       $SG18198                   0000000180096af4     c5_test.obj
 0003:00010afc       $SG18200                   0000000180096afc     c5_test.obj
 0003:00010b04       $SG18201                   0000000180096b04     c5_test.obj
 0003:00010b0c       $SG18202                   0000000180096b0c     c5_test.obj
 0003:00010b14       $SG18203                   0000000180096b14     c5_test.obj
 0003:00010b1c       $SG18205                   0000000180096b1c     c5_test.obj
 0003:00010b24       $SG18206                   0000000180096b24     c5_test.obj
 0003:00010b2c       $SG18207                   0000000180096b2c     c5_test.obj
 0003:00010b38       $SG18208                   0000000180096b38     c5_test.obj
 0003:00010b44       $SG18213                   0000000180096b44     c5_test.obj
 0003:00010b4c       $SG18215                   0000000180096b4c     c5_test.obj
 0003:00010b54       $SG18216                   0000000180096b54     c5_test.obj
 0003:00010b5c       $SG18217                   0000000180096b5c     c5_test.obj
 0003:00010b64       $SG18218                   0000000180096b64     c5_test.obj
 0003:00010b6c       $SG18220                   0000000180096b6c     c5_test.obj
 0003:00010b74       $SG18221                   0000000180096b74     c5_test.obj
 0003:00010b7c       $SG18222                   0000000180096b7c     c5_test.obj
 0003:00010b88       $SG18223                   0000000180096b88     c5_test.obj
 0003:00010b94       $SG18224                   0000000180096b94     c5_test.obj
 0003:00010ba0       $SG18225                   0000000180096ba0     c5_test.obj
 0003:00010bac       $SG18227                   0000000180096bac     c5_test.obj
 0003:00010bb4       $SG18228                   0000000180096bb4     c5_test.obj
 0003:00010bbc       $SG18229                   0000000180096bbc     c5_test.obj
 0003:00010bc4       $SG18230                   0000000180096bc4     c5_test.obj
 0003:00010bd0       $SG18231                   0000000180096bd0     c5_test.obj
 0003:00010be0       $SG18232                   0000000180096be0     c5_test.obj
 0003:00010bec       $SG18238                   0000000180096bec     c5_test.obj
 0003:00010bf4       $SG18240                   0000000180096bf4     c5_test.obj
 0003:00010bfc       $SG18241                   0000000180096bfc     c5_test.obj
 0003:00010c04       $SG18242                   0000000180096c04     c5_test.obj
 0003:00010c0c       $SG18243                   0000000180096c0c     c5_test.obj
 0003:00010c14       $SG18245                   0000000180096c14     c5_test.obj
 0003:00010c1c       $SG18246                   0000000180096c1c     c5_test.obj
 0003:00010c24       $SG18247                   0000000180096c24     c5_test.obj
 0003:00010c30       $SG18248                   0000000180096c30     c5_test.obj
 0003:00010c3c       $SG18253                   0000000180096c3c     c5_test.obj
 0003:00010c44       $SG18255                   0000000180096c44     c5_test.obj
 0003:00010c4c       $SG18256                   0000000180096c4c     c5_test.obj
 0003:00010c54       $SG18257                   0000000180096c54     c5_test.obj
 0003:00010c5c       $SG18258                   0000000180096c5c     c5_test.obj
 0003:00010c64       $SG18260                   0000000180096c64     c5_test.obj
 0003:00010c6c       $SG18261                   0000000180096c6c     c5_test.obj
 0003:00010c74       $SG18262                   0000000180096c74     c5_test.obj
 0003:00010c80       $SG18263                   0000000180096c80     c5_test.obj
 0003:00010c8c       $SG18268                   0000000180096c8c     c5_test.obj
 0003:00010c94       $SG18270                   0000000180096c94     c5_test.obj
 0003:00010c9c       $SG18271                   0000000180096c9c     c5_test.obj
 0003:00010ca4       $SG18272                   0000000180096ca4     c5_test.obj
 0003:00010cac       $SG18273                   0000000180096cac     c5_test.obj
 0003:00010cb4       $SG18275                   0000000180096cb4     c5_test.obj
 0003:00010cbc       $SG18276                   0000000180096cbc     c5_test.obj
 0003:00010cc4       $SG18277                   0000000180096cc4     c5_test.obj
 0003:00010cd0       $SG18278                   0000000180096cd0     c5_test.obj
 0003:00010cdc       $SG18283                   0000000180096cdc     c5_test.obj
 0003:00010ce4       $SG18285                   0000000180096ce4     c5_test.obj
 0003:00010cec       $SG18286                   0000000180096cec     c5_test.obj
 0003:00010cf4       $SG18287                   0000000180096cf4     c5_test.obj
 0003:00010cfc       $SG18288                   0000000180096cfc     c5_test.obj
 0003:00010d04       $SG18290                   0000000180096d04     c5_test.obj
 0003:00010d0c       $SG18291                   0000000180096d0c     c5_test.obj
 0003:00010d14       $SG18292                   0000000180096d14     c5_test.obj
 0003:00010d20       $SG18293                   0000000180096d20     c5_test.obj
 0003:00010d2c       $SG18298                   0000000180096d2c     c5_test.obj
 0003:00010d34       $SG18300                   0000000180096d34     c5_test.obj
 0003:00010d3c       $SG18301                   0000000180096d3c     c5_test.obj
 0003:00010d44       $SG18302                   0000000180096d44     c5_test.obj
 0003:00010d4c       $SG18303                   0000000180096d4c     c5_test.obj
 0003:00010d54       $SG18305                   0000000180096d54     c5_test.obj
 0003:00010d5c       $SG18306                   0000000180096d5c     c5_test.obj
 0003:00010d64       $SG18307                   0000000180096d64     c5_test.obj
 0003:00010d70       $SG18308                   0000000180096d70     c5_test.obj
 0003:00010d80       $SG18309                   0000000180096d80     c5_test.obj
 0003:00010d88       $SG18310                   0000000180096d88     c5_test.obj
 0003:00010d90       $SG18319                   0000000180096d90     c5_test.obj
 0003:00010da0       $SG18320                   0000000180096da0     c5_test.obj
 0003:00010db0       $SG18321                   0000000180096db0     c5_test.obj
 0003:00010db8       $SG18322                   0000000180096db8     c5_test.obj
 0003:00010dc0       $SG18325                   0000000180096dc0     c5_test.obj
 0003:00010ea0       $SG18326                   0000000180096ea0     c5_test.obj
 0003:00010f80       $SG18343                   0000000180096f80     c5_test.obj
 0003:00010f88       $SG18344                   0000000180096f88     c5_test.obj
 0003:00010f98       $SG18345                   0000000180096f98     c5_test.obj
 0003:00010fb0       $SG18347                   0000000180096fb0     c5_test.obj
 0003:00010fb8       $SG18348                   0000000180096fb8     c5_test.obj
 0003:00010fc8       $SG18349                   0000000180096fc8     c5_test.obj
 0003:00010fd8       $SG18355                   0000000180096fd8     c5_test.obj
 0003:00010fe8       ?caseStart@?7??chart_debug_initialization@@9@9 0000000180096fe8     c5_test.obj
 0003:00011000       ?caseExprEnd@?7??chart_debug_initialization@@9@9 0000000180097000     c5_test.obj
 0003:00011018       ?condStart@?8??chart_debug_initialization@@9@9 0000000180097018     c5_test.obj
 0003:00011020       ?condEnd@?8??chart_debug_initialization@@9@9 0000000180097020     c5_test.obj
 0003:00011028       ?pfixExpr@?8??chart_debug_initialization@@9@9 0000000180097028     c5_test.obj
 0003:00011038       $SG17379                   0000000180097038     c5_test.obj
 0003:00011040       $SG17390                   0000000180097040     c5_test.obj
 0003:00011048       $SG18430                   0000000180097048     c5_test.obj
 0003:00011060       $SG17415                   0000000180097060     c6_test.obj
 0003:00011064       $SG17476                   0000000180097064     c6_test.obj
 0003:00011068       $SG17547                   0000000180097068     c6_test.obj
 0003:0001106c       $SG17563                   000000018009706c     c6_test.obj
 0003:00011070       $SG17577                   0000000180097070     c6_test.obj
 0003:00011078       $SG17578                   0000000180097078     c6_test.obj
 0003:00011080       $SG17579                   0000000180097080     c6_test.obj
 0003:000110b8       $SG17581                   00000001800970b8     c6_test.obj
 0003:000110c0       $SG17582                   00000001800970c0     c6_test.obj
 0003:000110c8       $SG17583                   00000001800970c8     c6_test.obj
 0003:00011100       $SG17584                   0000000180097100     c6_test.obj
 0003:00011138       $SG17585                   0000000180097138     c6_test.obj
 0003:00011140       $SG17586                   0000000180097140     c6_test.obj
 0003:00011148       $SG17587                   0000000180097148     c6_test.obj
 0003:00011180       $SG17588                   0000000180097180     c6_test.obj
 0003:000111c0       $SG17589                   00000001800971c0     c6_test.obj
 0003:000111d0       $SG17590                   00000001800971d0     c6_test.obj
 0003:000111d8       $SG17591                   00000001800971d8     c6_test.obj
 0003:00011218       $SG17592                   0000000180097218     c6_test.obj
 0003:00011258       $SG17593                   0000000180097258     c6_test.obj
 0003:0001126c       $SG17594                   000000018009726c     c6_test.obj
 0003:00011278       $SG17596                   0000000180097278     c6_test.obj
 0003:000112b8       $SG17597                   00000001800972b8     c6_test.obj
 0003:000112c0       $SG17595                   00000001800972c0     c6_test.obj
 0003:00011304       $SG17598                   0000000180097304     c6_test.obj
 0003:0001130c       $SG16641                   000000018009730c     c6_test.obj
 0003:00011310       $SG17599                   0000000180097310     c6_test.obj
 0003:00011348       $SG17600                   0000000180097348     c6_test.obj
 0003:00011380       $SG17601                   0000000180097380     c6_test.obj
 0003:00011394       $SG17602                   0000000180097394     c6_test.obj
 0003:000113a0       $SG17603                   00000001800973a0     c6_test.obj
 0003:000113e8       $SG17605                   00000001800973e8     c6_test.obj
 0003:000113f8       $SG17606                   00000001800973f8     c6_test.obj
 0003:00011400       $SG17604                   0000000180097400     c6_test.obj
 0003:0001144c       $SG17609                   000000018009744c     c6_test.obj
 0003:00011454       ?c6_cv1@?1??c6_eml_error@@9@9 0000000180097454     c6_test.obj
 0003:00011458       $SG17607                   0000000180097458     c6_test.obj
 0003:00011498       $SG17610                   0000000180097498     c6_test.obj
 0003:000114a0       $SG17608                   00000001800974a0     c6_test.obj
 0003:000114ec       $SG17614                   00000001800974ec     c6_test.obj
 0003:000114f4       $SG17685                   00000001800974f4     c6_test.obj
 0003:000114f8       $SG17611                   00000001800974f8     c6_test.obj
 0003:00011530       $SG17613                   0000000180097530     c6_test.obj
 0003:00011538       $SG17615                   0000000180097538     c6_test.obj
 0003:00011570       $SG17616                   0000000180097570     c6_test.obj
 0003:000115a8       $SG17617                   00000001800975a8     c6_test.obj
 0003:000115b4       $SG17618                   00000001800975b4     c6_test.obj
 0003:000115bc       $SG17622                   00000001800975bc     c6_test.obj
 0003:000115c4       $SG17690                   00000001800975c4     c6_test.obj
 0003:000115c8       $SG17619                   00000001800975c8     c6_test.obj
 0003:00011604       $SG16634                   0000000180097604     c6_test.obj
 0003:0001160c       $SG17708                   000000018009760c     c6_test.obj
 0003:00011610       $SG17620                   0000000180097610     c6_test.obj
 0003:00011648       $SG17621                   0000000180097648     c6_test.obj
 0003:00011658       $SG17629                   0000000180097658     c6_test.obj
 0003:00011660       $SG17623                   0000000180097660     c6_test.obj
 0003:000116a4       $SG17779                   00000001800976a4     c6_test.obj
 0003:000116ac       $SG17970                   00000001800976ac     c6_test.obj
 0003:000116b0       $SG17624                   00000001800976b0     c6_test.obj
 0003:000116c0       $SG17628                   00000001800976c0     c6_test.obj
 0003:000116d0       $SG17630                   00000001800976d0     c6_test.obj
 0003:000116e0       $SG17631                   00000001800976e0     c6_test.obj
 0003:000116f0       $SG17632                   00000001800976f0     c6_test.obj
 0003:000116f8       $SG17633                   00000001800976f8     c6_test.obj
 0003:00011708       $SG17634                   0000000180097708     c6_test.obj
 0003:00011718       $SG17635                   0000000180097718     c6_test.obj
 0003:00011728       $SG17636                   0000000180097728     c6_test.obj
 0003:00011738       $SG17637                   0000000180097738     c6_test.obj
 0003:00011748       $SG17638                   0000000180097748     c6_test.obj
 0003:00011754       $SG17692                   0000000180097754     c6_test.obj
 0003:0001175c       $SG17780                   000000018009775c     c6_test.obj
 0003:00011764       $SG16979                   0000000180097764     c6_test.obj
 0003:00011768       $SG17639                   0000000180097768     c6_test.obj
 0003:00011778       $SG17640                   0000000180097778     c6_test.obj
 0003:00011788       $SG17641                   0000000180097788     c6_test.obj
 0003:00011794       $SG16984                   0000000180097794     c6_test.obj
 0003:00011798       $SG17642                   0000000180097798     c6_test.obj
 0003:000117a8       $SG17643                   00000001800977a8     c6_test.obj
 0003:000117b8       $SG17644                   00000001800977b8     c6_test.obj
 0003:000117c4       $SG16988                   00000001800977c4     c6_test.obj
 0003:000117c8       $SG17645                   00000001800977c8     c6_test.obj
 0003:000117d8       $SG17646                   00000001800977d8     c6_test.obj
 0003:000117e8       $SG17647                   00000001800977e8     c6_test.obj
 0003:000117f4       $SG16990                   00000001800977f4     c6_test.obj
 0003:000117f8       $SG17648                   00000001800977f8     c6_test.obj
 0003:00011808       $SG17649                   0000000180097808     c6_test.obj
 0003:00011818       $SG17650                   0000000180097818     c6_test.obj
 0003:00011824       $SG16994                   0000000180097824     c6_test.obj
 0003:00011828       $SG17651                   0000000180097828     c6_test.obj
 0003:00011838       $SG16635                   0000000180097838     c6_test.obj
 0003:00011840       c6_debug_family_names      0000000180097840     c6_test.obj
 0003:000118b8       $SG16633                   00000001800978b8     c6_test.obj
 0003:000118c4       $SG17785                   00000001800978c4     c6_test.obj
 0003:000118cc       $SG16996                   00000001800978cc     c6_test.obj
 0003:000118d0       $SG16636                   00000001800978d0     c6_test.obj
 0003:000118e0       $SG16637                   00000001800978e0     c6_test.obj
 0003:000118f4       $SG17000                   00000001800978f4     c6_test.obj
 0003:000118f8       $SG16638                   00000001800978f8     c6_test.obj
 0003:00011900       $SG16639                   0000000180097900     c6_test.obj
 0003:0001190c       $SG16640                   000000018009790c     c6_test.obj
 0003:00011914       $SG17786                   0000000180097914     c6_test.obj
 0003:0001191c       $SG17002                   000000018009791c     c6_test.obj
 0003:00011920       $SG16642                   0000000180097920     c6_test.obj
 0003:0001192c       $SG17006                   000000018009792c     c6_test.obj
 0003:00011930       $SG16643                   0000000180097930     c6_test.obj
 0003:0001193c       $SG17008                   000000018009793c     c6_test.obj
 0003:00011940       $SG16644                   0000000180097940     c6_test.obj
 0003:00011948       $SG16645                   0000000180097948     c6_test.obj
 0003:00011958       $SG16646                   0000000180097958     c6_test.obj
 0003:00011968       ?c6_cv0@?1??c6_eml_error@@9@9 0000000180097968     c6_test.obj
 0003:00011988       $SG16647                   0000000180097988     c6_test.obj
 0003:00011998       $SG17691                   0000000180097998     c6_test.obj
 0003:000119a0       $SG17777                   00000001800979a0     c6_test.obj
 0003:000119ac       $SG17807                   00000001800979ac     c6_test.obj
 0003:000119b4       $SG17889                   00000001800979b4     c6_test.obj
 0003:000119bc       $SG17010                   00000001800979bc     c6_test.obj
 0003:000119c0       $SG17778                   00000001800979c0     c6_test.obj
 0003:000119cc       $SG17808                   00000001800979cc     c6_test.obj
 0003:000119d4       $SG17930                   00000001800979d4     c6_test.obj
 0003:000119dc       $SG17185                   00000001800979dc     c6_test.obj
 0003:000119e0       $SG17781                   00000001800979e0     c6_test.obj
 0003:000119ec       $SG17187                   00000001800979ec     c6_test.obj
 0003:000119f0       $SG17782                   00000001800979f0     c6_test.obj
 0003:000119fc       $SG17243                   00000001800979fc     c6_test.obj
 0003:00011a00       $SG17783                   0000000180097a00     c6_test.obj
 0003:00011a08       $SG17784                   0000000180097a08     c6_test.obj
 0003:00011a10       $SG17789                   0000000180097a10     c6_test.obj
 0003:00011a28       $SG17790                   0000000180097a28     c6_test.obj
 0003:00011a34       $SG17792                   0000000180097a34     c6_test.obj
 0003:00011a3c       $SG17793                   0000000180097a3c     c6_test.obj
 0003:00011a44       $SG17794                   0000000180097a44     c6_test.obj
 0003:00011a4c       $SG17795                   0000000180097a4c     c6_test.obj
 0003:00011a54       $SG17811                   0000000180097a54     c6_test.obj
 0003:00011a5c       $SG17245                   0000000180097a5c     c6_test.obj
 0003:00011a60       $SG17796                   0000000180097a60     c6_test.obj
 0003:00011a6c       $SG17301                   0000000180097a6c     c6_test.obj
 0003:00011a70       $SG17797                   0000000180097a70     c6_test.obj
 0003:00011a7c       $SG17803                   0000000180097a7c     c6_test.obj
 0003:00011a84       $SG17805                   0000000180097a84     c6_test.obj
 0003:00011a8c       $SG17806                   0000000180097a8c     c6_test.obj
 0003:00011a94       $SG17810                   0000000180097a94     c6_test.obj
 0003:00011a9c       $SG17812                   0000000180097a9c     c6_test.obj
 0003:00011aa4       $SG17822                   0000000180097aa4     c6_test.obj
 0003:00011aac       $SG17303                   0000000180097aac     c6_test.obj
 0003:00011ab0       $SG17813                   0000000180097ab0     c6_test.obj
 0003:00011abc       $SG17818                   0000000180097abc     c6_test.obj
 0003:00011ac4       $SG17820                   0000000180097ac4     c6_test.obj
 0003:00011acc       $SG17821                   0000000180097acc     c6_test.obj
 0003:00011ad4       $SG17823                   0000000180097ad4     c6_test.obj
 0003:00011adc       $SG17825                   0000000180097adc     c6_test.obj
 0003:00011ae4       $SG17826                   0000000180097ae4     c6_test.obj
 0003:00011aec       $SG17827                   0000000180097aec     c6_test.obj
 0003:00011af4       $SG17837                   0000000180097af4     c6_test.obj
 0003:00011afc       $SG17359                   0000000180097afc     c6_test.obj
 0003:00011b00       $SG17828                   0000000180097b00     c6_test.obj
 0003:00011b0c       $SG17833                   0000000180097b0c     c6_test.obj
 0003:00011b14       $SG17835                   0000000180097b14     c6_test.obj
 0003:00011b1c       $SG17836                   0000000180097b1c     c6_test.obj
 0003:00011b24       $SG17838                   0000000180097b24     c6_test.obj
 0003:00011b2c       $SG17840                   0000000180097b2c     c6_test.obj
 0003:00011b34       $SG17841                   0000000180097b34     c6_test.obj
 0003:00011b3c       $SG17842                   0000000180097b3c     c6_test.obj
 0003:00011b44       $SG17852                   0000000180097b44     c6_test.obj
 0003:00011b4c       $SG17361                   0000000180097b4c     c6_test.obj
 0003:00011b50       $SG17843                   0000000180097b50     c6_test.obj
 0003:00011b5c       $SG17848                   0000000180097b5c     c6_test.obj
 0003:00011b64       $SG17850                   0000000180097b64     c6_test.obj
 0003:00011b6c       $SG17851                   0000000180097b6c     c6_test.obj
 0003:00011b74       $SG17853                   0000000180097b74     c6_test.obj
 0003:00011b7c       $SG17855                   0000000180097b7c     c6_test.obj
 0003:00011b84       $SG17856                   0000000180097b84     c6_test.obj
 0003:00011b8c       $SG17857                   0000000180097b8c     c6_test.obj
 0003:00011b94       $SG17867                   0000000180097b94     c6_test.obj
 0003:00011ba0       $SG17858                   0000000180097ba0     c6_test.obj
 0003:00011bac       $SG17863                   0000000180097bac     c6_test.obj
 0003:00011bb4       $SG17865                   0000000180097bb4     c6_test.obj
 0003:00011bbc       $SG17866                   0000000180097bbc     c6_test.obj
 0003:00011bc4       $SG17868                   0000000180097bc4     c6_test.obj
 0003:00011bcc       $SG17870                   0000000180097bcc     c6_test.obj
 0003:00011bd4       $SG17871                   0000000180097bd4     c6_test.obj
 0003:00011bdc       $SG17872                   0000000180097bdc     c6_test.obj
 0003:00011be8       $SG17873                   0000000180097be8     c6_test.obj
 0003:00011bf4       $SG17878                   0000000180097bf4     c6_test.obj
 0003:00011bfc       $SG17880                   0000000180097bfc     c6_test.obj
 0003:00011c04       $SG17881                   0000000180097c04     c6_test.obj
 0003:00011c0c       $SG17882                   0000000180097c0c     c6_test.obj
 0003:00011c14       $SG17883                   0000000180097c14     c6_test.obj
 0003:00011c1c       $SG17885                   0000000180097c1c     c6_test.obj
 0003:00011c24       $SG17886                   0000000180097c24     c6_test.obj
 0003:00011c2c       $SG17887                   0000000180097c2c     c6_test.obj
 0003:00011c38       $SG17888                   0000000180097c38     c6_test.obj
 0003:00011c48       $SG17890                   0000000180097c48     c6_test.obj
 0003:00011c54       $SG17892                   0000000180097c54     c6_test.obj
 0003:00011c5c       $SG17893                   0000000180097c5c     c6_test.obj
 0003:00011c64       $SG17894                   0000000180097c64     c6_test.obj
 0003:00011c6c       $SG17895                   0000000180097c6c     c6_test.obj
 0003:00011c78       $SG17896                   0000000180097c78     c6_test.obj
 0003:00011c88       $SG17897                   0000000180097c88     c6_test.obj
 0003:00011c94       $SG17903                   0000000180097c94     c6_test.obj
 0003:00011c9c       $SG17905                   0000000180097c9c     c6_test.obj
 0003:00011ca4       $SG17906                   0000000180097ca4     c6_test.obj
 0003:00011cac       $SG17907                   0000000180097cac     c6_test.obj
 0003:00011cb4       $SG17908                   0000000180097cb4     c6_test.obj
 0003:00011cbc       $SG17910                   0000000180097cbc     c6_test.obj
 0003:00011cc4       $SG17911                   0000000180097cc4     c6_test.obj
 0003:00011ccc       $SG17912                   0000000180097ccc     c6_test.obj
 0003:00011cd8       $SG17913                   0000000180097cd8     c6_test.obj
 0003:00011ce4       $SG17918                   0000000180097ce4     c6_test.obj
 0003:00011cec       $SG17920                   0000000180097cec     c6_test.obj
 0003:00011cf4       $SG17921                   0000000180097cf4     c6_test.obj
 0003:00011cfc       $SG17922                   0000000180097cfc     c6_test.obj
 0003:00011d04       $SG17923                   0000000180097d04     c6_test.obj
 0003:00011d0c       $SG17925                   0000000180097d0c     c6_test.obj
 0003:00011d14       $SG17926                   0000000180097d14     c6_test.obj
 0003:00011d1c       $SG17927                   0000000180097d1c     c6_test.obj
 0003:00011d28       $SG17928                   0000000180097d28     c6_test.obj
 0003:00011d38       $SG17929                   0000000180097d38     c6_test.obj
 0003:00011d40       $SG17939                   0000000180097d40     c6_test.obj
 0003:00011d50       $SG17940                   0000000180097d50     c6_test.obj
 0003:00011d60       $SG17941                   0000000180097d60     c6_test.obj
 0003:00011d68       $SG17942                   0000000180097d68     c6_test.obj
 0003:00011d70       $SG17945                   0000000180097d70     c6_test.obj
 0003:00011ef8       $SG17963                   0000000180097ef8     c6_test.obj
 0003:00011f08       $SG17965                   0000000180097f08     c6_test.obj
 0003:00011f20       $SG17946                   0000000180097f20     c6_test.obj
 0003:000120a8       $SG17964                   00000001800980a8     c6_test.obj
 0003:000120b8       $SG17966                   00000001800980b8     c6_test.obj
 0003:000120c0       $SG17967                   00000001800980c0     c6_test.obj
 0003:000120d0       $SG17968                   00000001800980d0     c6_test.obj
 0003:000120dc       $SG17969                   00000001800980dc     c6_test.obj
 0003:000120e8       $SG17976                   00000001800980e8     c6_test.obj
 0003:000120f8       ?condStart@?7??chart_debug_initialization@@9@9 00000001800980f8     c6_test.obj
 0003:00012100       ?condEnd@?7??chart_debug_initialization@@9@9 0000000180098100     c6_test.obj
 0003:00012108       ?pfixExpr@?7??chart_debug_initialization@@9@9 0000000180098108     c6_test.obj
 0003:00012118       $SG17023                   0000000180098118     c6_test.obj
 0003:00012128       $SG17024                   0000000180098128     c6_test.obj
 0003:00012138       $SG17028                   0000000180098138     c6_test.obj
 0003:00012140       $SG17029                   0000000180098140     c6_test.obj
 0003:00012150       $SG17030                   0000000180098150     c6_test.obj
 0003:00012160       $SG17031                   0000000180098160     c6_test.obj
 0003:00012170       $SG17032                   0000000180098170     c6_test.obj
 0003:00012188       $SG18058                   0000000180098188     c6_test.obj
 0003:000121a0       $SG18091                   00000001800981a0     c6_test.obj
 0003:000121b8       $SG18095                   00000001800981b8     c6_test.obj
 0003:000121c8       $SG18112                   00000001800981c8     c6_test.obj
 0003:000121e0       $SG18099                   00000001800981e0     c6_test.obj
 0003:00012228       $SG18114                   0000000180098228     c6_test.obj
 0003:00012234       $SG18175                   0000000180098234     c6_test.obj
 0003:00012240       $SG18118                   0000000180098240     c6_test.obj
 0003:00012288       $SG18182                   0000000180098288     c6_test.obj
 0003:000122b0       $SG18203                   00000001800982b0     c6_test.obj
 0003:000122c0       $SG18204                   00000001800982c0     c6_test.obj
 0003:000122d8       $SG18215                   00000001800982d8     c6_test.obj
 0003:00012310       $SG18240                   0000000180098310     c6_test.obj
 0003:00012370       $SG15364                   0000000180098370     test_sfun_registry.obj
 0003:00012384       $SG15691                   0000000180098384     test_sfun_registry.obj
 0003:00012388       $SG14382                   0000000180098388     test_sfun_registry.obj
 0003:000123ac       $SG15764                   00000001800983ac     test_sfun_registry.obj
 0003:000123b0       _sfcnName                  00000001800983b0     test_sfun_registry.obj
 0003:000123d0       $SG14399                   00000001800983d0     test_sfun_registry.obj
 0003:00012450       $SG14529                   0000000180098450     test_sfun_registry.obj
 0003:00012458       $SG14530                   0000000180098458     test_sfun_registry.obj
 0003:00012460       $SG14551                   0000000180098460     test_sfun_registry.obj
 0003:00012470       $SG14575                   0000000180098470     test_sfun_registry.obj
 0003:0001247c       $SG14577                   000000018009847c     test_sfun_registry.obj
 0003:00012488       $SG14580                   0000000180098488     test_sfun_registry.obj
 0003:00012498       $SG15688                   0000000180098498     test_sfun_registry.obj
 0003:000124d8       $SG15710                   00000001800984d8     test_sfun_registry.obj
 0003:000124e0       $SG15711                   00000001800984e0     test_sfun_registry.obj
 0003:000124e8       $SG15712                   00000001800984e8     test_sfun_registry.obj
 0003:000124f0       $SG15713                   00000001800984f0     test_sfun_registry.obj
 0003:00012558       $SG15716                   0000000180098558     test_sfun_registry.obj
 0003:00012598       $SG15718                   0000000180098598     test_sfun_registry.obj
 0003:000125a0       $SG15721                   00000001800985a0     test_sfun_registry.obj
 0003:000125a8       $SG15724                   00000001800985a8     test_sfun_registry.obj
 0003:000125b0       $SG15726                   00000001800985b0     test_sfun_registry.obj
 0003:000125e0       $SG15728                   00000001800985e0     test_sfun_registry.obj
 0003:000125f0       $SG15756                   00000001800985f0     test_sfun_registry.obj
 0003:000125fc       $SG15758                   00000001800985fc     test_sfun_registry.obj
 0003:00012604       $SG15760                   0000000180098604     test_sfun_registry.obj
 0003:00012610       $SG15762                   0000000180098610     test_sfun_registry.obj
 0003:00012620       $SG15770                   0000000180098620     test_sfun_registry.obj
 0003:000126c8       $SG15789                   00000001800986c8     test_sfun_registry.obj
 0003:00012700       $SG15792                   0000000180098700     test_sfun_registry.obj
 0003:00012730       $SG15796                   0000000180098730     test_sfun_registry.obj
 0003:00012778       $SG15825                   0000000180098778     test_sfun_registry.obj
 0003:00012780       $SG15802                   0000000180098780     test_sfun_registry.obj
 0003:000127c8       $SG15805                   00000001800987c8     test_sfun_registry.obj
 0003:000127e8       $SG15827                   00000001800987e8     test_sfun_registry.obj
 0003:00012800       $SG15829                   0000000180098800     test_sfun_registry.obj
 0003:000128a0       $SG14828                   00000001800988a0     test_sfun_registry.obj
 0003:00012910       $SG14838                   0000000180098910     test_sfun_registry.obj
 0003:00012980       $SG15902                   0000000180098980     test_sfun_registry.obj
 0003:000129b0       $SG15910                   00000001800989b0     test_sfun_registry.obj
 0003:000129d8       $SG15918                   00000001800989d8     test_sfun_registry.obj
 0003:00012a08       $SG15927                   0000000180098a08     test_sfun_registry.obj
 0003:00012a38       $SG15936                   0000000180098a38     test_sfun_registry.obj
 0003:00012a70       $SG15941                   0000000180098a70     test_sfun_registry.obj
 0003:00012aa8       $SG15949                   0000000180098aa8     test_sfun_registry.obj
 0003:00012ad8       $SG15957                   0000000180098ad8     test_sfun_registry.obj
 0003:00012b08       $SG15964                   0000000180098b08     test_sfun_registry.obj
 0003:00012b38       $SG15971                   0000000180098b38     test_sfun_registry.obj
 0003:00012b68       $SG15976                   0000000180098b68     test_sfun_registry.obj
 0003:00012b98       $SG15984                   0000000180098b98     test_sfun_registry.obj
 0003:00012bc8       $SG15992                   0000000180098bc8     test_sfun_registry.obj
 0003:00012c00       $SG15997                   0000000180098c00     test_sfun_registry.obj
 0003:00012c38       $SG16005                   0000000180098c38     test_sfun_registry.obj
 0003:00012c68       $SG16011                   0000000180098c68     test_sfun_registry.obj
 0003:00012c90       $SG16016                   0000000180098c90     test_sfun_registry.obj
 0003:00012cb0       $SG16021                   0000000180098cb0     test_sfun_registry.obj
 0003:00012ce0       $SG16026                   0000000180098ce0     test_sfun_registry.obj
 0003:00012d00       $SG16031                   0000000180098d00     test_sfun_registry.obj
 0003:00012d20       $SG16036                   0000000180098d20     test_sfun_registry.obj
 0003:00012d40       $SG16041                   0000000180098d40     test_sfun_registry.obj
 0003:00012d68       $SG16046                   0000000180098d68     test_sfun_registry.obj
 0003:00012d90       $SG16051                   0000000180098d90     test_sfun_registry.obj
 0003:00012db8       $SG16060                   0000000180098db8     test_sfun_registry.obj
 0003:00012de0       $SG16064                   0000000180098de0     test_sfun_registry.obj
 0003:00012e08       $SG15046                   0000000180098e08     test_sfun_registry.obj
 0003:00012e48       $SG16072                   0000000180098e48     test_sfun_registry.obj
 0003:00012e70       $SG15051                   0000000180098e70     test_sfun_registry.obj
 0003:00012ea0       $SG16079                   0000000180098ea0     test_sfun_registry.obj
 0003:00012ec8       $SG15070                   0000000180098ec8     test_sfun_registry.obj
 0003:00012f00       $SG15056                   0000000180098f00     test_sfun_registry.obj
 0003:00012f48       $SG14157                   0000000180098f48     test_sfun_registry.obj
 0003:00012f64       $SG14162                   0000000180098f64     test_sfun_registry.obj
 0003:00012f70       $SG14195                   0000000180098f70     test_sfun_registry.obj
 0003:00012f8c       $SG14200                   0000000180098f8c     test_sfun_registry.obj
 0003:00012f98       $SG14233                   0000000180098f98     test_sfun_registry.obj
 0003:00012fb8       $SG14238                   0000000180098fb8     test_sfun_registry.obj
 0003:00012fc0       $SG14259                   0000000180098fc0     test_sfun_registry.obj
 0003:00012fd0       $SG14300                   0000000180098fd0     test_sfun_registry.obj
 0003:00012fe8       $SG15342                   0000000180098fe8     test_sfun_registry.obj
 0003:00013028       $SG15350                   0000000180099028     test_sfun_registry.obj
 0003:0001305c       $SG14331                   000000018009905c     test_sfun_registry.obj
 0003:00013068       $SG14354                   0000000180099068     test_sfun.obj
 0003:00013080       $SG14360                   0000000180099080     test_sfun.obj
 0003:00013088       $SG14371                   0000000180099088     test_sfun.obj
 0003:00013098       $SG14382                   0000000180099098     test_sfun.obj
 0003:000130a4       $SG14393                   00000001800990a4     test_sfun.obj
 0003:000130ac       $SG14435                   00000001800990ac     test_sfun.obj
 0003:000130b8       $SG14472                   00000001800990b8     test_sfun.obj
 0003:000130d8       $SG14484                   00000001800990d8     test_sfun.obj
 0003:000130f0       $SG14489                   00000001800990f0     test_sfun.obj
 0003:00013108       $SG14494                   0000000180099108     test_sfun.obj
 0003:00013120       $SG14499                   0000000180099120     test_sfun.obj
 0003:00013138       $SG14504                   0000000180099138     test_sfun.obj
 0003:00013150       $SG14509                   0000000180099150     test_sfun.obj
 0003:00013168       $SG14530                   0000000180099168     test_sfun.obj
 0003:00013188       $SG14589                   0000000180099188     test_sfun.obj
 0003:000131a8       $SG14598                   00000001800991a8     test_sfun.obj
 0003:000131c0       $SG14603                   00000001800991c0     test_sfun.obj
 0003:000131d8       $SG14608                   00000001800991d8     test_sfun.obj
 0003:000131f0       $SG14613                   00000001800991f0     test_sfun.obj
 0003:00013208       $SG14618                   0000000180099208     test_sfun.obj
 0003:00013220       $SG14623                   0000000180099220     test_sfun.obj
 0003:00013238       $SG14631                   0000000180099238     test_sfun.obj
 0003:00013240       $SG14632                   0000000180099240     test_sfun.obj
 0003:00013248       $SG14643                   0000000180099248     test_sfun.obj
 0003:00013250       $SG14644                   0000000180099250     test_sfun.obj
 0003:000132a0       ?pf@?1??data_type_format_strings@@9@9 00000001800992a0     sfc_debug:sfdb_data_browse.obj
 0003:000132a8       ?pd@?1??data_type_format_strings@@9@9 00000001800992a8     sfc_debug:sfdb_data_browse.obj
 0003:000132b0       ?pu@?1??data_type_format_strings@@9@9 00000001800992b0     sfc_debug:sfdb_data_browse.obj
 0003:000132b8       ?pempty@?1??data_type_format_strings@@9@9 00000001800992b8     sfc_debug:sfdb_data_browse.obj
 0003:000132c0       PADDING                    00000001800992c0     sfc_debug:ckmd5.obj
 0003:00013320       $SG18513                   0000000180099320     c1_test.obj
 0003:00013321       $SG18514                   0000000180099321     c1_test.obj
 0003:00013322       $SG18529                   0000000180099322     c1_test.obj
 0003:00013323       $SG18530                   0000000180099323     c1_test.obj
 0003:00013324       $SG18541                   0000000180099324     c1_test.obj
 0003:00013325       $SG18542                   0000000180099325     c1_test.obj
 0003:00013326       $SG18552                   0000000180099326     c1_test.obj
 0003:00013327       $SG18553                   0000000180099327     c1_test.obj
 0003:00013328       $SG18565                   0000000180099328     c1_test.obj
 0003:00013329       $SG18566                   0000000180099329     c1_test.obj
 0003:0001332a       $SG18583                   000000018009932a     c1_test.obj
 0003:0001332b       $SG18584                   000000018009932b     c1_test.obj
 0003:0001332c       $SG18585                   000000018009932c     c1_test.obj
 0003:0001332d       $SG18586                   000000018009932d     c1_test.obj
 0003:0001332e       $SG18595                   000000018009932e     c1_test.obj
 0003:0001332f       $SG18596                   000000018009932f     c1_test.obj
 0003:00013330       $SG18611                   0000000180099330     c1_test.obj
 0003:00013331       $SG18612                   0000000180099331     c1_test.obj
 0003:00013332       $SG18621                   0000000180099332     c1_test.obj
 0003:00013333       $SG18622                   0000000180099333     c1_test.obj
 0003:00013334       $SG18631                   0000000180099334     c1_test.obj
 0003:00013335       $SG18632                   0000000180099335     c1_test.obj
 0003:00013336       $SG18714                   0000000180099336     c1_test.obj
 0003:00013337       $SG18715                   0000000180099337     c1_test.obj
 0003:00013338       $SG17697                   0000000180099338     c1_test.obj
 0003:00013339       $SG17701                   0000000180099339     c1_test.obj
 0003:0001333a       $SG17713                   000000018009933a     c1_test.obj
 0003:0001333b       $SG18747                   000000018009933b     c1_test.obj
 0003:0001333c       $SG18748                   000000018009933c     c1_test.obj
 0003:0001333d       $SG18749                   000000018009933d     c1_test.obj
 0003:0001333e       $SG18750                   000000018009933e     c1_test.obj
 0003:0001333f       $SG18751                   000000018009933f     c1_test.obj
 0003:00013340       $SG18752                   0000000180099340     c1_test.obj
 0003:00013341       $SG17731                   0000000180099341     c1_test.obj
 0003:00013342       $SG17743                   0000000180099342     c1_test.obj
 0003:00013343       $SG17751                   0000000180099343     c1_test.obj
 0003:00013344       $SG17771                   0000000180099344     c1_test.obj
 0003:00013345       $SG17775                   0000000180099345     c1_test.obj
 0003:00013346       $SG18811                   0000000180099346     c1_test.obj
 0003:00013347       $SG18812                   0000000180099347     c1_test.obj
 0003:00013348       $SG18849                   0000000180099348     c1_test.obj
 0003:00013349       $SG18850                   0000000180099349     c1_test.obj
 0003:0001334a       $SG18851                   000000018009934a     c1_test.obj
 0003:0001334b       $SG18852                   000000018009934b     c1_test.obj
 0003:0001334c       $SG18853                   000000018009934c     c1_test.obj
 0003:0001334d       $SG18854                   000000018009934d     c1_test.obj
 0003:0001334e       $SG18855                   000000018009934e     c1_test.obj
 0003:0001334f       $SG18856                   000000018009934f     c1_test.obj
 0003:00013350       $SG17835                   0000000180099350     c1_test.obj
 0003:00013351       $SG17883                   0000000180099351     c1_test.obj
 0003:00013352       $SG17887                   0000000180099352     c1_test.obj
 0003:00013353       $SG17903                   0000000180099353     c1_test.obj
 0003:00013354       $SG18929                   0000000180099354     c1_test.obj
 0003:00013355       $SG18930                   0000000180099355     c1_test.obj
 0003:00013356       $SG17907                   0000000180099356     c1_test.obj
 0003:00013357       $SG18939                   0000000180099357     c1_test.obj
 0003:00013358       $SG17915                   0000000180099358     c1_test.obj
 0003:00013359       $SG18940                   0000000180099359     c1_test.obj
 0003:0001335a       $SG17923                   000000018009935a     c1_test.obj
 0003:0001335b       $SG18949                   000000018009935b     c1_test.obj
 0003:0001335c       $SG18950                   000000018009935c     c1_test.obj
 0003:0001335d       $SG17931                   000000018009935d     c1_test.obj
 0003:0001335e       $SG18959                   000000018009935e     c1_test.obj
 0003:0001335f       $SG18960                   000000018009935f     c1_test.obj
 0003:00013360       $SG17943                   0000000180099360     c1_test.obj
 0003:00013361       $SG17958                   0000000180099361     c1_test.obj
 0003:00013362       $SG17966                   0000000180099362     c1_test.obj
 0003:00013363       $SG17970                   0000000180099363     c1_test.obj
 0003:00013364       $SG18999                   0000000180099364     c1_test.obj
 0003:00013365       $SG19000                   0000000180099365     c1_test.obj
 0003:00013366       $SG19001                   0000000180099366     c1_test.obj
 0003:00013367       $SG19002                   0000000180099367     c1_test.obj
 0003:00013368       $SG17978                   0000000180099368     c1_test.obj
 0003:00013369       $SG19003                   0000000180099369     c1_test.obj
 0003:0001336a       $SG19004                   000000018009936a     c1_test.obj
 0003:0001336b       $SG19005                   000000018009936b     c1_test.obj
 0003:0001336c       $SG19006                   000000018009936c     c1_test.obj
 0003:0001336d       $SG17994                   000000018009936d     c1_test.obj
 0003:0001336e       $SG18006                   000000018009936e     c1_test.obj
 0003:0001336f       $SG18010                   000000018009936f     c1_test.obj
 0003:00013370       $SG18018                   0000000180099370     c1_test.obj
 0003:00013371       $SG18030                   0000000180099371     c1_test.obj
 0003:00013372       $SG18046                   0000000180099372     c1_test.obj
 0003:00013373       $SG18054                   0000000180099373     c1_test.obj
 0003:00013374       $SG18082                   0000000180099374     c1_test.obj
 0003:00013375       $SG18094                   0000000180099375     c1_test.obj
 0003:00013376       $SG18106                   0000000180099376     c1_test.obj
 0003:00013377       $SG18126                   0000000180099377     c1_test.obj
 0003:00013378       $SG18134                   0000000180099378     c1_test.obj
 0003:00013379       $SG18142                   0000000180099379     c1_test.obj
 0003:0001337a       $SG18162                   000000018009937a     c1_test.obj
 0003:0001337b       $SG18166                   000000018009937b     c1_test.obj
 0003:0001337c       $SG17216                   000000018009937c     c1_test.obj
 0003:0001337d       $SG17217                   000000018009937d     c1_test.obj
 0003:0001337e       $SG17226                   000000018009937e     c1_test.obj
 0003:0001337f       $SG17227                   000000018009937f     c1_test.obj
 0003:00013380       $SG17247                   0000000180099380     c1_test.obj
 0003:00013381       $SG17248                   0000000180099381     c1_test.obj
 0003:00013382       $SG17249                   0000000180099382     c1_test.obj
 0003:00013383       $SG17250                   0000000180099383     c1_test.obj
 0003:00013384       $SG17283                   0000000180099384     c1_test.obj
 0003:00013385       $SG17284                   0000000180099385     c1_test.obj
 0003:00013386       $SG17285                   0000000180099386     c1_test.obj
 0003:00013387       $SG17286                   0000000180099387     c1_test.obj
 0003:00013388       $SG17287                   0000000180099388     c1_test.obj
 0003:00013389       $SG17288                   0000000180099389     c1_test.obj
 0003:0001338a       $SG17289                   000000018009938a     c1_test.obj
 0003:0001338b       $SG17290                   000000018009938b     c1_test.obj
 0003:0001338c       $SG17307                   000000018009938c     c1_test.obj
 0003:0001338d       $SG17308                   000000018009938d     c1_test.obj
 0003:0001338e       $SG17309                   000000018009938e     c1_test.obj
 0003:0001338f       $SG17310                   000000018009938f     c1_test.obj
 0003:00013390       $SG19456                   0000000180099390     c2_test.obj
 0003:00013391       $SG19457                   0000000180099391     c2_test.obj
 0003:00013392       $SG19474                   0000000180099392     c2_test.obj
 0003:00013393       $SG19475                   0000000180099393     c2_test.obj
 0003:00013394       $SG19476                   0000000180099394     c2_test.obj
 0003:00013395       $SG19477                   0000000180099395     c2_test.obj
 0003:00013396       $SG18456                   0000000180099396     c2_test.obj
 0003:00013397       $SG19486                   0000000180099397     c2_test.obj
 0003:00013398       $SG19487                   0000000180099398     c2_test.obj
 0003:00013399       $SG18464                   0000000180099399     c2_test.obj
 0003:0001339a       $SG18468                   000000018009939a     c2_test.obj
 0003:0001339b       $SG18474                   000000018009939b     c2_test.obj
 0003:0001339c       $SG19502                   000000018009939c     c2_test.obj
 0003:0001339d       $SG18478                   000000018009939d     c2_test.obj
 0003:0001339e       $SG19503                   000000018009939e     c2_test.obj
 0003:0001339f       $SG19512                   000000018009939f     c2_test.obj
 0003:000133a0       $SG18488                   00000001800993a0     c2_test.obj
 0003:000133a1       $SG19513                   00000001800993a1     c2_test.obj
 0003:000133a2       $SG19522                   00000001800993a2     c2_test.obj
 0003:000133a3       $SG19523                   00000001800993a3     c2_test.obj
 0003:000133a4       $SG18500                   00000001800993a4     c2_test.obj
 0003:000133a5       $SG18508                   00000001800993a5     c2_test.obj
 0003:000133a6       $SG18522                   00000001800993a6     c2_test.obj
 0003:000133a7       $SG17498                   00000001800993a7     c2_test.obj
 0003:000133a8       $SG17499                   00000001800993a8     c2_test.obj
 0003:000133a9       $SG17500                   00000001800993a9     c2_test.obj
 0003:000133aa       $SG17501                   00000001800993aa     c2_test.obj
 0003:000133ab       $SG18530                   00000001800993ab     c2_test.obj
 0003:000133ac       $SG18538                   00000001800993ac     c2_test.obj
 0003:000133ad       $SG17527                   00000001800993ad     c2_test.obj
 0003:000133ae       $SG17528                   00000001800993ae     c2_test.obj
 0003:000133af       $SG17529                   00000001800993af     c2_test.obj
 0003:000133b0       $SG17530                   00000001800993b0     c2_test.obj
 0003:000133b1       $SG18560                   00000001800993b1     c2_test.obj
 0003:000133b2       $SG18564                   00000001800993b2     c2_test.obj
 0003:000133b3       $SG18572                   00000001800993b3     c2_test.obj
 0003:000133b4       $SG18580                   00000001800993b4     c2_test.obj
 0003:000133b5       $SG17556                   00000001800993b5     c2_test.obj
 0003:000133b6       $SG19605                   00000001800993b6     c2_test.obj
 0003:000133b7       $SG17557                   00000001800993b7     c2_test.obj
 0003:000133b8       $SG19606                   00000001800993b8     c2_test.obj
 0003:000133b9       $SG17558                   00000001800993b9     c2_test.obj
 0003:000133ba       $SG17559                   00000001800993ba     c2_test.obj
 0003:000133bb       $SG18584                   00000001800993bb     c2_test.obj
 0003:000133bc       $SG18600                   00000001800993bc     c2_test.obj
 0003:000133bd       $SG18608                   00000001800993bd     c2_test.obj
 0003:000133be       $SG19638                   00000001800993be     c2_test.obj
 0003:000133bf       $SG19639                   00000001800993bf     c2_test.obj
 0003:000133c0       $SG19640                   00000001800993c0     c2_test.obj
 0003:000133c1       $SG18616                   00000001800993c1     c2_test.obj
 0003:000133c2       $SG19641                   00000001800993c2     c2_test.obj
 0003:000133c3       $SG19642                   00000001800993c3     c2_test.obj
 0003:000133c4       $SG17594                   00000001800993c4     c2_test.obj
 0003:000133c5       $SG19643                   00000001800993c5     c2_test.obj
 0003:000133c6       $SG17595                   00000001800993c6     c2_test.obj
 0003:000133c7       $SG18624                   00000001800993c7     c2_test.obj
 0003:000133c8       $SG18628                   00000001800993c8     c2_test.obj
 0003:000133c9       $SG17604                   00000001800993c9     c2_test.obj
 0003:000133ca       $SG17605                   00000001800993ca     c2_test.obj
 0003:000133cb       $SG18630                   00000001800993cb     c2_test.obj
 0003:000133cc       $SG17614                   00000001800993cc     c2_test.obj
 0003:000133cd       $SG17615                   00000001800993cd     c2_test.obj
 0003:000133ce       $SG18642                   00000001800993ce     c2_test.obj
 0003:000133cf       $SG17632                   00000001800993cf     c2_test.obj
 0003:000133d0       $SG17633                   00000001800993d0     c2_test.obj
 0003:000133d1       $SG18658                   00000001800993d1     c2_test.obj
 0003:000133d2       $SG17634                   00000001800993d2     c2_test.obj
 0003:000133d3       $SG17635                   00000001800993d3     c2_test.obj
 0003:000133d4       $SG19687                   00000001800993d4     c2_test.obj
 0003:000133d5       $SG19688                   00000001800993d5     c2_test.obj
 0003:000133d6       $SG17644                   00000001800993d6     c2_test.obj
 0003:000133d7       $SG17645                   00000001800993d7     c2_test.obj
 0003:000133d8       $SG18671                   00000001800993d8     c2_test.obj
 0003:000133d9       $SG18675                   00000001800993d9     c2_test.obj
 0003:000133da       $SG19725                   00000001800993da     c2_test.obj
 0003:000133db       $SG19726                   00000001800993db     c2_test.obj
 0003:000133dc       $SG19727                   00000001800993dc     c2_test.obj
 0003:000133dd       $SG19728                   00000001800993dd     c2_test.obj
 0003:000133de       $SG19729                   00000001800993de     c2_test.obj
 0003:000133df       $SG19730                   00000001800993df     c2_test.obj
 0003:000133e0       $SG19731                   00000001800993e0     c2_test.obj
 0003:000133e1       $SG19732                   00000001800993e1     c2_test.obj
 0003:000133e2       $SG19788                   00000001800993e2     c2_test.obj
 0003:000133e3       $SG19789                   00000001800993e3     c2_test.obj
 0003:000133e4       $SG19798                   00000001800993e4     c2_test.obj
 0003:000133e5       $SG19799                   00000001800993e5     c2_test.obj
 0003:000133e6       $SG18775                   00000001800993e6     c2_test.obj
 0003:000133e7       $SG18779                   00000001800993e7     c2_test.obj
 0003:000133e8       $SG19808                   00000001800993e8     c2_test.obj
 0003:000133e9       $SG19809                   00000001800993e9     c2_test.obj
 0003:000133ea       $SG19818                   00000001800993ea     c2_test.obj
 0003:000133eb       $SG19819                   00000001800993eb     c2_test.obj
 0003:000133ec       $SG18795                   00000001800993ec     c2_test.obj
 0003:000133ed       $SG18799                   00000001800993ed     c2_test.obj
 0003:000133ee       $SG18807                   00000001800993ee     c2_test.obj
 0003:000133ef       $SG18831                   00000001800993ef     c2_test.obj
 0003:000133f0       $SG19858                   00000001800993f0     c2_test.obj
 0003:000133f1       $SG19859                   00000001800993f1     c2_test.obj
 0003:000133f2       $SG19860                   00000001800993f2     c2_test.obj
 0003:000133f3       $SG19861                   00000001800993f3     c2_test.obj
 0003:000133f4       $SG19862                   00000001800993f4     c2_test.obj
 0003:000133f5       $SG19863                   00000001800993f5     c2_test.obj
 0003:000133f6       $SG18839                   00000001800993f6     c2_test.obj
 0003:000133f7       $SG19864                   00000001800993f7     c2_test.obj
 0003:000133f8       $SG19865                   00000001800993f8     c2_test.obj
 0003:000133f9       $SG18843                   00000001800993f9     c2_test.obj
 0003:000133fa       $SG18851                   00000001800993fa     c2_test.obj
 0003:000133fb       $SG18867                   00000001800993fb     c2_test.obj
 0003:000133fc       $SG18879                   00000001800993fc     c2_test.obj
 0003:000133fd       $SG18883                   00000001800993fd     c2_test.obj
 0003:000133fe       $SG18891                   00000001800993fe     c2_test.obj
 0003:000133ff       $SG18903                   00000001800993ff     c2_test.obj
 0003:00013400       $SG18919                   0000000180099400     c2_test.obj
 0003:00013401       $SG18930                   0000000180099401     c2_test.obj
 0003:00013402       $SG18946                   0000000180099402     c2_test.obj
 0003:00013403       $SG18958                   0000000180099403     c2_test.obj
 0003:00013404       $SG18970                   0000000180099404     c2_test.obj
 0003:00013405       $SG18990                   0000000180099405     c2_test.obj
 0003:00013406       $SG18998                   0000000180099406     c2_test.obj
 0003:00013407       $SG19006                   0000000180099407     c2_test.obj
 0003:00013408       $SG19026                   0000000180099408     c2_test.obj
 0003:00013409       $SG19038                   0000000180099409     c2_test.obj
 0003:0001340a       $SG19077                   000000018009940a     c2_test.obj
 0003:0001340b       $SG19078                   000000018009940b     c2_test.obj
 0003:0001340c       $SG19404                   000000018009940c     c2_test.obj
 0003:0001340d       $SG19405                   000000018009940d     c2_test.obj
 0003:0001340e       $SG19420                   000000018009940e     c2_test.obj
 0003:0001340f       $SG19421                   000000018009940f     c2_test.obj
 0003:00013410       $SG19432                   0000000180099410     c2_test.obj
 0003:00013411       $SG19433                   0000000180099411     c2_test.obj
 0003:00013412       $SG18410                   0000000180099412     c2_test.obj
 0003:00013413       $SG19443                   0000000180099413     c2_test.obj
 0003:00013414       $SG19444                   0000000180099414     c2_test.obj
 0003:00013415       $SG18428                   0000000180099415     c2_test.obj
 0003:00013416       $SG17545                   0000000180099416     c3_test.obj
 0003:00013417       $SG17605                   0000000180099417     c3_test.obj
 0003:00013418       $SG17611                   0000000180099418     c3_test.obj
 0003:00013419       $SG17623                   0000000180099419     c3_test.obj
 0003:0001341a       $SG17631                   000000018009941a     c3_test.obj
 0003:0001341b       $SG17473                   000000018009941b     c4_test.obj
 0003:0001341c       $SG17495                   000000018009941c     c4_test.obj
 0003:0001341d       $SG17499                   000000018009941d     c4_test.obj
 0003:0001341e       $SG17505                   000000018009941e     c4_test.obj
 0003:0001341f       $SG17509                   000000018009941f     c4_test.obj
 0003:00013420       $SG17525                   0000000180099420     c4_test.obj
 0003:00013421       $SG17533                   0000000180099421     c4_test.obj
 0003:00013422       $SG17543                   0000000180099422     c4_test.obj
 0003:00013423       $SG17555                   0000000180099423     c4_test.obj
 0003:00013424       $SG17563                   0000000180099424     c4_test.obj
 0003:00013425       $SG17592                   0000000180099425     c4_test.obj
 0003:00013426       $SG17593                   0000000180099426     c4_test.obj
 0003:00013427       $SG17914                   0000000180099427     c5_test.obj
 0003:00013428       $SG17922                   0000000180099428     c5_test.obj
 0003:00013429       $SG17930                   0000000180099429     c5_test.obj
 0003:0001342a       $SG17946                   000000018009942a     c5_test.obj
 0003:0001342b       $SG17978                   000000018009942b     c5_test.obj
 0003:0001342c       $SG17990                   000000018009942c     c5_test.obj
 0003:0001342d       $SG17994                   000000018009942d     c5_test.obj
 0003:0001342e       $SG18002                   000000018009942e     c5_test.obj
 0003:0001342f       $SG18010                   000000018009942f     c5_test.obj
 0003:00013430       $SG17576                   0000000180099430     c6_test.obj
 0003:00013431       $SG17580                   0000000180099431     c6_test.obj
 0003:00013432       $SG17612                   0000000180099432     c6_test.obj
 0003:00013440       $SG15705                   0000000180099440     test_sfun_registry.obj
 0003:00013450       sfGlobalMdlStartCallCounts 0000000180099450     test_sfun_registry.obj
 0003:00013460       ?errmsg@?N@??ssWriteRTWWorkVect@@9@9 0000000180099460     test_sfun_registry.obj
 0003:00013528       sRtwOptimizationInfoStruct 0000000180099528     test_sfun.obj
 0003:00013530       sDebuggerSimStatusListenerFcn 0000000180099530     sfc_mex:sfc_sf.obj
 0003:00013538       ?lastCpuTime@?1??sf_mex_listen_for_ctrl_c@@9@9 0000000180099538     sfc_mex:sfc_sf.obj
 0003:00013540       sSfMexErrorManager         0000000180099540     sfc_mex:sfc_mex.obj
 0003:00014680       ?commandFlag@?1??sf_debug_api@@9@9 000000018009a680     sfc_debug:sfc_api.obj
 0003:000146e8       ?commandName@?1??sf_debug_api@@9@9 000000018009a6e8     sfc_debug:sfc_api.obj
 0003:00014700       sCovCallInfo               000000018009a700     sfc_debug:cv_sfinterface.obj
 0003:00014870       ?matlabVersion@?1??cv_create_interface@@9@9 000000018009a870     sfc_debug:cv_sfinterface.obj
 0003:00014874       ?cvExists@?1??cv_create_interface@@9@9 000000018009a874     sfc_debug:cv_sfinterface.obj
 0003:00014880       ?sizeStr@?1??sf_debug_ss_data_size_string@@9@9 000000018009a880     sfc_debug:sfdb_symbol_scope.obj
 0003:00014980       ?bytesStr@?1??sf_debug_ss_data_bytes_string@@9@9 000000018009a980     sfc_debug:sfdb_symbol_scope.obj
 0003:00014d80       ?classStr@?1??sf_debug_ss_data_class_string@@9@9 000000018009ad80     sfc_debug:sfdb_symbol_scope.obj
 0003:00015180       ?sim2fiEverFailed@?1??sf_debug_ss_get_data_value@@9@9 000000018009b180     sfc_debug:sfdb_symbol_scope.obj
 0003:00015190       sStateOfMD5                000000018009b190     sfc_debug:ckmd5.obj
 0003:000151f0       GS_ExceptionRecord         000000018009b1f0     MSVCRT:gs_report.obj
 0003:00015290       GS_ContextRecord           000000018009b290     MSVCRT:gs_report.obj
 0003:00015760       DebuggerWasPresent         000000018009b760     MSVCRT:gs_report.obj
 0003:00015764       __proc_attached            000000018009b764     MSVCRT:crtdll.obj
 0004:00000000       $pdata$sf_c1_test_get_eml_resolved_functions_info 000000018009c000     c1_test.obj
 0004:0000000c       $pdata$sf_c1_test_get_check_sum 000000018009c00c     c1_test.obj
 0004:00000018       $pdata$c1_test_method_dispatcher 000000018009c018     c1_test.obj
 0004:00000024       $pdata$get_sim_state_c1_test 000000018009c024     c1_test.obj
 0004:00000030       $pdata$set_sim_state_c1_test 000000018009c030     c1_test.obj
 0004:0000003c       $pdata$sf_c1_test          000000018009c03c     c1_test.obj
 0004:00000048       $pdata$c1_chartstep_c1_test 000000018009c048     c1_test.obj
 0004:00000054       $pdata$c1_sf_marshallOut   000000018009c054     c1_test.obj
 0004:00000060       $pdata$c1_emlrt_marshallIn 000000018009c060     c1_test.obj
 0004:0000006c       $pdata$c1_b_emlrt_marshallIn 000000018009c06c     c1_test.obj
 0004:00000078       $pdata$c1_sf_marshallIn    000000018009c078     c1_test.obj
 0004:00000084       $pdata$c1_b_sf_marshallOut 000000018009c084     c1_test.obj
 0004:00000090       $pdata$c1_c_sf_marshallOut 000000018009c090     c1_test.obj
 0004:0000009c       $pdata$c1_c_emlrt_marshallIn 000000018009c09c     c1_test.obj
 0004:000000a8       $pdata$c1_b_sf_marshallIn  000000018009c0a8     c1_test.obj
 0004:000000b4       $pdata$c1_d_sf_marshallOut 000000018009c0b4     c1_test.obj
 0004:000000c0       $pdata$c1_d_emlrt_marshallIn 000000018009c0c0     c1_test.obj
 0004:000000cc       $pdata$c1_c_sf_marshallIn  000000018009c0cc     c1_test.obj
 0004:000000d8       $pdata$c1_e_sf_marshallOut 000000018009c0d8     c1_test.obj
 0004:000000e4       $pdata$c1_e_emlrt_marshallIn 000000018009c0e4     c1_test.obj
 0004:000000f0       $pdata$c1_d_sf_marshallIn  000000018009c0f0     c1_test.obj
 0004:000000fc       $pdata$c1_check_forloop_overflow_error 000000018009c0fc     c1_test.obj
 0004:00000108       $pdata$c1_eml_warning      000000018009c108     c1_test.obj
 0004:00000114       $pdata$c1_g_emlrt_marshallIn 000000018009c114     c1_test.obj
 0004:00000120       $pdata$c1_h_emlrt_marshallIn 000000018009c120     c1_test.obj
 0004:0000012c       $pdata$c1_b_eml_matlab_zgetrf 000000018009c12c     c1_test.obj
 0004:00000138       $pdata$c1_b_eml_xger       000000018009c138     c1_test.obj
 0004:00000144       $pdata$c1_c_eml_xtrsm      000000018009c144     c1_test.obj
 0004:00000150       $pdata$c1_d_eml_xtrsm      000000018009c150     c1_test.obj
 0004:0000015c       $pdata$sf_c1_test_get_autoinheritance_info 000000018009c15c     c1_test.obj
 0004:00000168       $pdata$sf_c1_test_third_party_uses_info 000000018009c168     c1_test.obj
 0004:00000174       $pdata$sf_get_sim_state_info_c1_test 000000018009c174     c1_test.obj
 0004:00000180       $pdata$chart_debug_initialization 000000018009c180     c1_test.obj
 0004:0000018c       $pdata$sf_opaque_initialize_c1_test 000000018009c18c     c1_test.obj
 0004:00000198       $pdata$sf_opaque_enable_c1_test 000000018009c198     c1_test.obj
 0004:000001a4       $pdata$sf_opaque_disable_c1_test 000000018009c1a4     c1_test.obj
 0004:000001b0       $pdata$sf_opaque_gateway_c1_test 000000018009c1b0     c1_test.obj
 0004:000001bc       $pdata$sf_internal_get_sim_state_c1_test 000000018009c1bc     c1_test.obj
 0004:000001c8       $pdata$sf_internal_set_sim_state_c1_test 000000018009c1c8     c1_test.obj
 0004:000001d4       $pdata$sf_opaque_get_sim_state_c1_test 000000018009c1d4     c1_test.obj
 0004:000001e0       $pdata$sf_opaque_set_sim_state_c1_test 000000018009c1e0     c1_test.obj
 0004:000001ec       $pdata$sf_opaque_terminate_c1_test 000000018009c1ec     c1_test.obj
 0004:000001f8       $pdata$sf_opaque_init_subchart_simstructs 000000018009c1f8     c1_test.obj
 0004:00000204       $pdata$mdlProcessParameters_c1_test 000000018009c204     c1_test.obj
 0004:00000210       $pdata$mdlSetWorkWidths_c1_test 000000018009c210     c1_test.obj
 0004:0000021c       $pdata$mdlRTW_c1_test      000000018009c21c     c1_test.obj
 0004:00000228       $pdata$mdlStart_c1_test    000000018009c228     c1_test.obj
 0004:00000234       $pdata$sf_c2_test_get_eml_resolved_functions_info 000000018009c234     c2_test.obj
 0004:00000240       $pdata$sf_c2_test_get_check_sum 000000018009c240     c2_test.obj
 0004:0000024c       $pdata$c2_test_method_dispatcher 000000018009c24c     c2_test.obj
 0004:00000258       $pdata$get_sim_state_c2_test 000000018009c258     c2_test.obj
 0004:00000264       $pdata$set_sim_state_c2_test 000000018009c264     c2_test.obj
 0004:00000270       $pdata$sf_c2_test          000000018009c270     c2_test.obj
 0004:0000027c       $pdata$c2_chartstep_c2_test 000000018009c27c     c2_test.obj
 0004:00000288       $pdata$c2_m2c              000000018009c288     c2_test.obj
 0004:00000294       $pdata$init_script_number_translation 000000018009c294     c2_test.obj
 0004:000002a0       $pdata$c2_sf_marshallOut   000000018009c2a0     c2_test.obj
 0004:000002ac       $pdata$c2_emlrt_marshallIn 000000018009c2ac     c2_test.obj
 0004:000002b8       $pdata$c2_b_emlrt_marshallIn 000000018009c2b8     c2_test.obj
 0004:000002c4       $pdata$c2_sf_marshallIn    000000018009c2c4     c2_test.obj
 0004:000002d0       $pdata$c2_b_sf_marshallOut 000000018009c2d0     c2_test.obj
 0004:000002dc       $pdata$c2_c_sf_marshallOut 000000018009c2dc     c2_test.obj
 0004:000002e8       $pdata$c2_d_sf_marshallOut 000000018009c2e8     c2_test.obj
 0004:000002f4       $pdata$c2_c_emlrt_marshallIn 000000018009c2f4     c2_test.obj
 0004:00000300       $pdata$c2_b_sf_marshallIn  000000018009c300     c2_test.obj
 0004:0000030c       $pdata$c2_d_emlrt_marshallIn 000000018009c30c     c2_test.obj
 0004:00000318       $pdata$c2_c_sf_marshallIn  000000018009c318     c2_test.obj
 0004:00000324       $pdata$c2_e_sf_marshallOut 000000018009c324     c2_test.obj
 0004:00000330       $pdata$c2_e_emlrt_marshallIn 000000018009c330     c2_test.obj
 0004:0000033c       $pdata$c2_d_sf_marshallIn  000000018009c33c     c2_test.obj
 0004:00000348       $pdata$c2_f_sf_marshallOut 000000018009c348     c2_test.obj
 0004:00000354       $pdata$c2_f_emlrt_marshallIn 000000018009c354     c2_test.obj
 0004:00000360       $pdata$c2_e_sf_marshallIn  000000018009c360     c2_test.obj
 0004:0000036c       $pdata$c2_g_emlrt_marshallIn 000000018009c36c     c2_test.obj
 0004:00000378       $pdata$c2_f_sf_marshallIn  000000018009c378     c2_test.obj
 0004:00000384       $pdata$c2_g_sf_marshallOut 000000018009c384     c2_test.obj
 0004:00000390       $pdata$c2_h_emlrt_marshallIn 000000018009c390     c2_test.obj
 0004:0000039c       $pdata$c2_g_sf_marshallIn  000000018009c39c     c2_test.obj
 0004:000003a8       $pdata$c2_sum              000000018009c3a8     c2_test.obj
 0004:000003b4       $pdata$c2_check_forloop_overflow_error 000000018009c3b4     c2_test.obj
 0004:000003c0       $pdata$c2_eml_warning      000000018009c3c0     c2_test.obj
 0004:000003cc       $pdata$c2_j_emlrt_marshallIn 000000018009c3cc     c2_test.obj
 0004:000003d8       $pdata$c2_k_emlrt_marshallIn 000000018009c3d8     c2_test.obj
 0004:000003e4       $pdata$c2_b_eml_matlab_zgetrf 000000018009c3e4     c2_test.obj
 0004:000003f0       $pdata$c2_b_eml_xger       000000018009c3f0     c2_test.obj
 0004:000003fc       $pdata$c2_c_eml_xtrsm      000000018009c3fc     c2_test.obj
 0004:00000408       $pdata$c2_d_eml_xtrsm      000000018009c408     c2_test.obj
 0004:00000414       $pdata$sf_c2_test_get_autoinheritance_info 000000018009c414     c2_test.obj
 0004:00000420       $pdata$sf_c2_test_third_party_uses_info 000000018009c420     c2_test.obj
 0004:0000042c       $pdata$sf_get_sim_state_info_c2_test 000000018009c42c     c2_test.obj
 0004:00000438       $pdata$chart_debug_initialization 000000018009c438     c2_test.obj
 0004:00000444       $pdata$sf_opaque_initialize_c2_test 000000018009c444     c2_test.obj
 0004:00000450       $pdata$sf_opaque_enable_c2_test 000000018009c450     c2_test.obj
 0004:0000045c       $pdata$sf_opaque_disable_c2_test 000000018009c45c     c2_test.obj
 0004:00000468       $pdata$sf_opaque_gateway_c2_test 000000018009c468     c2_test.obj
 0004:00000474       $pdata$sf_internal_get_sim_state_c2_test 000000018009c474     c2_test.obj
 0004:00000480       $pdata$sf_internal_set_sim_state_c2_test 000000018009c480     c2_test.obj
 0004:0000048c       $pdata$sf_opaque_get_sim_state_c2_test 000000018009c48c     c2_test.obj
 0004:00000498       $pdata$sf_opaque_set_sim_state_c2_test 000000018009c498     c2_test.obj
 0004:000004a4       $pdata$sf_opaque_terminate_c2_test 000000018009c4a4     c2_test.obj
 0004:000004b0       $pdata$sf_opaque_init_subchart_simstructs 000000018009c4b0     c2_test.obj
 0004:000004bc       $pdata$mdlProcessParameters_c2_test 000000018009c4bc     c2_test.obj
 0004:000004c8       $pdata$mdlSetWorkWidths_c2_test 000000018009c4c8     c2_test.obj
 0004:000004d4       $pdata$mdlRTW_c2_test      000000018009c4d4     c2_test.obj
 0004:000004e0       $pdata$mdlStart_c2_test    000000018009c4e0     c2_test.obj
 0004:000004ec       $pdata$sf_c3_test_get_eml_resolved_functions_info 000000018009c4ec     c3_test.obj
 0004:000004f8       $pdata$sf_c3_test_get_check_sum 000000018009c4f8     c3_test.obj
 0004:00000504       $pdata$c3_test_method_dispatcher 000000018009c504     c3_test.obj
 0004:00000510       $pdata$get_sim_state_c3_test 000000018009c510     c3_test.obj
 0004:0000051c       $pdata$set_sim_state_c3_test 000000018009c51c     c3_test.obj
 0004:00000528       $pdata$sf_c3_test          000000018009c528     c3_test.obj
 0004:00000534       $pdata$c3_chartstep_c3_test 000000018009c534     c3_test.obj
 0004:00000540       $pdata$c3_eulerang         000000018009c540     c3_test.obj
 0004:0000054c       $pdata$init_script_number_translation 000000018009c54c     c3_test.obj
 0004:00000558       $pdata$c3_sf_marshallOut   000000018009c558     c3_test.obj
 0004:00000564       $pdata$c3_emlrt_marshallIn 000000018009c564     c3_test.obj
 0004:00000570       $pdata$c3_b_emlrt_marshallIn 000000018009c570     c3_test.obj
 0004:0000057c       $pdata$c3_sf_marshallIn    000000018009c57c     c3_test.obj
 0004:00000588       $pdata$c3_b_sf_marshallOut 000000018009c588     c3_test.obj
 0004:00000594       $pdata$c3_c_emlrt_marshallIn 000000018009c594     c3_test.obj
 0004:000005a0       $pdata$c3_b_sf_marshallIn  000000018009c5a0     c3_test.obj
 0004:000005ac       $pdata$c3_c_sf_marshallOut 000000018009c5ac     c3_test.obj
 0004:000005b8       $pdata$c3_d_emlrt_marshallIn 000000018009c5b8     c3_test.obj
 0004:000005c4       $pdata$c3_c_sf_marshallIn  000000018009c5c4     c3_test.obj
 0004:000005d0       $pdata$c3_d_sf_marshallOut 000000018009c5d0     c3_test.obj
 0004:000005dc       $pdata$c3_e_emlrt_marshallIn 000000018009c5dc     c3_test.obj
 0004:000005e8       $pdata$c3_d_sf_marshallIn  000000018009c5e8     c3_test.obj
 0004:000005f4       $pdata$c3_g_emlrt_marshallIn 000000018009c5f4     c3_test.obj
 0004:00000600       $pdata$c3_h_emlrt_marshallIn 000000018009c600     c3_test.obj
 0004:0000060c       $pdata$sf_c3_test_get_autoinheritance_info 000000018009c60c     c3_test.obj
 0004:00000618       $pdata$sf_c3_test_third_party_uses_info 000000018009c618     c3_test.obj
 0004:00000624       $pdata$sf_get_sim_state_info_c3_test 000000018009c624     c3_test.obj
 0004:00000630       $pdata$chart_debug_initialization 000000018009c630     c3_test.obj
 0004:0000063c       $pdata$sf_opaque_initialize_c3_test 000000018009c63c     c3_test.obj
 0004:00000648       $pdata$sf_opaque_enable_c3_test 000000018009c648     c3_test.obj
 0004:00000654       $pdata$sf_opaque_disable_c3_test 000000018009c654     c3_test.obj
 0004:00000660       $pdata$sf_opaque_gateway_c3_test 000000018009c660     c3_test.obj
 0004:0000066c       $pdata$sf_internal_get_sim_state_c3_test 000000018009c66c     c3_test.obj
 0004:00000678       $pdata$sf_internal_set_sim_state_c3_test 000000018009c678     c3_test.obj
 0004:00000684       $pdata$sf_opaque_get_sim_state_c3_test 000000018009c684     c3_test.obj
 0004:00000690       $pdata$sf_opaque_set_sim_state_c3_test 000000018009c690     c3_test.obj
 0004:0000069c       $pdata$sf_opaque_terminate_c3_test 000000018009c69c     c3_test.obj
 0004:000006a8       $pdata$sf_opaque_init_subchart_simstructs 000000018009c6a8     c3_test.obj
 0004:000006b4       $pdata$mdlProcessParameters_c3_test 000000018009c6b4     c3_test.obj
 0004:000006c0       $pdata$mdlSetWorkWidths_c3_test 000000018009c6c0     c3_test.obj
 0004:000006cc       $pdata$mdlRTW_c3_test      000000018009c6cc     c3_test.obj
 0004:000006d8       $pdata$mdlStart_c3_test    000000018009c6d8     c3_test.obj
 0004:000006e4       $pdata$sf_c4_test_get_eml_resolved_functions_info 000000018009c6e4     c4_test.obj
 0004:000006f0       $pdata$sf_c4_test_get_check_sum 000000018009c6f0     c4_test.obj
 0004:000006fc       $pdata$c4_test_method_dispatcher 000000018009c6fc     c4_test.obj
 0004:00000708       $pdata$get_sim_state_c4_test 000000018009c708     c4_test.obj
 0004:00000714       $pdata$set_sim_state_c4_test 000000018009c714     c4_test.obj
 0004:00000720       $pdata$sf_c4_test          000000018009c720     c4_test.obj
 0004:0000072c       $pdata$c4_chartstep_c4_test 000000018009c72c     c4_test.obj
 0004:00000738       $pdata$c4_sf_marshallOut   000000018009c738     c4_test.obj
 0004:00000744       $pdata$c4_emlrt_marshallIn 000000018009c744     c4_test.obj
 0004:00000750       $pdata$c4_b_emlrt_marshallIn 000000018009c750     c4_test.obj
 0004:0000075c       $pdata$c4_sf_marshallIn    000000018009c75c     c4_test.obj
 0004:00000768       $pdata$c4_b_sf_marshallOut 000000018009c768     c4_test.obj
 0004:00000774       $pdata$c4_c_sf_marshallOut 000000018009c774     c4_test.obj
 0004:00000780       $pdata$c4_d_sf_marshallOut 000000018009c780     c4_test.obj
 0004:0000078c       $pdata$c4_e_sf_marshallOut 000000018009c78c     c4_test.obj
 0004:00000798       $pdata$c4_c_emlrt_marshallIn 000000018009c798     c4_test.obj
 0004:000007a4       $pdata$c4_b_sf_marshallIn  000000018009c7a4     c4_test.obj
 0004:000007b0       $pdata$c4_d_emlrt_marshallIn 000000018009c7b0     c4_test.obj
 0004:000007bc       $pdata$c4_c_sf_marshallIn  000000018009c7bc     c4_test.obj
 0004:000007c8       $pdata$c4_sum              000000018009c7c8     c4_test.obj
 0004:000007d4       $pdata$c4_f_emlrt_marshallIn 000000018009c7d4     c4_test.obj
 0004:000007e0       $pdata$c4_g_emlrt_marshallIn 000000018009c7e0     c4_test.obj
 0004:000007ec       $pdata$sf_c4_test_get_autoinheritance_info 000000018009c7ec     c4_test.obj
 0004:000007f8       $pdata$sf_c4_test_third_party_uses_info 000000018009c7f8     c4_test.obj
 0004:00000804       $pdata$sf_get_sim_state_info_c4_test 000000018009c804     c4_test.obj
 0004:00000810       $pdata$chart_debug_initialization 000000018009c810     c4_test.obj
 0004:0000081c       $pdata$sf_opaque_initialize_c4_test 000000018009c81c     c4_test.obj
 0004:00000828       $pdata$sf_opaque_enable_c4_test 000000018009c828     c4_test.obj
 0004:00000834       $pdata$sf_opaque_disable_c4_test 000000018009c834     c4_test.obj
 0004:00000840       $pdata$sf_opaque_gateway_c4_test 000000018009c840     c4_test.obj
 0004:0000084c       $pdata$sf_internal_get_sim_state_c4_test 000000018009c84c     c4_test.obj
 0004:00000858       $pdata$sf_internal_set_sim_state_c4_test 000000018009c858     c4_test.obj
 0004:00000864       $pdata$sf_opaque_get_sim_state_c4_test 000000018009c864     c4_test.obj
 0004:00000870       $pdata$sf_opaque_set_sim_state_c4_test 000000018009c870     c4_test.obj
 0004:0000087c       $pdata$sf_opaque_terminate_c4_test 000000018009c87c     c4_test.obj
 0004:00000888       $pdata$sf_opaque_init_subchart_simstructs 000000018009c888     c4_test.obj
 0004:00000894       $pdata$mdlProcessParameters_c4_test 000000018009c894     c4_test.obj
 0004:000008a0       $pdata$mdlSetWorkWidths_c4_test 000000018009c8a0     c4_test.obj
 0004:000008ac       $pdata$mdlRTW_c4_test      000000018009c8ac     c4_test.obj
 0004:000008b8       $pdata$mdlStart_c4_test    000000018009c8b8     c4_test.obj
 0004:000008c4       $pdata$sf_c5_test_get_eml_resolved_functions_info 000000018009c8c4     c5_test.obj
 0004:000008d0       $pdata$sf_c5_test_get_check_sum 000000018009c8d0     c5_test.obj
 0004:000008dc       $pdata$c5_test_method_dispatcher 000000018009c8dc     c5_test.obj
 0004:000008e8       $pdata$get_sim_state_c5_test 000000018009c8e8     c5_test.obj
 0004:000008f4       $pdata$set_sim_state_c5_test 000000018009c8f4     c5_test.obj
 0004:00000900       $pdata$sf_c5_test          000000018009c900     c5_test.obj
 0004:0000090c       $pdata$c5_chartstep_c5_test 000000018009c90c     c5_test.obj
 0004:00000918       $pdata$c5_sf_marshallOut   000000018009c918     c5_test.obj
 0004:00000924       $pdata$c5_emlrt_marshallIn 000000018009c924     c5_test.obj
 0004:00000930       $pdata$c5_b_emlrt_marshallIn 000000018009c930     c5_test.obj
 0004:0000093c       $pdata$c5_sf_marshallIn    000000018009c93c     c5_test.obj
 0004:00000948       $pdata$c5_b_sf_marshallOut 000000018009c948     c5_test.obj
 0004:00000954       $pdata$c5_c_emlrt_marshallIn 000000018009c954     c5_test.obj
 0004:00000960       $pdata$c5_d_emlrt_marshallIn 000000018009c960     c5_test.obj
 0004:0000096c       $pdata$c5_b_sf_marshallIn  000000018009c96c     c5_test.obj
 0004:00000978       $pdata$c5_c_sf_marshallOut 000000018009c978     c5_test.obj
 0004:00000984       $pdata$c5_e_emlrt_marshallIn 000000018009c984     c5_test.obj
 0004:00000990       $pdata$c5_f_emlrt_marshallIn 000000018009c990     c5_test.obj
 0004:0000099c       $pdata$c5_c_sf_marshallIn  000000018009c99c     c5_test.obj
 0004:000009a8       $pdata$c5_d_sf_marshallOut 000000018009c9a8     c5_test.obj
 0004:000009b4       $pdata$c5_g_emlrt_marshallIn 000000018009c9b4     c5_test.obj
 0004:000009c0       $pdata$c5_h_emlrt_marshallIn 000000018009c9c0     c5_test.obj
 0004:000009cc       $pdata$c5_d_sf_marshallIn  000000018009c9cc     c5_test.obj
 0004:000009d8       $pdata$c5_e_sf_marshallOut 000000018009c9d8     c5_test.obj
 0004:000009e4       $pdata$c5_f_sf_marshallOut 000000018009c9e4     c5_test.obj
 0004:000009f0       $pdata$c5_i_emlrt_marshallIn 000000018009c9f0     c5_test.obj
 0004:000009fc       $pdata$c5_e_sf_marshallIn  000000018009c9fc     c5_test.obj
 0004:00000a08       $pdata$c5_atan2            000000018009ca08     c5_test.obj
 0004:00000a14       $pdata$c5_mpower           000000018009ca14     c5_test.obj
 0004:00000a20       $pdata$c5_eml_error        000000018009ca20     c5_test.obj
 0004:00000a2c       $pdata$c5_k_emlrt_marshallIn 000000018009ca2c     c5_test.obj
 0004:00000a38       $pdata$c5_l_emlrt_marshallIn 000000018009ca38     c5_test.obj
 0004:00000a44       $pdata$c5_b_sqrt           000000018009ca44     c5_test.obj
 0004:00000a50       $pdata$sf_c5_test_get_autoinheritance_info 000000018009ca50     c5_test.obj
 0004:00000a5c       $pdata$sf_c5_test_third_party_uses_info 000000018009ca5c     c5_test.obj
 0004:00000a68       $pdata$sf_get_sim_state_info_c5_test 000000018009ca68     c5_test.obj
 0004:00000a74       $pdata$chart_debug_initialization 000000018009ca74     c5_test.obj
 0004:00000a80       $pdata$sf_opaque_initialize_c5_test 000000018009ca80     c5_test.obj
 0004:00000a8c       $pdata$sf_opaque_enable_c5_test 000000018009ca8c     c5_test.obj
 0004:00000a98       $pdata$sf_opaque_disable_c5_test 000000018009ca98     c5_test.obj
 0004:00000aa4       $pdata$sf_opaque_gateway_c5_test 000000018009caa4     c5_test.obj
 0004:00000ab0       $pdata$sf_internal_get_sim_state_c5_test 000000018009cab0     c5_test.obj
 0004:00000abc       $pdata$sf_internal_set_sim_state_c5_test 000000018009cabc     c5_test.obj
 0004:00000ac8       $pdata$sf_opaque_get_sim_state_c5_test 000000018009cac8     c5_test.obj
 0004:00000ad4       $pdata$sf_opaque_set_sim_state_c5_test 000000018009cad4     c5_test.obj
 0004:00000ae0       $pdata$sf_opaque_terminate_c5_test 000000018009cae0     c5_test.obj
 0004:00000aec       $pdata$sf_opaque_init_subchart_simstructs 000000018009caec     c5_test.obj
 0004:00000af8       $pdata$mdlProcessParameters_c5_test 000000018009caf8     c5_test.obj
 0004:00000b04       $pdata$mdlSetWorkWidths_c5_test 000000018009cb04     c5_test.obj
 0004:00000b10       $pdata$mdlRTW_c5_test      000000018009cb10     c5_test.obj
 0004:00000b1c       $pdata$mdlStart_c5_test    000000018009cb1c     c5_test.obj
 0004:00000b28       $pdata$sf_c6_test_get_eml_resolved_functions_info 000000018009cb28     c6_test.obj
 0004:00000b34       $pdata$sf_c6_test_get_check_sum 000000018009cb34     c6_test.obj
 0004:00000b40       $pdata$c6_test_method_dispatcher 000000018009cb40     c6_test.obj
 0004:00000b4c       $pdata$get_sim_state_c6_test 000000018009cb4c     c6_test.obj
 0004:00000b58       $pdata$set_sim_state_c6_test 000000018009cb58     c6_test.obj
 0004:00000b64       $pdata$sf_c6_test          000000018009cb64     c6_test.obj
 0004:00000b70       $pdata$c6_sf_marshallOut   000000018009cb70     c6_test.obj
 0004:00000b7c       $pdata$c6_emlrt_marshallIn 000000018009cb7c     c6_test.obj
 0004:00000b88       $pdata$c6_b_emlrt_marshallIn 000000018009cb88     c6_test.obj
 0004:00000b94       $pdata$c6_sf_marshallIn    000000018009cb94     c6_test.obj
 0004:00000ba0       $pdata$c6_b_sf_marshallOut 000000018009cba0     c6_test.obj
 0004:00000bac       $pdata$c6_c_emlrt_marshallIn 000000018009cbac     c6_test.obj
 0004:00000bb8       $pdata$c6_d_emlrt_marshallIn 000000018009cbb8     c6_test.obj
 0004:00000bc4       $pdata$c6_b_sf_marshallIn  000000018009cbc4     c6_test.obj
 0004:00000bd0       $pdata$c6_c_sf_marshallOut 000000018009cbd0     c6_test.obj
 0004:00000bdc       $pdata$c6_e_emlrt_marshallIn 000000018009cbdc     c6_test.obj
 0004:00000be8       $pdata$c6_f_emlrt_marshallIn 000000018009cbe8     c6_test.obj
 0004:00000bf4       $pdata$c6_c_sf_marshallIn  000000018009cbf4     c6_test.obj
 0004:00000c00       $pdata$c6_d_sf_marshallOut 000000018009cc00     c6_test.obj
 0004:00000c0c       $pdata$c6_g_emlrt_marshallIn 000000018009cc0c     c6_test.obj
 0004:00000c18       $pdata$c6_h_emlrt_marshallIn 000000018009cc18     c6_test.obj
 0004:00000c24       $pdata$c6_d_sf_marshallIn  000000018009cc24     c6_test.obj
 0004:00000c30       $pdata$c6_e_sf_marshallOut 000000018009cc30     c6_test.obj
 0004:00000c3c       $pdata$c6_i_emlrt_marshallIn 000000018009cc3c     c6_test.obj
 0004:00000c48       $pdata$c6_j_emlrt_marshallIn 000000018009cc48     c6_test.obj
 0004:00000c54       $pdata$c6_e_sf_marshallIn  000000018009cc54     c6_test.obj
 0004:00000c60       $pdata$c6_f_sf_marshallOut 000000018009cc60     c6_test.obj
 0004:00000c6c       $pdata$c6_k_emlrt_marshallIn 000000018009cc6c     c6_test.obj
 0004:00000c78       $pdata$c6_l_emlrt_marshallIn 000000018009cc78     c6_test.obj
 0004:00000c84       $pdata$c6_f_sf_marshallIn  000000018009cc84     c6_test.obj
 0004:00000c90       $pdata$c6_g_sf_marshallOut 000000018009cc90     c6_test.obj
 0004:00000c9c       $pdata$c6_h_sf_marshallOut 000000018009cc9c     c6_test.obj
 0004:00000ca8       $pdata$c6_mpower           000000018009cca8     c6_test.obj
 0004:00000cb4       $pdata$c6_eml_error        000000018009ccb4     c6_test.obj
 0004:00000cc0       $pdata$c6_n_emlrt_marshallIn 000000018009ccc0     c6_test.obj
 0004:00000ccc       $pdata$c6_o_emlrt_marshallIn 000000018009cccc     c6_test.obj
 0004:00000cd8       $pdata$sf_c6_test_get_autoinheritance_info 000000018009ccd8     c6_test.obj
 0004:00000ce4       $pdata$sf_c6_test_third_party_uses_info 000000018009cce4     c6_test.obj
 0004:00000cf0       $pdata$sf_get_sim_state_info_c6_test 000000018009ccf0     c6_test.obj
 0004:00000cfc       $pdata$chart_debug_initialization 000000018009ccfc     c6_test.obj
 0004:00000d08       $pdata$sf_opaque_initialize_c6_test 000000018009cd08     c6_test.obj
 0004:00000d14       $pdata$sf_opaque_enable_c6_test 000000018009cd14     c6_test.obj
 0004:00000d20       $pdata$sf_opaque_disable_c6_test 000000018009cd20     c6_test.obj
 0004:00000d2c       $pdata$sf_opaque_gateway_c6_test 000000018009cd2c     c6_test.obj
 0004:00000d38       $pdata$sf_internal_get_sim_state_c6_test 000000018009cd38     c6_test.obj
 0004:00000d44       $pdata$sf_internal_set_sim_state_c6_test 000000018009cd44     c6_test.obj
 0004:00000d50       $pdata$sf_opaque_get_sim_state_c6_test 000000018009cd50     c6_test.obj
 0004:00000d5c       $pdata$sf_opaque_set_sim_state_c6_test 000000018009cd5c     c6_test.obj
 0004:00000d68       $pdata$sf_opaque_terminate_c6_test 000000018009cd68     c6_test.obj
 0004:00000d74       $pdata$sf_opaque_init_subchart_simstructs 000000018009cd74     c6_test.obj
 0004:00000d80       $pdata$mdlProcessParameters_c6_test 000000018009cd80     c6_test.obj
 0004:00000d8c       $pdata$mdlSetWorkWidths_c6_test 000000018009cd8c     c6_test.obj
 0004:00000d98       $pdata$mdlRTW_c6_test      000000018009cd98     c6_test.obj
 0004:00000da4       $pdata$mdlStart_c6_test    000000018009cda4     c6_test.obj
 0004:00000db0       $pdata$mexFunction         000000018009cdb0     test_sfun_registry.obj
 0004:00000dbc       $pdata$_ssSetInputPortDirectFeedThroughFcn 000000018009cdbc     test_sfun_registry.obj
 0004:00000dc8       $pdata$_ssGetInputPortSignalPtrsFcn 000000018009cdc8     test_sfun_registry.obj
 0004:00000dd4       $pdata$_ssGetInputPortSignalFcn 000000018009cdd4     test_sfun_registry.obj
 0004:00000de0       $pdata$_ssSetInputPortReusableFcn 000000018009cde0     test_sfun_registry.obj
 0004:00000dec       $pdata$_ssSetOutputPortReusableFcn 000000018009cdec     test_sfun_registry.obj
 0004:00000df8       $pdata$ssGetIsZeroCrossControlDisabled 000000018009cdf8     test_sfun_registry.obj
 0004:00000e04       $pdata$ssSetIsInputPortUsedForContZcSignal 000000018009ce04     test_sfun_registry.obj
 0004:00000e10       $pdata$ssSetZcSignalIsZcElementDisc 000000018009ce10     test_sfun_registry.obj
 0004:00000e1c       $pdata$ssSetZcSignalName   000000018009ce1c     test_sfun_registry.obj
 0004:00000e28       $pdata$ssSetZcSignalWidth  000000018009ce28     test_sfun_registry.obj
 0004:00000e34       $pdata$ssSetZcSignalZcEventType 000000018009ce34     test_sfun_registry.obj
 0004:00000e40       $pdata$ssSetZcSignalType   000000018009ce40     test_sfun_registry.obj
 0004:00000e4c       $pdata$ssSetZcSignalZcTol  000000018009ce4c     test_sfun_registry.obj
 0004:00000e58       $pdata$ssSetZcSignalNeedsEventNotification 000000018009ce58     test_sfun_registry.obj
 0004:00000e64       $pdata$ssCreateAndAddZcSignalInfo 000000018009ce64     test_sfun_registry.obj
 0004:00000e70       $pdata$ssCloneAndAddZcSignalInfo 000000018009ce70     test_sfun_registry.obj
 0004:00000e7c       $pdata$ssGetNumZcSignals   000000018009ce7c     test_sfun_registry.obj
 0004:00000e88       $pdata$ssGetZcSignalVector 000000018009ce88     test_sfun_registry.obj
 0004:00000e94       $pdata$ssGetZcSignalName   000000018009ce94     test_sfun_registry.obj
 0004:00000ea0       $pdata$ssGetZcSignalWidth  000000018009cea0     test_sfun_registry.obj
 0004:00000eac       $pdata$ssGetZcSignalZcEventType 000000018009ceac     test_sfun_registry.obj
 0004:00000eb8       $pdata$ssGetZcSignalZcEvents 000000018009ceb8     test_sfun_registry.obj
 0004:00000ec4       $pdata$ssGetZcSignalType   000000018009cec4     test_sfun_registry.obj
 0004:00000ed0       $pdata$ssGetZcSignalZcTol  000000018009ced0     test_sfun_registry.obj
 0004:00000edc       $pdata$ssGetZcSignalNeedsEventNotification 000000018009cedc     test_sfun_registry.obj
 0004:00000ee8       $pdata$ssGetZcSignalIsZcElementDisc 000000018009cee8     test_sfun_registry.obj
 0004:00000ef4       $pdata$ssGetIsInputPortElementContinuous 000000018009cef4     test_sfun_registry.obj
 0004:00000f00       $pdata$ssGetDTypeIdFromMxArray 000000018009cf00     test_sfun_registry.obj
 0004:00000f0c       $pdata$ssWriteRTWStr       000000018009cf0c     test_sfun_registry.obj
 0004:00000f18       $pdata$ssWriteRTWNameValuePair 000000018009cf18     test_sfun_registry.obj
 0004:00000f24       $pdata$ssWriteRTWParamSettings 000000018009cf24     test_sfun_registry.obj
 0004:00000f30       $pdata$ssWriteRTWParameters 000000018009cf30     test_sfun_registry.obj
 0004:00000f3c       $pdata$ssWriteRTWWorkVect  000000018009cf3c     test_sfun_registry.obj
 0004:00000f48       $pdata$ssWriteRTWMxVectParam 000000018009cf48     test_sfun_registry.obj
 0004:00000f54       $pdata$ssWriteRTWMx2dMatParam 000000018009cf54     test_sfun_registry.obj
 0004:00000f60       $pdata$_ssSetInputPortMatrixDimensions 000000018009cf60     test_sfun_registry.obj
 0004:00000f6c       $pdata$_ssSetOutputPortMatrixDimensions 000000018009cf6c     test_sfun_registry.obj
 0004:00000f78       $pdata$_ssSetInputPortVectorDimension 000000018009cf78     test_sfun_registry.obj
 0004:00000f84       $pdata$_ssSetOutputPortVectorDimension 000000018009cf84     test_sfun_registry.obj
 0004:00000f90       $pdata$ssIsRunTimeParamTunable 000000018009cf90     test_sfun_registry.obj
 0004:00000f9c       $pdata$ssGetSFuncBlockHandle 000000018009cf9c     test_sfun_registry.obj
 0004:00000fa8       $pdata$_ssGetCurrentInputPortWidth 000000018009cfa8     test_sfun_registry.obj
 0004:00000fb4       $pdata$_ssGetCurrentOutputPortWidth 000000018009cfb4     test_sfun_registry.obj
 0004:00000fc0       $pdata$_ssGetCallSystemNumFcnCallDestinations 000000018009cfc0     test_sfun_registry.obj
 0004:00000fcc       $pdata$ssWarning           000000018009cfcc     test_sfun_registry.obj
 0004:00000fd8       $pdata$_ssGetAbsTol        000000018009cfd8     test_sfun_registry.obj
 0004:00000fe4       $pdata$sf_process_check_sum_call 000000018009cfe4     test_sfun_registry.obj
 0004:00000ff0       $pdata$sf_process_autoinheritance_call 000000018009cff0     test_sfun_registry.obj
 0004:00000ffc       $pdata$sf_process_get_third_party_uses_info_call 000000018009cffc     test_sfun_registry.obj
 0004:00001008       $pdata$sf_process_get_eml_resolved_functions_info_call 000000018009d008     test_sfun_registry.obj
 0004:00001014       $pdata$sf_mex_unlock_call  000000018009d014     test_sfun_registry.obj
 0004:00001020       $pdata$sf_debug_api_wrapper 000000018009d020     test_sfun_registry.obj
 0004:0000102c       $pdata$ProcessMexSfunctionCmdLineCall 000000018009d02c     test_sfun_registry.obj
 0004:00001038       $pdata$sf_machine_global_initializer_called 000000018009d038     test_sfun_registry.obj
 0004:00001044       $pdata$sf_machine_global_method_dispatcher 000000018009d044     test_sfun_registry.obj
 0004:00001050       $pdata$sf_machine_global_terminator 000000018009d050     test_sfun_registry.obj
 0004:0000105c       $pdata$sf_register_machine_exported_symbols 000000018009d05c     test_sfun_registry.obj
 0004:00001068       $pdata$sf_machine_global_initializer 000000018009d068     test_sfun_registry.obj
 0004:00001074       $pdata$ProcessMexSfunctionEveryCall 000000018009d074     test_sfun_registry.obj
 0004:00001080       $pdata$_RegNumInputPortsCB 000000018009d080     test_sfun_registry.obj
 0004:0000108c       $pdata$_RegNumOutputPortsCB 000000018009d08c     test_sfun_registry.obj
 0004:00001098       $pdata$_CreateSimStruct    000000018009d098     test_sfun_registry.obj
 0004:000010a4       $pdata$_ssFatalError       000000018009d0a4     test_sfun_registry.obj
 0004:000010b0       $pdata$_ProcessMexSfunctionCmdLineCall 000000018009d0b0     test_sfun_registry.obj
 0004:000010bc       $pdata$load_test_optimization_info 000000018009d0bc     test_sfun.obj
 0004:000010c8       $pdata$unload_test_optimization_info 000000018009d0c8     test_sfun.obj
 0004:000010d4       $pdata$sf_test_method_dispatcher 000000018009d0d4     test_sfun.obj
 0004:000010e0       $pdata$sf_test_process_check_sum_call 000000018009d0e0     test_sfun.obj
 0004:000010ec       $pdata$sf_test_autoinheritance_info 000000018009d0ec     test_sfun.obj
 0004:000010f8       $pdata$sf_test_get_eml_resolved_functions_info 000000018009d0f8     test_sfun.obj
 0004:00001104       $pdata$sf_test_third_party_uses_info 000000018009d104     test_sfun.obj
 0004:00001110       $pdata$test_debug_initialize 000000018009d110     test_sfun.obj
 0004:0000111c       $pdata$sf_send_message_wrapper 000000018009d11c     sfc_mex:sfc_sf.obj
 0004:00001128       $pdata$sf_receive_message_wrapper 000000018009d128     sfc_mex:sfc_sf.obj
 0004:00001134       $pdata$sf_check_out_message_wrapper 000000018009d134     sfc_mex:sfc_sf.obj
 0004:00001140       $pdata$sf_check_in_message_wrapper 000000018009d140     sfc_mex:sfc_sf.obj
 0004:0000114c       $pdata$sf_no_message_wrapper 000000018009d14c     sfc_mex:sfc_sf.obj
 0004:00001158       $pdata$get_machine_and_chart_file_number 000000018009d158     sfc_mex:sfc_sf.obj
 0004:00001164       $pdata$get_sfun_block_specialization 000000018009d164     sfc_mex:sfc_sf.obj
 0004:00001170       $pdata$call_sf_machine_global_method_dispatcher 000000018009d170     sfc_mex:sfc_sf.obj
 0004:0000117c       $pdata$mdlZeroCrossings    000000018009d17c     sfc_mex:sfc_sf.obj
 0004:00001188       $pdata$mdl_derivatives_processing 000000018009d188     sfc_mex:sfc_sf.obj
 0004:00001194       $pdata$mdlDerivatives      000000018009d194     sfc_mex:sfc_sf.obj
 0004:000011a0       $pdata$mdl_initialize_conditions_processing 000000018009d1a0     sfc_mex:sfc_sf.obj
 0004:000011ac       $pdata$mdlInitializeConditions 000000018009d1ac     sfc_mex:sfc_sf.obj
 0004:000011b8       $pdata$mdl_ext_mode_exec_processing 000000018009d1b8     sfc_mex:sfc_sf.obj
 0004:000011c4       $pdata$mdlExtModeExec      000000018009d1c4     sfc_mex:sfc_sf.obj
 0004:000011d0       $pdata$mdl_outputs_continuous_legacy 000000018009d1d0     sfc_mex:sfc_sf.obj
 0004:000011dc       $pdata$mdl_outputs_processing 000000018009d1dc     sfc_mex:sfc_sf.obj
 0004:000011e8       $pdata$mdlTerminate        000000018009d1e8     sfc_mex:sfc_sf.obj
 0004:000011f4       $pdata$0$mdlTerminate      000000018009d1f4     sfc_mex:sfc_sf.obj
 0004:00001200       $pdata$1$mdlTerminate      000000018009d200     sfc_mex:sfc_sf.obj
 0004:0000120c       $pdata$mdlRTW              000000018009d20c     sfc_mex:sfc_sf.obj
 0004:00001218       $pdata$mdl_start_processing 000000018009d218     sfc_mex:sfc_sf.obj
 0004:00001224       $pdata$mdlStart            000000018009d224     sfc_mex:sfc_sf.obj
 0004:00001230       $pdata$mdlEnable           000000018009d230     sfc_mex:sfc_sf.obj
 0004:0000123c       $pdata$mdlDisable          000000018009d23c     sfc_mex:sfc_sf.obj
 0004:00001248       $pdata$sf_load_rtw_optimization_info 000000018009d248     sfc_mex:sfc_sf.obj
 0004:00001254       $pdata$sf_update_buildInfo 000000018009d254     sfc_mex:sfc_sf.obj
 0004:00001260       $pdata$sf_rtw_info_uint_prop 000000018009d260     sfc_mex:sfc_sf.obj
 0004:0000126c       $pdata$sf_is_chart_inlinable 000000018009d26c     sfc_mex:sfc_sf.obj
 0004:00001278       $pdata$sf_mark_output_events_with_multiple_callers 000000018009d278     sfc_mex:sfc_sf.obj
 0004:00001284       $pdata$sf_mark_chart_reusable_outputs 000000018009d284     sfc_mex:sfc_sf.obj
 0004:00001290       $pdata$sf_mark_chart_expressionable_inputs 000000018009d290     sfc_mex:sfc_sf.obj
 0004:0000129c       $pdata$sf_get_subchart_simstruct 000000018009d29c     sfc_mex:sfc_sf.obj
 0004:000012a8       $pdata$sf_get_fixpt_data_type_id 000000018009d2a8     sfc_mex:sfc_sf.obj
 0004:000012b4       $pdata$sf_get_enum_data_type_id 000000018009d2b4     sfc_mex:sfc_sf.obj
 0004:000012c0       $pdata$sf_get_param_data_type_id 000000018009d2c0     sfc_mex:sfc_sf.obj
 0004:000012cc       $pdata$sf_mex_listen_for_ctrl_c_force 000000018009d2cc     sfc_mex:sfc_sf.obj
 0004:000012d8       $pdata$sf_mex_draw_now     000000018009d2d8     sfc_mex:sfc_sf.obj
 0004:000012e4       $pdata$sf_mex_listen_for_ctrl_c 000000018009d2e4     sfc_mex:sfc_sf.obj
 0004:000012f0       $pdata$sf_mex_get_sfun_param 000000018009d2f0     sfc_mex:sfc_sf.obj
 0004:000012fc       $pdata$sf_get_runtime_param_data 000000018009d2fc     sfc_mex:sfc_sf.obj
 0004:00001308       $pdata$sf_call_output_fcn_call 000000018009d308     sfc_mex:sfc_sf.obj
 0004:00001314       $pdata$sf_call_output_fcn_enable_disable 000000018009d314     sfc_mex:sfc_sf.obj
 0004:00001320       $pdata$sf_call_output_fcn_enable 000000018009d320     sfc_mex:sfc_sf.obj
 0004:0000132c       $pdata$sf_call_output_fcn_disable 000000018009d32c     sfc_mex:sfc_sf.obj
 0004:00001338       $pdata$sf_clear_rtw_identifier 000000018009d338     sfc_mex:sfc_sf.obj
 0004:00001344       $pdata$2$sf_clear_rtw_identifier 000000018009d344     sfc_mex:sfc_sf.obj
 0004:00001350       $pdata$3$sf_clear_rtw_identifier 000000018009d350     sfc_mex:sfc_sf.obj
 0004:0000135c       $pdata$set_dwork_information_from_mx_array 000000018009d35c     sfc_mex:sfc_sf.obj
 0004:00001368       $pdata$0$set_dwork_information_from_mx_array 000000018009d368     sfc_mex:sfc_sf.obj
 0004:00001374       $pdata$5$set_dwork_information_from_mx_array 000000018009d374     sfc_mex:sfc_sf.obj
 0004:00001380       $pdata$6$set_dwork_information_from_mx_array 000000018009d380     sfc_mex:sfc_sf.obj
 0004:0000138c       $pdata$7$set_dwork_information_from_mx_array 000000018009d38c     sfc_mex:sfc_sf.obj
 0004:00001398       $pdata$sf_set_encoded_dwork_info 000000018009d398     sfc_mex:sfc_sf.obj
 0004:000013a4       $pdata$sf_get_dwork_info_from_mat_file 000000018009d3a4     sfc_mex:sfc_sf.obj
 0004:000013b0       $pdata$ptr2mxStruct        000000018009d3b0     sfc_mex:sfc_sf.obj
 0004:000013bc       $pdata$sf_set_rtw_dwork_info 000000018009d3bc     sfc_mex:sfc_sf.obj
 0004:000013c8       $pdata$mdlOutputs          000000018009d3c8     sfc_mex:sfc_sf.obj
 0004:000013d4       $pdata$getThreadLocalStorage 000000018009d3d4     sfc_mex:sfc_mex.obj
 0004:000013e0       $pdata$SNPRINTF_WRAPPER    000000018009d3e0     sfc_mex:sfc_mex.obj
 0004:000013ec       $pdata$convert_dims_to_string 000000018009d3ec     sfc_mex:sfc_mex.obj
 0004:000013f8       $pdata$sf_mex_mx_is_numeric 000000018009d3f8     sfc_mex:sfc_mex.obj
 0004:00001404       $pdata$sf_error_append_debugger_context_if_available 000000018009d404     sfc_mex:sfc_mex.obj
 0004:00001410       $pdata$sf_set_error_prefix_string 000000018009d410     sfc_mex:sfc_mex.obj
 0004:0000141c       $pdata$replace_single_quotes_by_doubled_quotes 000000018009d41c     sfc_mex:sfc_mex.obj
 0004:00001428       $pdata$sf_mex_warning_message 000000018009d428     sfc_mex:sfc_mex.obj
 0004:00001434       $pdata$sf_mex_errbuf_createf 000000018009d434     sfc_mex:sfc_mex.obj
 0004:00001440       $pdata$sf_mex_v_errbuf_catf 000000018009d440     sfc_mex:sfc_mex.obj
 0004:0000144c       $pdata$sf_mex_errbuf_catf  000000018009d44c     sfc_mex:sfc_mex.obj
 0004:00001458       $pdata$sf_mex_get_formatted_error_string 000000018009d458     sfc_mex:sfc_mex.obj
 0004:00001464       $pdata$0$sf_mex_get_formatted_error_string 000000018009d464     sfc_mex:sfc_mex.obj
 0004:00001470       $pdata$1$sf_mex_get_formatted_error_string 000000018009d470     sfc_mex:sfc_mex.obj
 0004:0000147c       $pdata$sf_mex_set_error_status 000000018009d47c     sfc_mex:sfc_mex.obj
 0004:00001488       $pdata$sf_mex_long_jump_on_error 000000018009d488     sfc_mex:sfc_mex.obj
 0004:00001494       $pdata$sf_mex_call_matlab  000000018009d494     sfc_mex:sfc_mex.obj
 0004:000014a0       $pdata$sf_mex_check_builtin 000000018009d4a0     sfc_mex:sfc_mex.obj
 0004:000014ac       $pdata$sf_mex_check_builtin_vs 000000018009d4ac     sfc_mex:sfc_mex.obj
 0004:000014b8       $pdata$sf_mex_check_enum   000000018009d4b8     sfc_mex:sfc_mex.obj
 0004:000014c4       $pdata$sf_mex_create_enum  000000018009d4c4     sfc_mex:sfc_mex.obj
 0004:000014d0       $pdata$sf_mex_assign       000000018009d4d0     sfc_mex:sfc_mex.obj
 0004:000014dc       $pdata$sf_mex_destroy      000000018009d4dc     sfc_mex:sfc_mex.obj
 0004:000014e8       $pdata$mx_array_has_fi_type 000000018009d4e8     sfc_mex:sfc_mex.obj
 0004:000014f4       $pdata$sf_mex_convert_from_fi 000000018009d4f4     sfc_mex:sfc_mex.obj
 0004:00001500       $pdata$sf_mex_convert_to_double 000000018009d500     sfc_mex:sfc_mex.obj
 0004:0000150c       $pdata$sf_mex_import_fi_vs 000000018009d50c     sfc_mex:sfc_mex.obj
 0004:00001518       $pdata$sfrtAddSize         000000018009d518     sfc_mex:sfc_mex.obj
 0004:00001524       $pdata$sfrtGenSizeString   000000018009d524     sfc_mex:sfc_mex.obj
 0004:00001530       $pdata$0$sfrtGenSizeString 000000018009d530     sfc_mex:sfc_mex.obj
 0004:0000153c       $pdata$1$sfrtGenSizeString 000000018009d53c     sfc_mex:sfc_mex.obj
 0004:00001548       $pdata$sf_matrix_matrix_index_ok 000000018009d548     sfc_mex:sfc_mex.obj
 0004:00001554       $pdata$sf_ExtractMessageId 000000018009d554     sfc_mex:sfc_mex.obj
 0004:00001560       $pdata$sf_clear_error_manager_info 000000018009d560     sfc_mex:sfc_mex.obj
 0004:0000156c       $pdata$sf_mex_stop_simulation_abruptly_wo_error 000000018009d56c     sfc_mex:sfc_mex.obj
 0004:00001578       $pdata$sf_mex_error_message 000000018009d578     sfc_mex:sfc_mex.obj
 0004:00001584       $pdata$sf_react_to_error_in_matlab_call 000000018009d584     sfc_mex:sfc_mex.obj
 0004:00001590       $pdata$sf_mex_addfield     000000018009d590     sfc_mex:sfc_mex.obj
 0004:0000159c       $pdata$sf_mex_getfield     000000018009d59c     sfc_mex:sfc_mex.obj
 0004:000015a8       $pdata$sf_mex_err          000000018009d5a8     sfc_mex:sfc_mex.obj
 0004:000015b4       $pdata$0$sf_mex_err        000000018009d5b4     sfc_mex:sfc_mex.obj
 0004:000015c0       $pdata$1$sf_mex_err        000000018009d5c0     sfc_mex:sfc_mex.obj
 0004:000015cc       $pdata$sf_error_dimension_out_of_bound 000000018009d5cc     sfc_mex:sfc_mex.obj
 0004:000015d8       $pdata$0$sf_error_dimension_out_of_bound 000000018009d5d8     sfc_mex:sfc_mex.obj
 0004:000015e4       $pdata$1$sf_error_dimension_out_of_bound 000000018009d5e4     sfc_mex:sfc_mex.obj
 0004:000015f0       $pdata$sf_mex_check_and_set_actual_dimensions 000000018009d5f0     sfc_mex:sfc_mex.obj
 0004:000015fc       $pdata$sf_mex_check_class  000000018009d5fc     sfc_mex:sfc_mex.obj
 0004:00001608       $pdata$sf_mex_is_real      000000018009d608     sfc_mex:sfc_mex.obj
 0004:00001614       $pdata$sf_mex_check_complex 000000018009d614     sfc_mex:sfc_mex.obj
 0004:00001620       $pdata$sf_mex_check_sparse 000000018009d620     sfc_mex:sfc_mex.obj
 0004:0000162c       $pdata$sf_mex_check_numerictype 000000018009d62c     sfc_mex:sfc_mex.obj
 0004:00001638       $pdata$sf_mex_check_fimath 000000018009d638     sfc_mex:sfc_mex.obj
 0004:00001644       $pdata$sf_mex_decode_encoded_mx_struct_array 000000018009d644     sfc_mex:sfc_mex.obj
 0004:00001650       $pdata$3$sf_mex_decode_encoded_mx_struct_array 000000018009d650     sfc_mex:sfc_mex.obj
 0004:0000165c       $pdata$4$sf_mex_decode_encoded_mx_struct_array 000000018009d65c     sfc_mex:sfc_mex.obj
 0004:00001668       $pdata$sf_mex_lw_bounds_check 000000018009d668     sfc_mex:sfc_mex.obj
 0004:00001674       $pdata$sf_mex_lw_size_eq_check_1d 000000018009d674     sfc_mex:sfc_mex.obj
 0004:00001680       $pdata$sf_mex_lw_size_eq_check_nd 000000018009d680     sfc_mex:sfc_mex.obj
 0004:0000168c       $pdata$0$sf_mex_lw_size_eq_check_nd 000000018009d68c     sfc_mex:sfc_mex.obj
 0004:00001698       $pdata$1$sf_mex_lw_size_eq_check_nd 000000018009d698     sfc_mex:sfc_mex.obj
 0004:000016a4       $pdata$2$sf_mex_lw_size_eq_check_nd 000000018009d6a4     sfc_mex:sfc_mex.obj
 0004:000016b0       $pdata$3$sf_mex_lw_size_eq_check_nd 000000018009d6b0     sfc_mex:sfc_mex.obj
 0004:000016bc       $pdata$sf_mex_lw_dim_size_eq_check 000000018009d6bc     sfc_mex:sfc_mex.obj
 0004:000016c8       $pdata$sf_mex_lw_dim_size_geq_check 000000018009d6c8     sfc_mex:sfc_mex.obj
 0004:000016d4       $pdata$sf_mex_lw_sub_assign_size_check_nd 000000018009d6d4     sfc_mex:sfc_mex.obj
 0004:000016e0       $pdata$sf_mex_lw_runtime_error_msgid 000000018009d6e0     sfc_mex:sfc_mex.obj
 0004:000016ec       $pdata$sf_mex_lw_matrix_matrix_index_check 000000018009d6ec     sfc_mex:sfc_mex.obj
 0004:000016f8       $pdata$sf_mex_lw_vector_vector_index_check 000000018009d6f8     sfc_mex:sfc_mex.obj
 0004:00001704       $pdata$sf_mex_lw_for_loop_vector_check 000000018009d704     sfc_mex:sfc_mex.obj
 0004:00001710       $pdata$sf_mex_lw_non_negative_check 000000018009d710     sfc_mex:sfc_mex.obj
 0004:0000171c       $pdata$sf_emlrtErrHandler  000000018009d71c     sfc_mex:sfc_mex.obj
 0004:00001728       $pdata$size_mismatch_error 000000018009d728     sfc_mex:sfc_mex.obj
 0004:00001734       $pdata$0$size_mismatch_error 000000018009d734     sfc_mex:sfc_mex.obj
 0004:00001740       $pdata$1$size_mismatch_error 000000018009d740     sfc_mex:sfc_mex.obj
 0004:0000174c       $pdata$sf_mex_size_one_check 000000018009d74c     sfc_mex:sfc_mex.obj
 0004:00001758       $pdata$sf_mex_printf       000000018009d758     sfc_mex:sfc_mex.obj
 0004:00001764       $pdata$2$sf_mex_printf     000000018009d764     sfc_mex:sfc_mex.obj
 0004:00001770       $pdata$3$sf_mex_printf     000000018009d770     sfc_mex:sfc_mex.obj
 0004:0000177c       $pdata$4$sf_mex_printf     000000018009d77c     sfc_mex:sfc_mex.obj
 0004:00001788       $pdata$sf_mex_check_size   000000018009d788     sfc_mex:sfc_mex.obj
 0004:00001794       $pdata$sf_mex_check_struct 000000018009d794     sfc_mex:sfc_mex.obj
 0004:000017a0       $pdata$2$sf_mex_check_struct 000000018009d7a0     sfc_mex:sfc_mex.obj
 0004:000017ac       $pdata$3$sf_mex_check_struct 000000018009d7ac     sfc_mex:sfc_mex.obj
 0004:000017b8       $pdata$sf_mex_check_struct_vs 000000018009d7b8     sfc_mex:sfc_mex.obj
 0004:000017c4       $pdata$sf_mex_check_fi     000000018009d7c4     sfc_mex:sfc_mex.obj
 0004:000017d0       $pdata$sf_mex_check_fi_vs  000000018009d7d0     sfc_mex:sfc_mex.obj
 0004:000017dc       $pdata$sf_echo_expression  000000018009d7dc     sfc_mex:sfc_mex.obj
 0004:000017e8       $pdata$sf_assertion_failed 000000018009d7e8     sfc_mex:sfc_mex.obj
 0004:000017f4       $pdata$check_array_dimensions 000000018009d7f4     sfc_mex:sfc_mex.obj
 0004:00001800       $pdata$check_input_mxarray 000000018009d800     sfc_mex:sfc_mex.obj
 0004:0000180c       $pdata$1$check_input_mxarray 000000018009d80c     sfc_mex:sfc_mex.obj
 0004:00001818       $pdata$2$check_input_mxarray 000000018009d818     sfc_mex:sfc_mex.obj
 0004:00001824       $pdata$sf_mex_evalin       000000018009d824     sfc_mex:sfc_mex.obj
 0004:00001830       $pdata$sf_mex_export       000000018009d830     sfc_mex:sfc_mex.obj
 0004:0000183c       $pdata$sf_mex_get_ml_var_no_error 000000018009d83c     sfc_mex:sfc_mex.obj
 0004:00001848       $pdata$sf_mex_get_ml_var   000000018009d848     sfc_mex:sfc_mex.obj
 0004:00001854       $pdata$sf_numeric_value_to_double 000000018009d854     sfc_mex:sfc_mex.obj
 0004:00001860       $pdata$ml_generic_out_of_bounds_check 000000018009d860     sfc_mex:sfc_mex.obj
 0004:0000186c       $pdata$ml_get_element_value_from_array 000000018009d86c     sfc_mex:sfc_mex.obj
 0004:00001878       $pdata$ml_set_element_value_in_array 000000018009d878     sfc_mex:sfc_mex.obj
 0004:00001884       $pdata$_ml_generic_castability_check 000000018009d884     sfc_mex:sfc_mex.obj
 0004:00001890       $pdata$5$_ml_generic_castability_check 000000018009d890     sfc_mex:sfc_mex.obj
 0004:0000189c       $pdata$6$_ml_generic_castability_check 000000018009d89c     sfc_mex:sfc_mex.obj
 0004:000018a8       $pdata$7$_ml_generic_castability_check 000000018009d8a8     sfc_mex:sfc_mex.obj
 0004:000018b4       $pdata$ml_generic_castability_check 000000018009d8b4     sfc_mex:sfc_mex.obj
 0004:000018c0       $pdata$ml_check_mx_array_for_single_castability 000000018009d8c0     sfc_mex:sfc_mex.obj
 0004:000018cc       $pdata$ml_check_mx_array_for_logical_castability 000000018009d8cc     sfc_mex:sfc_mex.obj
 0004:000018d8       $pdata$ml_check_mx_array_for_int8_castability 000000018009d8d8     sfc_mex:sfc_mex.obj
 0004:000018e4       $pdata$ml_check_mx_array_for_uint8_castability 000000018009d8e4     sfc_mex:sfc_mex.obj
 0004:000018f0       $pdata$ml_check_mx_array_for_int16_castability 000000018009d8f0     sfc_mex:sfc_mex.obj
 0004:000018fc       $pdata$ml_check_mx_array_for_uint16_castability 000000018009d8fc     sfc_mex:sfc_mex.obj
 0004:00001908       $pdata$ml_check_mx_array_for_int32_castability 000000018009d908     sfc_mex:sfc_mex.obj
 0004:00001914       $pdata$ml_check_mx_array_for_uint32_castability 000000018009d914     sfc_mex:sfc_mex.obj
 0004:00001920       $pdata$ml_check_mx_array_for_castability 000000018009d920     sfc_mex:sfc_mex.obj
 0004:0000192c       $pdata$sf_mex_call_impl    000000018009d92c     sfc_mex:sfc_mex.obj
 0004:00001938       $pdata$3$sf_mex_call_impl  000000018009d938     sfc_mex:sfc_mex.obj
 0004:00001944       $pdata$4$sf_mex_call_impl  000000018009d944     sfc_mex:sfc_mex.obj
 0004:00001950       $pdata$5$sf_mex_call_impl  000000018009d950     sfc_mex:sfc_mex.obj
 0004:0000195c       $pdata$6$sf_mex_call_impl  000000018009d95c     sfc_mex:sfc_mex.obj
 0004:00001968       $pdata$7$sf_mex_call_impl  000000018009d968     sfc_mex:sfc_mex.obj
 0004:00001974       $pdata$sf_mex_call_debug   000000018009d974     sfc_mex:sfc_mex.obj
 0004:00001980       $pdata$sf_mex_call         000000018009d980     sfc_mex:sfc_mex.obj
 0004:0000198c       $pdata$set_data_value      000000018009d98c     sfc_mex:sfc_mex.obj
 0004:00001998       $pdata$get_data_value      000000018009d998     sfc_mex:sfc_mex.obj
 0004:000019a4       $pdata$get_next_element_address 000000018009d9a4     sfc_mex:sfc_mex.obj
 0004:000019b0       $pdata$sf_normalize_index  000000018009d9b0     sfc_mex:sfc_mex.obj
 0004:000019bc       $pdata$sf_mex_createstruct 000000018009d9bc     sfc_mex:sfc_mex.obj
 0004:000019c8       $pdata$sf_mex_createstructarray 000000018009d9c8     sfc_mex:sfc_mex.obj
 0004:000019d4       $pdata$sf_mex_get_mx_datatype_from_sf_datatype 000000018009d9d4     sfc_mex:sfc_mex.obj
 0004:000019e0       $pdata$ml_array_index_bound_check 000000018009d9e0     sfc_mex:sfc_mex.obj
 0004:000019ec       $pdata$1$ml_array_index_bound_check 000000018009d9ec     sfc_mex:sfc_mex.obj
 0004:000019f8       $pdata$2$ml_array_index_bound_check 000000018009d9f8     sfc_mex:sfc_mex.obj
 0004:00001a04       $pdata$sf_mex_ml_var_sub   000000018009da04     sfc_mex:sfc_mex.obj
 0004:00001a10       $pdata$sf_mex_ml_var_subsasgn 000000018009da10     sfc_mex:sfc_mex.obj
 0004:00001a1c       $pdata$sf_mex_sub          000000018009da1c     sfc_mex:sfc_mex.obj
 0004:00001a28       $pdata$sf_mex_subsasgn     000000018009da28     sfc_mex:sfc_mex.obj
 0004:00001a34       $pdata$0$sf_mex_subsasgn   000000018009da34     sfc_mex:sfc_mex.obj
 0004:00001a40       $pdata$1$sf_mex_subsasgn   000000018009da40     sfc_mex:sfc_mex.obj
 0004:00001a4c       $pdata$mx_value            000000018009da4c     sfc_mex:sfc_mex.obj
 0004:00001a58       $pdata$sf_create_numeric_array 000000018009da58     sfc_mex:sfc_mex.obj
 0004:00001a64       $pdata$sf_mex_assign_to_mx_array 000000018009da64     sfc_mex:sfc_mex.obj
 0004:00001a70       $pdata$sf_mex_create       000000018009da70     sfc_mex:sfc_mex.obj
 0004:00001a7c       $pdata$assign_from_mx_array 000000018009da7c     sfc_mex:sfc_mex.obj
 0004:00001a88       $pdata$0$assign_from_mx_array 000000018009da88     sfc_mex:sfc_mex.obj
 0004:00001a94       $pdata$1$assign_from_mx_array 000000018009da94     sfc_mex:sfc_mex.obj
 0004:00001aa0       $pdata$2$assign_from_mx_array 000000018009daa0     sfc_mex:sfc_mex.obj
 0004:00001aac       $pdata$sf_mex_import_v     000000018009daac     sfc_mex:sfc_mex.obj
 0004:00001ab8       $pdata$sf_mex_import_named 000000018009dab8     sfc_mex:sfc_mex.obj
 0004:00001ac4       $pdata$sf_mex_import       000000018009dac4     sfc_mex:sfc_mex.obj
 0004:00001ad0       $pdata$sf_mex_import_vs    000000018009dad0     sfc_mex:sfc_mex.obj
 0004:00001adc       $pdata$sf_mex_lower_fixpt_mx_array 000000018009dadc     sfc_mex:sfc_mex.obj
 0004:00001ae8       $pdata$SNPRINTF_WRAPPER    000000018009dae8     sfc_debug:sfcdebug.obj
 0004:00001af4       $pdata$sf_debug_disp       000000018009daf4     sfc_debug:sfcdebug.obj
 0004:00001b00       $pdata$sfrtAddSize         000000018009db00     sfc_debug:sfcdebug.obj
 0004:00001b0c       $pdata$sfrtGenSizeString   000000018009db0c     sfc_debug:sfcdebug.obj
 0004:00001b18       $pdata$0$sfrtGenSizeString 000000018009db18     sfc_debug:sfcdebug.obj
 0004:00001b24       $pdata$1$sfrtGenSizeString 000000018009db24     sfc_debug:sfcdebug.obj
 0004:00001b30       $pdata$sf_debug_data_runtime_size_mismatch_error_check 000000018009db30     sfc_debug:sfcdebug.obj
 0004:00001b3c       $pdata$sf_debug_try_loading_machine 000000018009db3c     sfc_debug:sfcdebug.obj
 0004:00001b48       $pdata$sf_debug_reset_current_state_configuration 000000018009db48     sfc_debug:sfcdebug.obj
 0004:00001b54       $pdata$sf_debug_store_current_state_configuration 000000018009db54     sfc_debug:sfcdebug.obj
 0004:00001b60       $pdata$sf_debug_restore_previous_state_configuration 000000018009db60     sfc_debug:sfcdebug.obj
 0004:00001b6c       $pdata$sf_debug_restore_previous_state_configuration2 000000018009db6c     sfc_debug:sfcdebug.obj
 0004:00001b78       $pdata$sf_debug_get_event_scope 000000018009db78     sfc_debug:sfcdebug.obj
 0004:00001b84       $pdata$sf_debug_get_script_id 000000018009db84     sfc_debug:sfcdebug.obj
 0004:00001b90       $pdata$sf_debug_set_script_translation 000000018009db90     sfc_debug:sfcdebug.obj
 0004:00001b9c       $pdata$fill_single_message_info 000000018009db9c     sfc_debug:sfcdebug.obj
 0004:00001ba8       $pdata$sf_debug_extract_message_post_receive_info 000000018009dba8     sfc_debug:sfcdebug.obj
 0004:00001bb4       $pdata$2$sf_debug_extract_message_post_receive_info 000000018009dbb4     sfc_debug:sfcdebug.obj
 0004:00001bc0       $pdata$3$sf_debug_extract_message_post_receive_info 000000018009dbc0     sfc_debug:sfcdebug.obj
 0004:00001bcc       $pdata$sf_debug_get_current_chart_id 000000018009dbcc     sfc_debug:sfcdebug.obj
 0004:00001bd8       $pdata$sf_debug_get_current_object_id 000000018009dbd8     sfc_debug:sfcdebug.obj
 0004:00001be4       $pdata$sf_debug_get_current_active_event_id 000000018009dbe4     sfc_debug:sfcdebug.obj
 0004:00001bf0       $pdata$sf_debug_get_current_statement_info 000000018009dbf0     sfc_debug:sfcdebug.obj
 0004:00001bfc       $pdata$sf_debug_terminate_instance 000000018009dbfc     sfc_debug:sfcdebug.obj
 0004:00001c08       $pdata$sf_debug_free_all   000000018009dc08     sfc_debug:sfcdebug.obj
 0004:00001c14       $pdata$0$sf_debug_free_all 000000018009dc14     sfc_debug:sfcdebug.obj
 0004:00001c20       $pdata$3$sf_debug_free_all 000000018009dc20     sfc_debug:sfcdebug.obj
 0004:00001c2c       $pdata$4$sf_debug_free_all 000000018009dc2c     sfc_debug:sfcdebug.obj
 0004:00001c38       $pdata$5$sf_debug_free_all 000000018009dc38     sfc_debug:sfcdebug.obj
 0004:00001c44       $pdata$sf_debug_append_debugger_context 000000018009dc44     sfc_debug:sfcdebug.obj
 0004:00001c50       $pdata$0$sf_debug_append_debugger_context 000000018009dc50     sfc_debug:sfcdebug.obj
 0004:00001c5c       $pdata$1$sf_debug_append_debugger_context 000000018009dc5c     sfc_debug:sfcdebug.obj
 0004:00001c68       $pdata$sf_debug_create_debug_instance_struct 000000018009dc68     sfc_debug:sfcdebug.obj
 0004:00001c74       $pdata$local_strdup        000000018009dc74     sfc_debug:sfcdebug.obj
 0004:00001c80       $pdata$sf_debug_set_machine_data_name 000000018009dc80     sfc_debug:sfcdebug.obj
 0004:00001c8c       $pdata$1$sf_debug_set_machine_data_name 000000018009dc8c     sfc_debug:sfcdebug.obj
 0004:00001c98       $pdata$2$sf_debug_set_machine_data_name 000000018009dc98     sfc_debug:sfcdebug.obj
 0004:00001ca4       $pdata$sf_debug_set_machine_data_size 000000018009dca4     sfc_debug:sfcdebug.obj
 0004:00001cb0       $pdata$3$sf_debug_set_machine_data_size 000000018009dcb0     sfc_debug:sfcdebug.obj
 0004:00001cbc       $pdata$5$sf_debug_set_machine_data_size 000000018009dcbc     sfc_debug:sfcdebug.obj
 0004:00001cc8       $pdata$6$sf_debug_set_machine_data_size 000000018009dcc8     sfc_debug:sfcdebug.obj
 0004:00001cd4       $pdata$sf_debug_set_machine_data_type 000000018009dcd4     sfc_debug:sfcdebug.obj
 0004:00001ce0       $pdata$2$sf_debug_set_machine_data_type 000000018009dce0     sfc_debug:sfcdebug.obj
 0004:00001cec       $pdata$3$sf_debug_set_machine_data_type 000000018009dcec     sfc_debug:sfcdebug.obj
 0004:00001cf8       $pdata$sf_debug_set_chart_substate_count 000000018009dcf8     sfc_debug:sfcdebug.obj
 0004:00001d04       $pdata$0$sf_debug_set_chart_substate_count 000000018009dd04     sfc_debug:sfcdebug.obj
 0004:00001d10       $pdata$1$sf_debug_set_chart_substate_count 000000018009dd10     sfc_debug:sfcdebug.obj
 0004:00001d1c       $pdata$sf_debug_set_chart_state_substate_count 000000018009dd1c     sfc_debug:sfcdebug.obj
 0004:00001d28       $pdata$2$sf_debug_set_chart_state_substate_count 000000018009dd28     sfc_debug:sfcdebug.obj
 0004:00001d34       $pdata$3$sf_debug_set_chart_state_substate_count 000000018009dd34     sfc_debug:sfcdebug.obj
 0004:00001d40       $pdata$sf_debug_set_number_of_data_with_change_event_for_chart 000000018009dd40     sfc_debug:sfcdebug.obj
 0004:00001d4c       $pdata$sf_debug_set_chart_data_compiled_props 000000018009dd4c     sfc_debug:sfcdebug.obj
 0004:00001d58       $pdata$2$sf_debug_set_chart_data_compiled_props 000000018009dd58     sfc_debug:sfcdebug.obj
 0004:00001d64       $pdata$4$sf_debug_set_chart_data_compiled_props 000000018009dd64     sfc_debug:sfcdebug.obj
 0004:00001d70       $pdata$5$sf_debug_set_chart_data_compiled_props 000000018009dd70     sfc_debug:sfcdebug.obj
 0004:00001d7c       $pdata$6$sf_debug_set_chart_data_compiled_props 000000018009dd7c     sfc_debug:sfcdebug.obj
 0004:00001d88       $pdata$sf_debug_set_chart_data_props 000000018009dd88     sfc_debug:sfcdebug.obj
 0004:00001d94       $pdata$2$sf_debug_set_chart_data_props 000000018009dd94     sfc_debug:sfcdebug.obj
 0004:00001da0       $pdata$3$sf_debug_set_chart_data_props 000000018009dda0     sfc_debug:sfcdebug.obj
 0004:00001dac       $pdata$sf_debug_em_terminate 000000018009ddac     sfc_debug:sfcdebug.obj
 0004:00001db8       $pdata$sf_debug_push_eml_function 000000018009ddb8     sfc_debug:sfcdebug.obj
 0004:00001dc4       $pdata$sf_debug_pop_eml_function 000000018009ddc4     sfc_debug:sfcdebug.obj
 0004:00001dd0       $pdata$sf_debug_check_fi_license 000000018009ddd0     sfc_debug:sfcdebug.obj
 0004:00001ddc       $pdata$sf_debug_symbol_scope_push 000000018009dddc     sfc_debug:sfcdebug.obj
 0004:00001de8       $pdata$sf_debug_symbol_scope_push_eml 000000018009dde8     sfc_debug:sfcdebug.obj
 0004:00001df4       $pdata$sf_debug_symbol_scope_pop 000000018009ddf4     sfc_debug:sfcdebug.obj
 0004:00001e00       $pdata$sf_debug_symbol_scope_add_importable 000000018009de00     sfc_debug:sfcdebug.obj
 0004:00001e0c       $pdata$sf_debug_symbol_scope_add 000000018009de0c     sfc_debug:sfcdebug.obj
 0004:00001e18       $pdata$sf_debug_symbol_scope_add_dyn_importable 000000018009de18     sfc_debug:sfcdebug.obj
 0004:00001e24       $pdata$sf_debug_symbol_scope_add_dyn 000000018009de24     sfc_debug:sfcdebug.obj
 0004:00001e30       $pdata$sf_debug_symbol_scope_add_eml_importable 000000018009de30     sfc_debug:sfcdebug.obj
 0004:00001e3c       $pdata$sf_debug_symbol_scope_add_eml 000000018009de3c     sfc_debug:sfcdebug.obj
 0004:00001e48       $pdata$sf_debug_symbol_scope_add_eml_dyn_importable 000000018009de48     sfc_debug:sfcdebug.obj
 0004:00001e54       $pdata$sf_debug_symbol_scope_add_eml_dyn 000000018009de54     sfc_debug:sfcdebug.obj
 0004:00001e60       $pdata$sf_debug_symbol_scope_add_verbose 000000018009de60     sfc_debug:sfcdebug.obj
 0004:00001e6c       $pdata$sf_debug_set_machine_data_value_ptr 000000018009de6c     sfc_debug:sfcdebug.obj
 0004:00001e78       $pdata$sf_debug_set_instance_data_value_ptr 000000018009de78     sfc_debug:sfcdebug.obj
 0004:00001e84       $pdata$sf_debug_unset_instance_data_value_ptr 000000018009de84     sfc_debug:sfcdebug.obj
 0004:00001e90       $pdata$sf_debug_set_chart_transition_coverage_maps 000000018009de90     sfc_debug:sfcdebug.obj
 0004:00001e9c       $pdata$sf_debug_set_chart_state_coverage_maps 000000018009de9c     sfc_debug:sfcdebug.obj
 0004:00001ea8       $pdata$sf_debug_set_instance_transition_coverage_weights 000000018009dea8     sfc_debug:sfcdebug.obj
 0004:00001eb4       $pdata$sf_debug_set_instance_state_coverage_weights 000000018009deb4     sfc_debug:sfcdebug.obj
 0004:00001ec0       $pdata$sf_debug_get_machine_number_from_id_or_name 000000018009dec0     sfc_debug:sfcdebug.obj
 0004:00001ecc       $pdata$sf_debug_unload_machine 000000018009decc     sfc_debug:sfcdebug.obj
 0004:00001ed8       $pdata$sf_debug_load_machine 000000018009ded8     sfc_debug:sfcdebug.obj
 0004:00001ee4       $pdata$0$sf_debug_load_machine 000000018009dee4     sfc_debug:sfcdebug.obj
 0004:00001ef0       $pdata$1$sf_debug_load_machine 000000018009def0     sfc_debug:sfcdebug.obj
 0004:00001efc       $pdata$sf_debug_set_active_instance_in_data_dictionary 000000018009defc     sfc_debug:sfcdebug.obj
 0004:00001f08       $pdata$2$sf_debug_set_active_instance_in_data_dictionary 000000018009df08     sfc_debug:sfcdebug.obj
 0004:00001f14       $pdata$3$sf_debug_set_active_instance_in_data_dictionary 000000018009df14     sfc_debug:sfcdebug.obj
 0004:00001f20       $pdata$4$sf_debug_set_active_instance_in_data_dictionary 000000018009df20     sfc_debug:sfcdebug.obj
 0004:00001f2c       $pdata$5$sf_debug_set_active_instance_in_data_dictionary 000000018009df2c     sfc_debug:sfcdebug.obj
 0004:00001f38       $pdata$sf_debug_set_active_instance 000000018009df38     sfc_debug:sfcdebug.obj
 0004:00001f44       $pdata$1$sf_debug_set_active_instance 000000018009df44     sfc_debug:sfcdebug.obj
 0004:00001f50       $pdata$2$sf_debug_set_active_instance 000000018009df50     sfc_debug:sfcdebug.obj
 0004:00001f5c       $pdata$sf_debug_chart_visiblity_change 000000018009df5c     sfc_debug:sfcdebug.obj
 0004:00001f68       $pdata$sf_debug_select_chart 000000018009df68     sfc_debug:sfcdebug.obj
 0004:00001f74       $pdata$0$sf_debug_select_chart 000000018009df74     sfc_debug:sfcdebug.obj
 0004:00001f80       $pdata$6$sf_debug_select_chart 000000018009df80     sfc_debug:sfcdebug.obj
 0004:00001f8c       $pdata$7$sf_debug_select_chart 000000018009df8c     sfc_debug:sfcdebug.obj
 0004:00001f98       $pdata$8$sf_debug_select_chart 000000018009df98     sfc_debug:sfcdebug.obj
 0004:00001fa4       $pdata$sf_debug_set_instance_cv_ids 000000018009dfa4     sfc_debug:sfcdebug.obj
 0004:00001fb0       $pdata$7$sf_debug_set_instance_cv_ids 000000018009dfb0     sfc_debug:sfcdebug.obj
 0004:00001fbc       $pdata$8$sf_debug_set_instance_cv_ids 000000018009dfbc     sfc_debug:sfcdebug.obj
 0004:00001fc8       $pdata$sf_debug_select_charts 000000018009dfc8     sfc_debug:sfcdebug.obj
 0004:00001fd4       $pdata$0$sf_debug_select_charts 000000018009dfd4     sfc_debug:sfcdebug.obj
 0004:00001fe0       $pdata$6$sf_debug_select_charts 000000018009dfe0     sfc_debug:sfcdebug.obj
 0004:00001fec       $pdata$7$sf_debug_select_charts 000000018009dfec     sfc_debug:sfcdebug.obj
 0004:00001ff8       $pdata$8$sf_debug_select_charts 000000018009dff8     sfc_debug:sfcdebug.obj
 0004:00002004       $pdata$sf_debug_initialize_debugger_gui 000000018009e004     sfc_debug:sfcdebug.obj
 0004:00002010       $pdata$1$sf_debug_initialize_debugger_gui 000000018009e010     sfc_debug:sfcdebug.obj
 0004:0000201c       $pdata$2$sf_debug_initialize_debugger_gui 000000018009e01c     sfc_debug:sfcdebug.obj
 0004:00002028       $pdata$sf_debug_transfer_control_to_debugger_GUI 000000018009e028     sfc_debug:sfcdebug.obj
 0004:00002034       $pdata$0$sf_debug_transfer_control_to_debugger_GUI 000000018009e034     sfc_debug:sfcdebug.obj
 0004:00002040       $pdata$1$sf_debug_transfer_control_to_debugger_GUI 000000018009e040     sfc_debug:sfcdebug.obj
 0004:0000204c       $pdata$2$sf_debug_transfer_control_to_debugger_GUI 000000018009e04c     sfc_debug:sfcdebug.obj
 0004:00002058       $pdata$3$sf_debug_transfer_control_to_debugger_GUI 000000018009e058     sfc_debug:sfcdebug.obj
 0004:00002064       $pdata$4$sf_debug_transfer_control_to_debugger_GUI 000000018009e064     sfc_debug:sfcdebug.obj
 0004:00002070       $pdata$5$sf_debug_transfer_control_to_debugger_GUI 000000018009e070     sfc_debug:sfcdebug.obj
 0004:0000207c       $pdata$sf_debug_watch_data 000000018009e07c     sfc_debug:sfcdebug.obj
 0004:00002088       $pdata$sf_debug_whos       000000018009e088     sfc_debug:sfcdebug.obj
 0004:00002094       $pdata$sf_debug_set_breakpoints 000000018009e094     sfc_debug:sfcdebug.obj
 0004:000020a0       $pdata$0$sf_debug_set_breakpoints 000000018009e0a0     sfc_debug:sfcdebug.obj
 0004:000020ac       $pdata$2$sf_debug_set_breakpoints 000000018009e0ac     sfc_debug:sfcdebug.obj
 0004:000020b8       $pdata$7$sf_debug_set_breakpoints 000000018009e0b8     sfc_debug:sfcdebug.obj
 0004:000020c4       $pdata$9$sf_debug_set_breakpoints 000000018009e0c4     sfc_debug:sfcdebug.obj
 0004:000020d0       $pdata$10$sf_debug_set_breakpoints 000000018009e0d0     sfc_debug:sfcdebug.obj
 0004:000020dc       $pdata$4$sf_debug_set_breakpoints 000000018009e0dc     sfc_debug:sfcdebug.obj
 0004:000020e8       $pdata$11$sf_debug_set_breakpoints 000000018009e0e8     sfc_debug:sfcdebug.obj
 0004:000020f4       $pdata$sf_debug_set_eml_breakpoints 000000018009e0f4     sfc_debug:sfcdebug.obj
 0004:00002100       $pdata$1$sf_debug_set_eml_breakpoints 000000018009e100     sfc_debug:sfcdebug.obj
 0004:0000210c       $pdata$3$sf_debug_set_eml_breakpoints 000000018009e10c     sfc_debug:sfcdebug.obj
 0004:00002118       $pdata$4$sf_debug_set_eml_breakpoints 000000018009e118     sfc_debug:sfcdebug.obj
 0004:00002124       $pdata$5$sf_debug_set_eml_breakpoints 000000018009e124     sfc_debug:sfcdebug.obj
 0004:00002130       $pdata$sf_debug_set_script_breakpoints 000000018009e130     sfc_debug:sfcdebug.obj
 0004:0000213c       $pdata$sf_debug_add_script_breakpoints 000000018009e13c     sfc_debug:sfcdebug.obj
 0004:00002148       $pdata$sf_debug_clear_script_breakpoints 000000018009e148     sfc_debug:sfcdebug.obj
 0004:00002154       $pdata$sf_debug_query_script_breakpoints 000000018009e154     sfc_debug:sfcdebug.obj
 0004:00002160       $pdata$sf_debug_get_eml_script_id 000000018009e160     sfc_debug:sfcdebug.obj
 0004:0000216c       $pdata$sf_debug_set_watch  000000018009e16c     sfc_debug:sfcdebug.obj
 0004:00002178       $pdata$0$sf_debug_set_watch 000000018009e178     sfc_debug:sfcdebug.obj
 0004:00002184       $pdata$2$sf_debug_set_watch 000000018009e184     sfc_debug:sfcdebug.obj
 0004:00002190       $pdata$5$sf_debug_set_watch 000000018009e190     sfc_debug:sfcdebug.obj
 0004:0000219c       $pdata$6$sf_debug_set_watch 000000018009e19c     sfc_debug:sfcdebug.obj
 0004:000021a8       $pdata$7$sf_debug_set_watch 000000018009e1a8     sfc_debug:sfcdebug.obj
 0004:000021b4       $pdata$4$sf_debug_set_watch 000000018009e1b4     sfc_debug:sfcdebug.obj
 0004:000021c0       $pdata$8$sf_debug_set_watch 000000018009e1c0     sfc_debug:sfcdebug.obj
 0004:000021cc       $pdata$9$sf_debug_set_watch 000000018009e1cc     sfc_debug:sfcdebug.obj
 0004:000021d8       $pdata$10$sf_debug_set_watch 000000018009e1d8     sfc_debug:sfcdebug.obj
 0004:000021e4       $pdata$sf_debug_get_instance_handle 000000018009e1e4     sfc_debug:sfcdebug.obj
 0004:000021f0       $pdata$0$sf_debug_get_instance_handle 000000018009e1f0     sfc_debug:sfcdebug.obj
 0004:000021fc       $pdata$1$sf_debug_get_instance_handle 000000018009e1fc     sfc_debug:sfcdebug.obj
 0004:00002208       $pdata$sf_debug_animate    000000018009e208     sfc_debug:sfcdebug.obj
 0004:00002214       $pdata$sf_debug_get_state_vectors_data 000000018009e214     sfc_debug:sfcdebug.obj
 0004:00002220       $pdata$sf_debug_set_state_vectors_data 000000018009e220     sfc_debug:sfcdebug.obj
 0004:0000222c       $pdata$sf_debug_scripts_rehash 000000018009e22c     sfc_debug:sfcdebug.obj
 0004:00002238       $pdata$1$sf_debug_scripts_rehash 000000018009e238     sfc_debug:sfcdebug.obj
 0004:00002244       $pdata$4$sf_debug_scripts_rehash 000000018009e244     sfc_debug:sfcdebug.obj
 0004:00002250       $pdata$5$sf_debug_scripts_rehash 000000018009e250     sfc_debug:sfcdebug.obj
 0004:0000225c       $pdata$6$sf_debug_scripts_rehash 000000018009e25c     sfc_debug:sfcdebug.obj
 0004:00002268       $pdata$sf_debug_get_script_index 000000018009e268     sfc_debug:sfcdebug.obj
 0004:00002274       $pdata$sf_debug_get_script_line_count 000000018009e274     sfc_debug:sfcdebug.obj
 0004:00002280       $pdata$sf_debug_add_script 000000018009e280     sfc_debug:sfcdebug.obj
 0004:0000228c       $pdata$1$sf_debug_add_script 000000018009e28c     sfc_debug:sfcdebug.obj
 0004:00002298       $pdata$5$sf_debug_add_script 000000018009e298     sfc_debug:sfcdebug.obj
 0004:000022a4       $pdata$cv_eval_point       000000018009e2a4     sfc_debug:sfcdebug.obj
 0004:000022b0       $pdata$0$cv_eval_point     000000018009e2b0     sfc_debug:sfcdebug.obj
 0004:000022bc       $pdata$2$cv_eval_point     000000018009e2bc     sfc_debug:sfcdebug.obj
 0004:000022c8       $pdata$4$cv_eval_point     000000018009e2c8     sfc_debug:sfcdebug.obj
 0004:000022d4       $pdata$5$cv_eval_point     000000018009e2d4     sfc_debug:sfcdebug.obj
 0004:000022e0       $pdata$cv_eval_testobjective 000000018009e2e0     sfc_debug:sfcdebug.obj
 0004:000022ec       $pdata$sf_debug_cv_init_state 000000018009e2ec     sfc_debug:sfcdebug.obj
 0004:000022f8       $pdata$sf_debug_cv_init_chart 000000018009e2f8     sfc_debug:sfcdebug.obj
 0004:00002304       $pdata$sf_debug_cv_init_trans 000000018009e304     sfc_debug:sfcdebug.obj
 0004:00002310       $pdata$sf_debug_cv_init_saturation 000000018009e310     sfc_debug:sfcdebug.obj
 0004:0000231c       $pdata$sf_debug_cv_init_testobjectives 000000018009e31c     sfc_debug:sfcdebug.obj
 0004:00002328       $pdata$cv_eml_state_cvId   000000018009e328     sfc_debug:sfcdebug.obj
 0004:00002334       $pdata$cv_eml_trans_cvId   000000018009e334     sfc_debug:sfcdebug.obj
 0004:00002340       $pdata$cv_eml_init_script  000000018009e340     sfc_debug:sfcdebug.obj
 0004:0000234c       $pdata$cv_eml_init_fcn     000000018009e34c     sfc_debug:sfcdebug.obj
 0004:00002358       $pdata$cv_eml_init_testobjective 000000018009e358     sfc_debug:sfcdebug.obj
 0004:00002364       $pdata$cv_eml_init_saturation 000000018009e364     sfc_debug:sfcdebug.obj
 0004:00002370       $pdata$cv_eml_init_if      000000018009e370     sfc_debug:sfcdebug.obj
 0004:0000237c       $pdata$cv_eml_init_for     000000018009e37c     sfc_debug:sfcdebug.obj
 0004:00002388       $pdata$cv_eml_init_while   000000018009e388     sfc_debug:sfcdebug.obj
 0004:00002394       $pdata$cv_eml_init_mcdc    000000018009e394     sfc_debug:sfcdebug.obj
 0004:000023a0       $pdata$cv_eml_init_switch  000000018009e3a0     sfc_debug:sfcdebug.obj
 0004:000023ac       $pdata$cv_eml_eval         000000018009e3ac     sfc_debug:sfcdebug.obj
 0004:000023b8       $pdata$0$cv_eml_eval       000000018009e3b8     sfc_debug:sfcdebug.obj
 0004:000023c4       $pdata$1$cv_eml_eval       000000018009e3c4     sfc_debug:sfcdebug.obj
 0004:000023d0       $pdata$sf_debug_bm_is_a_eml_breakpoint 000000018009e3d0     sfc_debug:sfcdebug.obj
 0004:000023dc       $pdata$sf_debug_temporal_threshold 000000018009e3dc     sfc_debug:sfcdebug.obj
 0004:000023e8       $pdata$0$sf_debug_temporal_threshold 000000018009e3e8     sfc_debug:sfcdebug.obj
 0004:000023f4       $pdata$1$sf_debug_temporal_threshold 000000018009e3f4     sfc_debug:sfcdebug.obj
 0004:00002400       $pdata$2$sf_debug_temporal_threshold 000000018009e400     sfc_debug:sfcdebug.obj
 0004:0000240c       $pdata$3$sf_debug_temporal_threshold 000000018009e40c     sfc_debug:sfcdebug.obj
 0004:00002418       $pdata$sf_debug_transition_conflict_error 000000018009e418     sfc_debug:sfcdebug.obj
 0004:00002424       $pdata$1$sf_debug_transition_conflict_error 000000018009e424     sfc_debug:sfcdebug.obj
 0004:00002430       $pdata$2$sf_debug_transition_conflict_error 000000018009e430     sfc_debug:sfcdebug.obj
 0004:0000243c       $pdata$3$sf_debug_transition_conflict_error 000000018009e43c     sfc_debug:sfcdebug.obj
 0004:00002448       $pdata$4$sf_debug_transition_conflict_error 000000018009e448     sfc_debug:sfcdebug.obj
 0004:00002454       $pdata$sf_debug_state_inconsistency_error 000000018009e454     sfc_debug:sfcdebug.obj
 0004:00002460       $pdata$0$sf_debug_state_inconsistency_error 000000018009e460     sfc_debug:sfcdebug.obj
 0004:0000246c       $pdata$1$sf_debug_state_inconsistency_error 000000018009e46c     sfc_debug:sfcdebug.obj
 0004:00002478       $pdata$sf_debug_check_for_state_inconsistency 000000018009e478     sfc_debug:sfcdebug.obj
 0004:00002484       $pdata$sf_debug_cycle_detecton_error 000000018009e484     sfc_debug:sfcdebug.obj
 0004:00002490       $pdata$0$sf_debug_cycle_detecton_error 000000018009e490     sfc_debug:sfcdebug.obj
 0004:0000249c       $pdata$1$sf_debug_cycle_detecton_error 000000018009e49c     sfc_debug:sfcdebug.obj
 0004:000024a8       $pdata$sf_debug_data_array_bounds_error 000000018009e4a8     sfc_debug:sfcdebug.obj
 0004:000024b4       $pdata$0$sf_debug_data_array_bounds_error 000000018009e4b4     sfc_debug:sfcdebug.obj
 0004:000024c0       $pdata$1$sf_debug_data_array_bounds_error 000000018009e4c0     sfc_debug:sfcdebug.obj
 0004:000024cc       $pdata$eml_debug_runtime_error_doclink 000000018009e4cc     sfc_debug:sfcdebug.obj
 0004:000024d8       $pdata$0$eml_debug_runtime_error_doclink 000000018009e4d8     sfc_debug:sfcdebug.obj
 0004:000024e4       $pdata$1$eml_debug_runtime_error_doclink 000000018009e4e4     sfc_debug:sfcdebug.obj
 0004:000024f0       $pdata$sf_debug_runtime_error 000000018009e4f0     sfc_debug:sfcdebug.obj
 0004:000024fc       $pdata$sf_debug_matlab_error 000000018009e4fc     sfc_debug:sfcdebug.obj
 0004:00002508       $pdata$sf_debug_size_eq_check_1d 000000018009e508     sfc_debug:sfcdebug.obj
 0004:00002514       $pdata$sf_debug_size_eq_check_nd 000000018009e514     sfc_debug:sfcdebug.obj
 0004:00002520       $pdata$0$sf_debug_size_eq_check_nd 000000018009e520     sfc_debug:sfcdebug.obj
 0004:0000252c       $pdata$1$sf_debug_size_eq_check_nd 000000018009e52c     sfc_debug:sfcdebug.obj
 0004:00002538       $pdata$2$sf_debug_size_eq_check_nd 000000018009e538     sfc_debug:sfcdebug.obj
 0004:00002544       $pdata$3$sf_debug_size_eq_check_nd 000000018009e544     sfc_debug:sfcdebug.obj
 0004:00002550       $pdata$sf_debug_dim_size_eq_check 000000018009e550     sfc_debug:sfcdebug.obj
 0004:0000255c       $pdata$sf_debug_dim_size_geq_check 000000018009e55c     sfc_debug:sfcdebug.obj
 0004:00002568       $pdata$sf_debug_sub_assign_size_check_nd 000000018009e568     sfc_debug:sfcdebug.obj
 0004:00002574       $pdata$0$sf_debug_sub_assign_size_check_nd 000000018009e574     sfc_debug:sfcdebug.obj
 0004:00002580       $pdata$1$sf_debug_sub_assign_size_check_nd 000000018009e580     sfc_debug:sfcdebug.obj
 0004:0000258c       $pdata$sf_debug_matrix_matrix_index_check 000000018009e58c     sfc_debug:sfcdebug.obj
 0004:00002598       $pdata$sf_debug_vector_vector_index_check 000000018009e598     sfc_debug:sfcdebug.obj
 0004:000025a4       $pdata$sf_debug_for_loop_vector_check 000000018009e5a4     sfc_debug:sfcdebug.obj
 0004:000025b0       $pdata$sf_debug_runtime_error_msgid 000000018009e5b0     sfc_debug:sfcdebug.obj
 0004:000025bc       $pdata$sf_debug_data_array_bounds_error_check 000000018009e5bc     sfc_debug:sfcdebug.obj
 0004:000025c8       $pdata$0$sf_debug_data_array_bounds_error_check 000000018009e5c8     sfc_debug:sfcdebug.obj
 0004:000025d4       $pdata$1$sf_debug_data_array_bounds_error_check 000000018009e5d4     sfc_debug:sfcdebug.obj
 0004:000025e0       $pdata$sf_debug_eml_data_array_bounds_error_check 000000018009e5e0     sfc_debug:sfcdebug.obj
 0004:000025ec       $pdata$2$sf_debug_eml_data_array_bounds_error_check 000000018009e5ec     sfc_debug:sfcdebug.obj
 0004:000025f8       $pdata$5$sf_debug_eml_data_array_bounds_error_check 000000018009e5f8     sfc_debug:sfcdebug.obj
 0004:00002604       $pdata$6$sf_debug_eml_data_array_bounds_error_check 000000018009e604     sfc_debug:sfcdebug.obj
 0004:00002610       $pdata$sf_debug_data_value_error 000000018009e610     sfc_debug:sfcdebug.obj
 0004:0000261c       $pdata$0$sf_debug_data_value_error 000000018009e61c     sfc_debug:sfcdebug.obj
 0004:00002628       $pdata$3$sf_debug_data_value_error 000000018009e628     sfc_debug:sfcdebug.obj
 0004:00002634       $pdata$4$sf_debug_data_value_error 000000018009e634     sfc_debug:sfcdebug.obj
 0004:00002640       $pdata$5$sf_debug_data_value_error 000000018009e640     sfc_debug:sfcdebug.obj
 0004:0000264c       $pdata$sf_debug_integer_check 000000018009e64c     sfc_debug:sfcdebug.obj
 0004:00002658       $pdata$0$sf_debug_integer_check 000000018009e658     sfc_debug:sfcdebug.obj
 0004:00002664       $pdata$1$sf_debug_integer_check 000000018009e664     sfc_debug:sfcdebug.obj
 0004:00002670       $pdata$sf_debug_not_nan_check 000000018009e670     sfc_debug:sfcdebug.obj
 0004:0000267c       $pdata$sf_debug_non_negative_check 000000018009e67c     sfc_debug:sfcdebug.obj
 0004:00002688       $pdata$sf_debug_overflow_detection 000000018009e688     sfc_debug:sfcdebug.obj
 0004:00002694       $pdata$0$sf_debug_overflow_detection 000000018009e694     sfc_debug:sfcdebug.obj
 0004:000026a0       $pdata$4$sf_debug_overflow_detection 000000018009e6a0     sfc_debug:sfcdebug.obj
 0004:000026ac       $pdata$5$sf_debug_overflow_detection 000000018009e6ac     sfc_debug:sfcdebug.obj
 0004:000026b8       $pdata$6$sf_debug_overflow_detection 000000018009e6b8     sfc_debug:sfcdebug.obj
 0004:000026c4       $pdata$sf_debug_data_loss_error 000000018009e6c4     sfc_debug:sfcdebug.obj
 0004:000026d0       $pdata$2$sf_debug_data_loss_error 000000018009e6d0     sfc_debug:sfcdebug.obj
 0004:000026dc       $pdata$3$sf_debug_data_loss_error 000000018009e6dc     sfc_debug:sfcdebug.obj
 0004:000026e8       $pdata$sf_debug_cast_to_real32_T 000000018009e6e8     sfc_debug:sfcdebug.obj
 0004:000026f4       $pdata$sf_debug_cast_to_int8_T 000000018009e6f4     sfc_debug:sfcdebug.obj
 0004:00002700       $pdata$sf_debug_cast_to_uint8_T 000000018009e700     sfc_debug:sfcdebug.obj
 0004:0000270c       $pdata$sf_debug_cast_to_int16_T 000000018009e70c     sfc_debug:sfcdebug.obj
 0004:00002718       $pdata$sf_debug_cast_to_uint16_T 000000018009e718     sfc_debug:sfcdebug.obj
 0004:00002724       $pdata$sf_debug_cast_to_int32_T 000000018009e724     sfc_debug:sfcdebug.obj
 0004:00002730       $pdata$sf_debug_cast_to_uint32_T 000000018009e730     sfc_debug:sfcdebug.obj
 0004:0000273c       $pdata$sf_debug_data_range_error 000000018009e73c     sfc_debug:sfcdebug.obj
 0004:00002748       $pdata$0$sf_debug_data_range_error 000000018009e748     sfc_debug:sfcdebug.obj
 0004:00002754       $pdata$1$sf_debug_data_range_error 000000018009e754     sfc_debug:sfcdebug.obj
 0004:00002760       $pdata$sf_debug_read_before_write_check 000000018009e760     sfc_debug:sfcdebug.obj
 0004:0000276c       $pdata$call_cv_range_check 000000018009e76c     sfc_debug:sfcdebug.obj
 0004:00002778       $pdata$0$call_cv_range_check 000000018009e778     sfc_debug:sfcdebug.obj
 0004:00002784       $pdata$1$call_cv_range_check 000000018009e784     sfc_debug:sfcdebug.obj
 0004:00002790       $pdata$sf_debug_data_range_error_wrapper_min_max 000000018009e790     sfc_debug:sfcdebug.obj
 0004:0000279c       $pdata$1$sf_debug_data_range_error_wrapper_min_max 000000018009e79c     sfc_debug:sfcdebug.obj
 0004:000027a8       $pdata$2$sf_debug_data_range_error_wrapper_min_max 000000018009e7a8     sfc_debug:sfcdebug.obj
 0004:000027b4       $pdata$sf_debug_data_range_error_wrapper_min 000000018009e7b4     sfc_debug:sfcdebug.obj
 0004:000027c0       $pdata$1$sf_debug_data_range_error_wrapper_min 000000018009e7c0     sfc_debug:sfcdebug.obj
 0004:000027cc       $pdata$2$sf_debug_data_range_error_wrapper_min 000000018009e7cc     sfc_debug:sfcdebug.obj
 0004:000027d8       $pdata$sf_debug_data_range_error_wrapper_max 000000018009e7d8     sfc_debug:sfcdebug.obj
 0004:000027e4       $pdata$1$sf_debug_data_range_error_wrapper_max 000000018009e7e4     sfc_debug:sfcdebug.obj
 0004:000027f0       $pdata$2$sf_debug_data_range_error_wrapper_max 000000018009e7f0     sfc_debug:sfcdebug.obj
 0004:000027fc       $pdata$sf_debug_data_range_wrapper 000000018009e7fc     sfc_debug:sfcdebug.obj
 0004:00002808       $pdata$0$sf_debug_data_range_wrapper 000000018009e808     sfc_debug:sfcdebug.obj
 0004:00002814       $pdata$1$sf_debug_data_range_wrapper 000000018009e814     sfc_debug:sfcdebug.obj
 0004:00002820       $pdata$sf_debug_set_current_status_info 000000018009e820     sfc_debug:sfcdebug.obj
 0004:0000282c       $pdata$sf_debug_invoke_cycle_detection_code 000000018009e82c     sfc_debug:sfcdebug.obj
 0004:00002838       $pdata$sf_debug_register_message_post_receive_info 000000018009e838     sfc_debug:sfcdebug.obj
 0004:00002844       $pdata$sf_debug_call       000000018009e844     sfc_debug:sfcdebug.obj
 0004:00002850       $pdata$3$sf_debug_call     000000018009e850     sfc_debug:sfcdebug.obj
 0004:0000285c       $pdata$4$sf_debug_call     000000018009e85c     sfc_debug:sfcdebug.obj
 0004:00002868       $pdata$5$sf_debug_call     000000018009e868     sfc_debug:sfcdebug.obj
 0004:00002874       $pdata$7$sf_debug_call     000000018009e874     sfc_debug:sfcdebug.obj
 0004:00002880       $pdata$sf_reset_debug_info_struct 000000018009e880     sfc_debug:sfcdebug.obj
 0004:0000288c       $pdata$0$sf_reset_debug_info_struct 000000018009e88c     sfc_debug:sfcdebug.obj
 0004:00002898       $pdata$1$sf_reset_debug_info_struct 000000018009e898     sfc_debug:sfcdebug.obj
 0004:000028a4       $pdata$sf_debug_initialize_machine 000000018009e8a4     sfc_debug:sfcdebug.obj
 0004:000028b0       $pdata$sf_debug_initialize_chart 000000018009e8b0     sfc_debug:sfcdebug.obj
 0004:000028bc       $pdata$3$sf_debug_initialize_chart 000000018009e8bc     sfc_debug:sfcdebug.obj
 0004:000028c8       $pdata$4$sf_debug_initialize_chart 000000018009e8c8     sfc_debug:sfcdebug.obj
 0004:000028d4       $pdata$sf_debug_ensure_script 000000018009e8d4     sfc_debug:sfcdebug.obj
 0004:000028e0       $pdata$cv_script_cvId      000000018009e8e0     sfc_debug:sfcdebug.obj
 0004:000028ec       $pdata$cv_eval_saturation  000000018009e8ec     sfc_debug:sfcdebug.obj
 0004:000028f8       $pdata$0$cv_eval_saturation 000000018009e8f8     sfc_debug:sfcdebug.obj
 0004:00002904       $pdata$2$cv_eval_saturation 000000018009e904     sfc_debug:sfcdebug.obj
 0004:00002910       $pdata$3$cv_eval_saturation 000000018009e910     sfc_debug:sfcdebug.obj
 0004:0000291c       $pdata$cv_saturation_accum 000000018009e91c     sfc_debug:sfcdebug.obj
 0004:00002928       $pdata$0$cv_saturation_accum 000000018009e928     sfc_debug:sfcdebug.obj
 0004:00002934       $pdata$1$cv_saturation_accum 000000018009e934     sfc_debug:sfcdebug.obj
 0004:00002940       $pdata$cv_script_init_script 000000018009e940     sfc_debug:sfcdebug.obj
 0004:0000294c       $pdata$cv_script_init_fcn  000000018009e94c     sfc_debug:sfcdebug.obj
 0004:00002958       $pdata$cv_script_init_testobjective 000000018009e958     sfc_debug:sfcdebug.obj
 0004:00002964       $pdata$cv_script_init_saturation 000000018009e964     sfc_debug:sfcdebug.obj
 0004:00002970       $pdata$cv_script_init_if   000000018009e970     sfc_debug:sfcdebug.obj
 0004:0000297c       $pdata$cv_script_init_for  000000018009e97c     sfc_debug:sfcdebug.obj
 0004:00002988       $pdata$cv_script_init_while 000000018009e988     sfc_debug:sfcdebug.obj
 0004:00002994       $pdata$cv_script_init_mcdc 000000018009e994     sfc_debug:sfcdebug.obj
 0004:000029a0       $pdata$cv_script_init_switch 000000018009e9a0     sfc_debug:sfcdebug.obj
 0004:000029ac       $pdata$cv_script_eval      000000018009e9ac     sfc_debug:sfcdebug.obj
 0004:000029b8       $pdata$0$cv_script_eval    000000018009e9b8     sfc_debug:sfcdebug.obj
 0004:000029c4       $pdata$1$cv_script_eval    000000018009e9c4     sfc_debug:sfcdebug.obj
 0004:000029d0       $pdata$eml_debug_line_call 000000018009e9d0     sfc_debug:sfcdebug.obj
 0004:000029dc       $pdata$1$eml_debug_line_call 000000018009e9dc     sfc_debug:sfcdebug.obj
 0004:000029e8       $pdata$2$eml_debug_line_call 000000018009e9e8     sfc_debug:sfcdebug.obj
 0004:000029f4       $pdata$sf_debug_terminate  000000018009e9f4     sfc_debug:sfcdebug.obj
 0004:00002a00       $pdata$1$sf_debug_terminate 000000018009ea00     sfc_debug:sfcdebug.obj
 0004:00002a0c       $pdata$2$sf_debug_terminate 000000018009ea0c     sfc_debug:sfcdebug.obj
 0004:00002a18       $pdata$3$sf_debug_terminate 000000018009ea18     sfc_debug:sfcdebug.obj
 0004:00002a24       $pdata$4$sf_debug_terminate 000000018009ea24     sfc_debug:sfcdebug.obj
 0004:00002a30       $pdata$sf_debug_set_script_cv_ids 000000018009ea30     sfc_debug:sfcdebug.obj
 0004:00002a3c       $pdata$sf_debug_api        000000018009ea3c     sfc_debug:sfc_api.obj
 0004:00002a48       $pdata$0$sf_debug_api      000000018009ea48     sfc_debug:sfc_api.obj
 0004:00002a54       $pdata$4$sf_debug_api      000000018009ea54     sfc_debug:sfc_api.obj
 0004:00002a60       $pdata$5$sf_debug_api      000000018009ea60     sfc_debug:sfc_api.obj
 0004:00002a6c       $pdata$6$sf_debug_api      000000018009ea6c     sfc_debug:sfc_api.obj
 0004:00002a78       $pdata$sfc_api_chart_visible 000000018009ea78     sfc_debug:sfc_api.obj
 0004:00002a84       $pdata$sfc_api_active_instance 000000018009ea84     sfc_debug:sfc_api.obj
 0004:00002a90       $pdata$sfc_api_machine_load 000000018009ea90     sfc_debug:sfc_api.obj
 0004:00002a9c       $pdata$sfc_api_stop_debugging 000000018009ea9c     sfc_debug:sfc_api.obj
 0004:00002aa8       $pdata$sfc_api_is_cycle_detected 000000018009eaa8     sfc_debug:sfc_api.obj
 0004:00002ab4       $pdata$sfc_api_is_array_bounds_detected 000000018009eab4     sfc_debug:sfc_api.obj
 0004:00002ac0       $pdata$sfc_api_set_disable_all_breakpoints 000000018009eac0     sfc_debug:sfc_api.obj
 0004:00002acc       $pdata$sfc_api_browse_data 000000018009eacc     sfc_debug:sfc_api.obj
 0004:00002ad8       $pdata$sfc_api_watch_data  000000018009ead8     sfc_debug:sfc_api.obj
 0004:00002ae4       $pdata$sfc_api_extract_message_post_receive_info 000000018009eae4     sfc_debug:sfc_api.obj
 0004:00002af0       $pdata$sfc_api_assign_data 000000018009eaf0     sfc_debug:sfc_api.obj
 0004:00002afc       $pdata$sfc_api_whos        000000018009eafc     sfc_debug:sfc_api.obj
 0004:00002b08       $pdata$sfc_api_break_on_chart_entry 000000018009eb08     sfc_debug:sfc_api.obj
 0004:00002b14       $pdata$sfc_api_break_on_event_broadcast 000000018009eb14     sfc_debug:sfc_api.obj
 0004:00002b20       $pdata$sfc_api_break_on_state_entry 000000018009eb20     sfc_debug:sfc_api.obj
 0004:00002b2c       $pdata$sfc_api_set_watch   000000018009eb2c     sfc_debug:sfc_api.obj
 0004:00002b38       $pdata$sfc_api_set_breakpoints 000000018009eb38     sfc_debug:sfc_api.obj
 0004:00002b44       $pdata$sfc_api_set_eml_breakpoints 000000018009eb44     sfc_debug:sfc_api.obj
 0004:00002b50       $pdata$sfc_api_set_script_breakpoints 000000018009eb50     sfc_debug:sfc_api.obj
 0004:00002b5c       $pdata$sfc_api_add_script_breakpoints 000000018009eb5c     sfc_debug:sfc_api.obj
 0004:00002b68       $pdata$sfc_api_clear_script_breakpoints 000000018009eb68     sfc_debug:sfc_api.obj
 0004:00002b74       $pdata$sfc_api_query_script_breakpoints 000000018009eb74     sfc_debug:sfc_api.obj
 0004:00002b80       $pdata$sfc_api_get_script_id 000000018009eb80     sfc_debug:sfc_api.obj
 0004:00002b8c       $pdata$sfc_api_get_active_states 000000018009eb8c     sfc_debug:sfc_api.obj
 0004:00002b98       $pdata$sfc_api_break_between_times 000000018009eb98     sfc_debug:sfc_api.obj
 0004:00002ba4       $pdata$sfc_api_get_instance_handle 000000018009eba4     sfc_debug:sfc_api.obj
 0004:00002bb0       $pdata$sfc_api_set_animation 000000018009ebb0     sfc_debug:sfc_api.obj
 0004:00002bbc       $pdata$sfc_api_select_chart 000000018009ebbc     sfc_debug:sfc_api.obj
 0004:00002bc8       $pdata$sfc_api_select_charts 000000018009ebc8     sfc_debug:sfc_api.obj
 0004:00002bd4       $pdata$sfc_api_cycle_detection_check 000000018009ebd4     sfc_debug:sfc_api.obj
 0004:00002be0       $pdata$sfc_api_data_range_check 000000018009ebe0     sfc_debug:sfc_api.obj
 0004:00002bec       $pdata$sfc_api_transition_conflict_check 000000018009ebec     sfc_debug:sfc_api.obj
 0004:00002bf8       $pdata$sfc_api_state_consistency_check 000000018009ebf8     sfc_debug:sfc_api.obj
 0004:00002c04       $pdata$sfc_api_set_instance_cv_ids 000000018009ec04     sfc_debug:sfc_api.obj
 0004:00002c10       $pdata$sfc_api_set_script_cv_ids 000000018009ec10     sfc_debug:sfc_api.obj
 0004:00002c1c       $pdata$sfc_api_get_current_machine_id 000000018009ec1c     sfc_debug:sfc_api.obj
 0004:00002c28       $pdata$sfc_api_get_current_machine_number 000000018009ec28     sfc_debug:sfc_api.obj
 0004:00002c34       $pdata$sfc_api_get_current_chart_number 000000018009ec34     sfc_debug:sfc_api.obj
 0004:00002c40       $pdata$sfc_api_get_current_instance_number 000000018009ec40     sfc_debug:sfc_api.obj
 0004:00002c4c       $pdata$sfc_api_get_current_instance_handle 000000018009ec4c     sfc_debug:sfc_api.obj
 0004:00002c58       $pdata$sfc_api_get_current_is_minor_time_step 000000018009ec58     sfc_debug:sfc_api.obj
 0004:00002c64       $pdata$sfc_api_get_current_machine_name 000000018009ec64     sfc_debug:sfc_api.obj
 0004:00002c70       $pdata$sfc_api_get_current_chart_id 000000018009ec70     sfc_debug:sfc_api.obj
 0004:00002c7c       $pdata$sfc_api_get_current_object_type 000000018009ec7c     sfc_debug:sfc_api.obj
 0004:00002c88       $pdata$sfc_api_get_current_event_type 000000018009ec88     sfc_debug:sfc_api.obj
 0004:00002c94       $pdata$sfc_api_get_current_object_id 000000018009ec94     sfc_debug:sfc_api.obj
 0004:00002ca0       $pdata$sfc_get_current_active_event_type 000000018009eca0     sfc_debug:sfc_api.obj
 0004:00002cac       $pdata$sfc_api_get_current_active_event_id 000000018009ecac     sfc_debug:sfc_api.obj
 0004:00002cb8       $pdata$sfc_api_get_current_simulation_time 000000018009ecb8     sfc_debug:sfc_api.obj
 0004:00002cc4       $pdata$sfc_get_current_tag_type 000000018009ecc4     sfc_debug:sfc_api.obj
 0004:00002cd0       $pdata$sfc_get_current_coverage_percentage 000000018009ecd0     sfc_debug:sfc_api.obj
 0004:00002cdc       $pdata$sfc_get_current_statement_context 000000018009ecdc     sfc_debug:sfc_api.obj
 0004:00002ce8       $pdata$sfc_get_current_optional_integer 000000018009ece8     sfc_debug:sfc_api.obj
 0004:00002cf4       $pdata$sfc_get_current_statement_info 000000018009ecf4     sfc_debug:sfc_api.obj
 0004:00002d00       $pdata$sfc_api_get         000000018009ed00     sfc_debug:sfc_api.obj
 0004:00002d0c       $pdata$3$sfc_api_get       000000018009ed0c     sfc_debug:sfc_api.obj
 0004:00002d18       $pdata$4$sfc_api_get       000000018009ed18     sfc_debug:sfc_api.obj
 0004:00002d24       $pdata$sf_debug_sm_terminate 000000018009ed24     sfc_debug:sfdb_animation.obj
 0004:00002d30       $pdata$7$sf_debug_sm_terminate 000000018009ed30     sfc_debug:sfdb_animation.obj
 0004:00002d3c       $pdata$8$sf_debug_sm_terminate 000000018009ed3c     sfc_debug:sfdb_animation.obj
 0004:00002d48       $pdata$sf_debug_reset_path_objects 000000018009ed48     sfc_debug:sfdb_animation.obj
 0004:00002d54       $pdata$sf_debug_sm_reset_object_selection_status 000000018009ed54     sfc_debug:sfdb_animation.obj
 0004:00002d60       $pdata$sf_debug_sm_reset_state_buffer 000000018009ed60     sfc_debug:sfdb_animation.obj
 0004:00002d6c       $pdata$sf_debug_sm_select_active_objects 000000018009ed6c     sfc_debug:sfdb_animation.obj
 0004:00002d78       $pdata$0$sf_debug_sm_select_active_objects 000000018009ed78     sfc_debug:sfdb_animation.obj
 0004:00002d84       $pdata$5$sf_debug_sm_select_active_objects 000000018009ed84     sfc_debug:sfdb_animation.obj
 0004:00002d90       $pdata$6$sf_debug_sm_select_active_objects 000000018009ed90     sfc_debug:sfdb_animation.obj
 0004:00002d9c       $pdata$7$sf_debug_sm_select_active_objects 000000018009ed9c     sfc_debug:sfdb_animation.obj
 0004:00002da8       $pdata$8$sf_debug_sm_select_active_objects 000000018009eda8     sfc_debug:sfdb_animation.obj
 0004:00002db4       $pdata$sf_debug_sm_fill_state_activity_data 000000018009edb4     sfc_debug:sfdb_animation.obj
 0004:00002dc0       $pdata$0$sf_debug_sm_fill_state_activity_data 000000018009edc0     sfc_debug:sfdb_animation.obj
 0004:00002dcc       $pdata$1$sf_debug_sm_fill_state_activity_data 000000018009edcc     sfc_debug:sfdb_animation.obj
 0004:00002dd8       $pdata$sf_debug_sm_get_active_states 000000018009edd8     sfc_debug:sfdb_animation.obj
 0004:00002de4       $pdata$1$sf_debug_sm_get_active_states 000000018009ede4     sfc_debug:sfdb_animation.obj
 0004:00002df0       $pdata$5$sf_debug_sm_get_active_states 000000018009edf0     sfc_debug:sfdb_animation.obj
 0004:00002dfc       $pdata$6$sf_debug_sm_get_active_states 000000018009edfc     sfc_debug:sfdb_animation.obj
 0004:00002e08       $pdata$sf_debug_sm_initialize_instance 000000018009ee08     sfc_debug:sfdb_animation.obj
 0004:00002e14       $pdata$sf_debug_sm_change_object_selection_status 000000018009ee14     sfc_debug:sfdb_animation.obj
 0004:00002e20       $pdata$0$sf_debug_sm_change_object_selection_status 000000018009ee20     sfc_debug:sfdb_animation.obj
 0004:00002e2c       $pdata$1$sf_debug_sm_change_object_selection_status 000000018009ee2c     sfc_debug:sfdb_animation.obj
 0004:00002e38       $pdata$cv_create_interface 000000018009ee38     sfc_debug:cv_sfinterface.obj
 0004:00002e44       $pdata$0$cv_create_interface 000000018009ee44     sfc_debug:cv_sfinterface.obj
 0004:00002e50       $pdata$1$cv_create_interface 000000018009ee50     sfc_debug:cv_sfinterface.obj
 0004:00002e5c       $pdata$cv_init_trans       000000018009ee5c     sfc_debug:cv_sfinterface.obj
 0004:00002e68       $pdata$cv_init_saturation  000000018009ee68     sfc_debug:cv_sfinterface.obj
 0004:00002e74       $pdata$cv_init_testobjective 000000018009ee74     sfc_debug:cv_sfinterface.obj
 0004:00002e80       $pdata$cv_init_state       000000018009ee80     sfc_debug:cv_sfinterface.obj
 0004:00002e8c       $pdata$cv_init_chart       000000018009ee8c     sfc_debug:cv_sfinterface.obj
 0004:00002e98       $pdata$cv_dec_update_call  000000018009ee98     sfc_debug:cv_sfinterface.obj
 0004:00002ea4       $pdata$cv_cond_update_call 000000018009eea4     sfc_debug:cv_sfinterface.obj
 0004:00002eb0       $pdata$cv_saturation_update_call 000000018009eeb0     sfc_debug:cv_sfinterface.obj
 0004:00002ebc       $pdata$cv_saturation_update_accum 000000018009eebc     sfc_debug:cv_sfinterface.obj
 0004:00002ec8       $pdata$cv_testobjective_update_call 000000018009eec8     sfc_debug:cv_sfinterface.obj
 0004:00002ed4       $pdata$cv_sigrange_update  000000018009eed4     sfc_debug:cv_sfinterface.obj
 0004:00002ee0       $pdata$cvsf_eml_eval       000000018009eee0     sfc_debug:cv_sfinterface.obj
 0004:00002eec       $pdata$cvsf_eml_init_script 000000018009eeec     sfc_debug:cv_sfinterface.obj
 0004:00002ef8       $pdata$cvsf_eml_init_fcn   000000018009eef8     sfc_debug:cv_sfinterface.obj
 0004:00002f04       $pdata$cvsf_eml_init_testobjective 000000018009ef04     sfc_debug:cv_sfinterface.obj
 0004:00002f10       $pdata$cvsf_eml_init_saturation 000000018009ef10     sfc_debug:cv_sfinterface.obj
 0004:00002f1c       $pdata$cvsf_eml_init_if    000000018009ef1c     sfc_debug:cv_sfinterface.obj
 0004:00002f28       $pdata$cvsf_eml_init_for   000000018009ef28     sfc_debug:cv_sfinterface.obj
 0004:00002f34       $pdata$cvsf_eml_init_while 000000018009ef34     sfc_debug:cv_sfinterface.obj
 0004:00002f40       $pdata$cvsf_eml_init_mcdc  000000018009ef40     sfc_debug:cv_sfinterface.obj
 0004:00002f4c       $pdata$cvsf_eml_init_switch 000000018009ef4c     sfc_debug:cv_sfinterface.obj
 0004:00002f58       $pdata$cvsf_script_eval    000000018009ef58     sfc_debug:cv_sfinterface.obj
 0004:00002f64       $pdata$cvsf_script_init_script 000000018009ef64     sfc_debug:cv_sfinterface.obj
 0004:00002f70       $pdata$cvsf_script_init_fcn 000000018009ef70     sfc_debug:cv_sfinterface.obj
 0004:00002f7c       $pdata$cvsf_script_init_testobjective 000000018009ef7c     sfc_debug:cv_sfinterface.obj
 0004:00002f88       $pdata$cvsf_script_init_saturation 000000018009ef88     sfc_debug:cv_sfinterface.obj
 0004:00002f94       $pdata$cvsf_script_init_if 000000018009ef94     sfc_debug:cv_sfinterface.obj
 0004:00002fa0       $pdata$cvsf_script_init_for 000000018009efa0     sfc_debug:cv_sfinterface.obj
 0004:00002fac       $pdata$cvsf_script_init_while 000000018009efac     sfc_debug:cv_sfinterface.obj
 0004:00002fb8       $pdata$cvsf_script_init_mcdc 000000018009efb8     sfc_debug:cv_sfinterface.obj
 0004:00002fc4       $pdata$cvsf_script_init_switch 000000018009efc4     sfc_debug:cv_sfinterface.obj
 0004:00002fd0       $pdata$cv_create_instance_objects 000000018009efd0     sfc_debug:cv_sfinterface.obj
 0004:00002fdc       $pdata$sf_debug_cv_initialize_script 000000018009efdc     sfc_debug:cv_sfinterface.obj
 0004:00002fe8       $pdata$sf_debug_cv_initialize_instance 000000018009efe8     sfc_debug:cv_sfinterface.obj
 0004:00002ff4       $pdata$sf_debug_cv_terminate_chart 000000018009eff4     sfc_debug:cv_sfinterface.obj
 0004:00003000       $pdata$1$sf_debug_cv_terminate_chart 000000018009f000     sfc_debug:cv_sfinterface.obj
 0004:0000300c       $pdata$2$sf_debug_cv_terminate_chart 000000018009f00c     sfc_debug:cv_sfinterface.obj
 0004:00003018       $pdata$cv_call_sub_cond_test 000000018009f018     sfc_debug:cv_sfinterface.obj
 0004:00003024       $pdata$sf_debug_st_initialize_machine 000000018009f024     sfc_debug:sfdb_data_browse.obj
 0004:00003030       $pdata$sf_debug_st_initialize_instance 000000018009f030     sfc_debug:sfdb_data_browse.obj
 0004:0000303c       $pdata$void_ptr_stack_vector_free_total 000000018009f03c     sfc_debug:sfdb_data_browse.obj
 0004:00003048       $pdata$0$void_ptr_stack_vector_free_total 000000018009f048     sfc_debug:sfdb_data_browse.obj
 0004:00003054       $pdata$1$void_ptr_stack_vector_free_total 000000018009f054     sfc_debug:sfdb_data_browse.obj
 0004:00003060       $pdata$2$void_ptr_stack_vector_free_total 000000018009f060     sfc_debug:sfdb_data_browse.obj
 0004:0000306c       $pdata$3$void_ptr_stack_vector_free_total 000000018009f06c     sfc_debug:sfdb_data_browse.obj
 0004:00003078       $pdata$sf_debug_st_terminate_machine 000000018009f078     sfc_debug:sfdb_data_browse.obj
 0004:00003084       $pdata$sf_debug_st_terminate_instance 000000018009f084     sfc_debug:sfdb_data_browse.obj
 0004:00003090       $pdata$sf_debug_st_terminate 000000018009f090     sfc_debug:sfdb_data_browse.obj
 0004:0000309c       $pdata$6$sf_debug_st_terminate 000000018009f09c     sfc_debug:sfdb_data_browse.obj
 0004:000030a8       $pdata$7$sf_debug_st_terminate 000000018009f0a8     sfc_debug:sfdb_data_browse.obj
 0004:000030b4       $pdata$push_on_to_void_ptr_stack 000000018009f0b4     sfc_debug:sfdb_data_browse.obj
 0004:000030c0       $pdata$sf_debug_st_set_data_value_ptr_in_machine 000000018009f0c0     sfc_debug:sfdb_data_browse.obj
 0004:000030cc       $pdata$sf_debug_st_set_data_value_ptr_in_instance 000000018009f0cc     sfc_debug:sfdb_data_browse.obj
 0004:000030d8       $pdata$pop_from_void_ptr_stack 000000018009f0d8     sfc_debug:sfdb_data_browse.obj
 0004:000030e4       $pdata$sf_debug_st_unset_data_value_ptr_in_machine 000000018009f0e4     sfc_debug:sfdb_data_browse.obj
 0004:000030f0       $pdata$sf_debug_st_unset_data_value_ptr_in_instance 000000018009f0f0     sfc_debug:sfdb_data_browse.obj
 0004:000030fc       $pdata$sf_debug_st_get_data_value 000000018009f0fc     sfc_debug:sfdb_data_browse.obj
 0004:00003108       $pdata$1$sf_debug_st_get_data_value 000000018009f108     sfc_debug:sfdb_data_browse.obj
 0004:00003114       $pdata$2$sf_debug_st_get_data_value 000000018009f114     sfc_debug:sfdb_data_browse.obj
 0004:00003120       $pdata$3$sf_debug_st_get_data_value 000000018009f120     sfc_debug:sfdb_data_browse.obj
 0004:0000312c       $pdata$sf_debug_mx_value   000000018009f12c     sfc_debug:sfdb_data_browse.obj
 0004:00003138       $pdata$sf_debug_mx_packed_vector 000000018009f138     sfc_debug:sfdb_data_browse.obj
 0004:00003144       $pdata$2$sf_debug_mx_packed_vector 000000018009f144     sfc_debug:sfdb_data_browse.obj
 0004:00003150       $pdata$3$sf_debug_mx_packed_vector 000000018009f150     sfc_debug:sfdb_data_browse.obj
 0004:0000315c       $pdata$sf_debug_mx_uint_vector 000000018009f15c     sfc_debug:sfdb_data_browse.obj
 0004:00003168       $pdata$2$sf_debug_mx_uint_vector 000000018009f168     sfc_debug:sfdb_data_browse.obj
 0004:00003174       $pdata$3$sf_debug_mx_uint_vector 000000018009f174     sfc_debug:sfdb_data_browse.obj
 0004:00003180       $pdata$sf_debug_st_get_double_value_from_void_ptr_vector 000000018009f180     sfc_debug:sfdb_data_browse.obj
 0004:0000318c       $pdata$mx_value            000000018009f18c     sfc_debug:sfdb_data_browse.obj
 0004:00003198       $pdata$sf_debug_st_fill_data_struct 000000018009f198     sfc_debug:sfdb_data_browse.obj
 0004:000031a4       $pdata$data_type_format_strings 000000018009f1a4     sfc_debug:sfdb_data_browse.obj
 0004:000031b0       $pdata$sf_debug_st_fill_data 000000018009f1b0     sfc_debug:sfdb_data_browse.obj
 0004:000031bc       $pdata$1$sf_debug_st_fill_data 000000018009f1bc     sfc_debug:sfdb_data_browse.obj
 0004:000031c8       $pdata$7$sf_debug_st_fill_data 000000018009f1c8     sfc_debug:sfdb_data_browse.obj
 0004:000031d4       $pdata$8$sf_debug_st_fill_data 000000018009f1d4     sfc_debug:sfdb_data_browse.obj
 0004:000031e0       $pdata$10$sf_debug_st_fill_data 000000018009f1e0     sfc_debug:sfdb_data_browse.obj
 0004:000031ec       $pdata$11$sf_debug_st_fill_data 000000018009f1ec     sfc_debug:sfdb_data_browse.obj
 0004:000031f8       $pdata$sf_debug_st_browse_data 000000018009f1f8     sfc_debug:sfdb_data_browse.obj
 0004:00003204       $pdata$0$sf_debug_st_browse_data 000000018009f204     sfc_debug:sfdb_data_browse.obj
 0004:00003210       $pdata$5$sf_debug_st_browse_data 000000018009f210     sfc_debug:sfdb_data_browse.obj
 0004:0000321c       $pdata$6$sf_debug_st_browse_data 000000018009f21c     sfc_debug:sfdb_data_browse.obj
 0004:00003228       $pdata$sf_debug_hm_get_simulink_handle 000000018009f228     sfc_debug:sfdb_handle_management.obj
 0004:00003234       $pdata$0$sf_debug_hm_get_simulink_handle 000000018009f234     sfc_debug:sfdb_handle_management.obj
 0004:00003240       $pdata$1$sf_debug_hm_get_simulink_handle 000000018009f240     sfc_debug:sfdb_handle_management.obj
 0004:0000324c       $pdata$2$sf_debug_hm_get_simulink_handle 000000018009f24c     sfc_debug:sfdb_handle_management.obj
 0004:00003258       $pdata$3$sf_debug_hm_get_simulink_handle 000000018009f258     sfc_debug:sfdb_handle_management.obj
 0004:00003264       $pdata$sf_debug_hm_initialize_instance 000000018009f264     sfc_debug:sfdb_handle_management.obj
 0004:00003270       $pdata$2$sf_debug_hm_initialize_instance 000000018009f270     sfc_debug:sfdb_handle_management.obj
 0004:0000327c       $pdata$3$sf_debug_hm_initialize_instance 000000018009f27c     sfc_debug:sfdb_handle_management.obj
 0004:00003288       $pdata$4$sf_debug_hm_initialize_instance 000000018009f288     sfc_debug:sfdb_handle_management.obj
 0004:00003294       $pdata$5$sf_debug_hm_initialize_instance 000000018009f294     sfc_debug:sfdb_handle_management.obj
 0004:000032a0       $pdata$6$sf_debug_hm_initialize_instance 000000018009f2a0     sfc_debug:sfdb_handle_management.obj
 0004:000032ac       $pdata$sf_debug_hm_get_object_id 000000018009f2ac     sfc_debug:sfdb_handle_management.obj
 0004:000032b8       $pdata$sf_debug_hm_initialize_globals 000000018009f2b8     sfc_debug:sfdb_handle_management.obj
 0004:000032c4       $pdata$sf_debug_hm_get_machine_debug_flag 000000018009f2c4     sfc_debug:sfdb_handle_management.obj
 0004:000032d0       $pdata$sf_debug_hm_get_machine_id 000000018009f2d0     sfc_debug:sfdb_handle_management.obj
 0004:000032dc       $pdata$sf_debug_hm_get_chart_id 000000018009f2dc     sfc_debug:sfdb_handle_management.obj
 0004:000032e8       $pdata$sf_debug_hm_register_executing_SFunction 000000018009f2e8     sfc_debug:sfdb_handle_management.obj
 0004:000032f4       $pdata$sf_debug_hm_update_chart_visibility 000000018009f2f4     sfc_debug:sfdb_handle_management.obj
 0004:00003300       $pdata$sf_debug_hm_form_object_boolean_properties 000000018009f300     sfc_debug:sfdb_handle_management.obj
 0004:0000330c       $pdata$0$sf_debug_hm_form_object_boolean_properties 000000018009f30c     sfc_debug:sfdb_handle_management.obj
 0004:00003318       $pdata$1$sf_debug_hm_form_object_boolean_properties 000000018009f318     sfc_debug:sfdb_handle_management.obj
 0004:00003324       $pdata$2$sf_debug_hm_form_object_boolean_properties 000000018009f324     sfc_debug:sfdb_handle_management.obj
 0004:00003330       $pdata$3$sf_debug_hm_form_object_boolean_properties 000000018009f330     sfc_debug:sfdb_handle_management.obj
 0004:0000333c       $pdata$sf_debug_hm_form_object_properties 000000018009f33c     sfc_debug:sfdb_handle_management.obj
 0004:00003348       $pdata$sf_debug_hm_terminate_charts 000000018009f348     sfc_debug:sfdb_handle_management.obj
 0004:00003354       $pdata$4$sf_debug_hm_terminate_charts 000000018009f354     sfc_debug:sfdb_handle_management.obj
 0004:00003360       $pdata$5$sf_debug_hm_terminate_charts 000000018009f360     sfc_debug:sfdb_handle_management.obj
 0004:0000336c       $pdata$sf_debug_hm_terminate_machines 000000018009f36c     sfc_debug:sfdb_handle_management.obj
 0004:00003378       $pdata$3$sf_debug_hm_terminate_machines 000000018009f378     sfc_debug:sfdb_handle_management.obj
 0004:00003384       $pdata$4$sf_debug_hm_terminate_machines 000000018009f384     sfc_debug:sfdb_handle_management.obj
 0004:00003390       $pdata$sf_debug_object_is_eml_function 000000018009f390     sfc_debug:sfdb_handle_management.obj
 0004:0000339c       $pdata$sf_debug_hm_initialize_ids_in_machine 000000018009f39c     sfc_debug:sfdb_handle_management.obj
 0004:000033a8       $pdata$sf_debug_hm_initialize_ids_in_chart 000000018009f3a8     sfc_debug:sfdb_handle_management.obj
 0004:000033b4       $pdata$sf_debug_hm_initialize_chart 000000018009f3b4     sfc_debug:sfdb_handle_management.obj
 0004:000033c0       $pdata$0$sf_debug_hm_initialize_chart 000000018009f3c0     sfc_debug:sfdb_handle_management.obj
 0004:000033cc       $pdata$1$sf_debug_hm_initialize_chart 000000018009f3cc     sfc_debug:sfdb_handle_management.obj
 0004:000033d8       $pdata$2$sf_debug_hm_initialize_chart 000000018009f3d8     sfc_debug:sfdb_handle_management.obj
 0004:000033e4       $pdata$3$sf_debug_hm_initialize_chart 000000018009f3e4     sfc_debug:sfdb_handle_management.obj
 0004:000033f0       $pdata$4$sf_debug_hm_initialize_chart 000000018009f3f0     sfc_debug:sfdb_handle_management.obj
 0004:000033fc       $pdata$5$sf_debug_hm_initialize_chart 000000018009f3fc     sfc_debug:sfdb_handle_management.obj
 0004:00003408       $pdata$sf_debug_hm_terminate 000000018009f408     sfc_debug:sfdb_handle_management.obj
 0004:00003414       $pdata$sf_debug_hm_initialize_machine 000000018009f414     sfc_debug:sfdb_handle_management.obj
 0004:00003420       $pdata$sf_debug_ss_terminate 000000018009f420     sfc_debug:sfdb_symbol_scope.obj
 0004:0000342c       $pdata$sf_debug_ss_push_symbol_scope 000000018009f42c     sfc_debug:sfdb_symbol_scope.obj
 0004:00003438       $pdata$sf_debug_ss_push_symbol_scope_eml 000000018009f438     sfc_debug:sfdb_symbol_scope.obj
 0004:00003444       $pdata$sf_debug_ss_pop_symbol_scope 000000018009f444     sfc_debug:sfdb_symbol_scope.obj
 0004:00003450       $pdata$sf_debug_ss_add_symbol 000000018009f450     sfc_debug:sfdb_symbol_scope.obj
 0004:0000345c       $pdata$sf_debug_ss_add_symbol_eml 000000018009f45c     sfc_debug:sfdb_symbol_scope.obj
 0004:00003468       $pdata$sf_debug_ss_copy_dimension 000000018009f468     sfc_debug:sfdb_symbol_scope.obj
 0004:00003474       $pdata$sf_debug_ss_fill_data_struct 000000018009f474     sfc_debug:sfdb_symbol_scope.obj
 0004:00003480       $pdata$2$sf_debug_ss_fill_data_struct 000000018009f480     sfc_debug:sfdb_symbol_scope.obj
 0004:0000348c       $pdata$4$sf_debug_ss_fill_data_struct 000000018009f48c     sfc_debug:sfdb_symbol_scope.obj
 0004:00003498       $pdata$5$sf_debug_ss_fill_data_struct 000000018009f498     sfc_debug:sfdb_symbol_scope.obj
 0004:000034a4       $pdata$6$sf_debug_ss_fill_data_struct 000000018009f4a4     sfc_debug:sfdb_symbol_scope.obj
 0004:000034b0       $pdata$7$sf_debug_ss_fill_data_struct 000000018009f4b0     sfc_debug:sfdb_symbol_scope.obj
 0004:000034bc       $pdata$8$sf_debug_ss_fill_data_struct 000000018009f4bc     sfc_debug:sfdb_symbol_scope.obj
 0004:000034c8       $pdata$sf_debug_fill_data_info_by_data_vector 000000018009f4c8     sfc_debug:sfdb_symbol_scope.obj
 0004:000034d4       $pdata$get_data_info_helper 000000018009f4d4     sfc_debug:sfdb_symbol_scope.obj
 0004:000034e0       $pdata$1$get_data_info_helper 000000018009f4e0     sfc_debug:sfdb_symbol_scope.obj
 0004:000034ec       $pdata$2$get_data_info_helper 000000018009f4ec     sfc_debug:sfdb_symbol_scope.obj
 0004:000034f8       $pdata$3$get_data_info_helper 000000018009f4f8     sfc_debug:sfdb_symbol_scope.obj
 0004:00003504       $pdata$4$get_data_info_helper 000000018009f504     sfc_debug:sfdb_symbol_scope.obj
 0004:00003510       $pdata$5$get_data_info_helper 000000018009f510     sfc_debug:sfdb_symbol_scope.obj
 0004:0000351c       $pdata$6$get_data_info_helper 000000018009f51c     sfc_debug:sfdb_symbol_scope.obj
 0004:00003528       $pdata$sf_debug_ss_get_data_info 000000018009f528     sfc_debug:sfdb_symbol_scope.obj
 0004:00003534       $pdata$sf_debug_ss_set_data_value_try 000000018009f534     sfc_debug:sfdb_symbol_scope.obj
 0004:00003540       $pdata$sf_debug_ss_set_data_value 000000018009f540     sfc_debug:sfdb_symbol_scope.obj
 0004:0000354c       $pdata$sf_debug_ss_get_data_value 000000018009f54c     sfc_debug:sfdb_symbol_scope.obj
 0004:00003558       $pdata$getInstanceNumber   000000018009f558     sfc_debug:sfdb_symbol_scope.obj
 0004:00003564       $pdata$sf_debug_ss_watch_data 000000018009f564     sfc_debug:sfdb_symbol_scope.obj
 0004:00003570       $pdata$0$sf_debug_ss_watch_data 000000018009f570     sfc_debug:sfdb_symbol_scope.obj
 0004:0000357c       $pdata$1$sf_debug_ss_watch_data 000000018009f57c     sfc_debug:sfdb_symbol_scope.obj
 0004:00003588       $pdata$2$sf_debug_ss_watch_data 000000018009f588     sfc_debug:sfdb_symbol_scope.obj
 0004:00003594       $pdata$sf_debug_ss_assign_data 000000018009f594     sfc_debug:sfdb_symbol_scope.obj
 0004:000035a0       $pdata$sf_debug_ss_data_bytes_string 000000018009f5a0     sfc_debug:sfdb_symbol_scope.obj
 0004:000035ac       $pdata$sf_debug_ss_data_class_string 000000018009f5ac     sfc_debug:sfdb_symbol_scope.obj
 0004:000035b8       $pdata$1$sf_debug_ss_data_class_string 000000018009f5b8     sfc_debug:sfdb_symbol_scope.obj
 0004:000035c4       $pdata$2$sf_debug_ss_data_class_string 000000018009f5c4     sfc_debug:sfdb_symbol_scope.obj
 0004:000035d0       $pdata$3$sf_debug_ss_data_class_string 000000018009f5d0     sfc_debug:sfdb_symbol_scope.obj
 0004:000035dc       $pdata$4$sf_debug_ss_data_class_string 000000018009f5dc     sfc_debug:sfdb_symbol_scope.obj
 0004:000035e8       $pdata$sf_debug_ss_data_size_string 000000018009f5e8     sfc_debug:sfdb_symbol_scope.obj
 0004:000035f4       $pdata$0$sf_debug_ss_data_size_string 000000018009f5f4     sfc_debug:sfdb_symbol_scope.obj
 0004:00003600       $pdata$1$sf_debug_ss_data_size_string 000000018009f600     sfc_debug:sfdb_symbol_scope.obj
 0004:0000360c       $pdata$sf_debug_ss_data_create_data_info_struct 000000018009f60c     sfc_debug:sfdb_symbol_scope.obj
 0004:00003618       $pdata$1$sf_debug_ss_data_create_data_info_struct 000000018009f618     sfc_debug:sfdb_symbol_scope.obj
 0004:00003624       $pdata$2$sf_debug_ss_data_create_data_info_struct 000000018009f624     sfc_debug:sfdb_symbol_scope.obj
 0004:00003630       $pdata$sf_debug_ss_data_create_name_value_pair 000000018009f630     sfc_debug:sfdb_symbol_scope.obj
 0004:0000363c       $pdata$same_named_data_in_data_array 000000018009f63c     sfc_debug:sfdb_symbol_scope.obj
 0004:00003648       $pdata$sf_debug_ss_whos    000000018009f648     sfc_debug:sfdb_symbol_scope.obj
 0004:00003654       $pdata$sf_debug_cc_initialize_chart 000000018009f654     sfc_debug:sfdb_coverage.obj
 0004:00003660       $pdata$1$sf_debug_cc_initialize_chart 000000018009f660     sfc_debug:sfdb_coverage.obj
 0004:0000366c       $pdata$2$sf_debug_cc_initialize_chart 000000018009f66c     sfc_debug:sfdb_coverage.obj
 0004:00003678       $pdata$sf_debug_cc_initialize_instance 000000018009f678     sfc_debug:sfdb_coverage.obj
 0004:00003684       $pdata$2$sf_debug_cc_initialize_instance 000000018009f684     sfc_debug:sfdb_coverage.obj
 0004:00003690       $pdata$3$sf_debug_cc_initialize_instance 000000018009f690     sfc_debug:sfdb_coverage.obj
 0004:0000369c       $pdata$4$sf_debug_cc_initialize_instance 000000018009f69c     sfc_debug:sfdb_coverage.obj
 0004:000036a8       $pdata$sf_debug_cc_terminate_chart 000000018009f6a8     sfc_debug:sfdb_coverage.obj
 0004:000036b4       $pdata$0$sf_debug_cc_terminate_chart 000000018009f6b4     sfc_debug:sfdb_coverage.obj
 0004:000036c0       $pdata$2$sf_debug_cc_terminate_chart 000000018009f6c0     sfc_debug:sfdb_coverage.obj
 0004:000036cc       $pdata$3$sf_debug_cc_terminate_chart 000000018009f6cc     sfc_debug:sfdb_coverage.obj
 0004:000036d8       $pdata$4$sf_debug_cc_terminate_chart 000000018009f6d8     sfc_debug:sfdb_coverage.obj
 0004:000036e4       $pdata$sf_debug_cc_terminate_instance 000000018009f6e4     sfc_debug:sfdb_coverage.obj
 0004:000036f0       $pdata$sf_debug_cc_terminate 000000018009f6f0     sfc_debug:sfdb_coverage.obj
 0004:000036fc       $pdata$5$sf_debug_cc_terminate 000000018009f6fc     sfc_debug:sfdb_coverage.obj
 0004:00003708       $pdata$6$sf_debug_cc_terminate 000000018009f708     sfc_debug:sfdb_coverage.obj
 0004:00003714       $pdata$sf_debug_cc_set_transition_maps 000000018009f714     sfc_debug:sfdb_coverage.obj
 0004:00003720       $pdata$sf_debug_cc_set_transition_weights 000000018009f720     sfc_debug:sfdb_coverage.obj
 0004:0000372c       $pdata$sf_debug_cc_set_state_weights 000000018009f72c     sfc_debug:sfdb_coverage.obj
 0004:00003738       $pdata$sf_debug_cc_mark_object_if_needed 000000018009f738     sfc_debug:sfdb_coverage.obj
 0004:00003744       $pdata$sf_debug_cc_mark_transition_guard 000000018009f744     sfc_debug:sfdb_coverage.obj
 0004:00003750       $pdata$sf_debug_cc_mark_transition_trigger 000000018009f750     sfc_debug:sfdb_coverage.obj
 0004:0000375c       $pdata$sf_debug_cc_mark_transition_decision 000000018009f75c     sfc_debug:sfdb_coverage.obj
 0004:00003768       $pdata$sf_debug_bm_clear_script_breakpoints 000000018009f768     sfc_debug:sfdb_breakpoints.obj
 0004:00003774       $pdata$sf_debug_bm_set_script_breakpoint 000000018009f774     sfc_debug:sfdb_breakpoints.obj
 0004:00003780       $pdata$sf_debug_bm_clear_single_script_breakpoint 000000018009f780     sfc_debug:sfdb_breakpoints.obj
 0004:0000378c       $pdata$sf_debug_bm_query_script_breakpoint 000000018009f78c     sfc_debug:sfdb_breakpoints.obj
 0004:00003798       $pdata$sf_debug_bm_initialize_scripts 000000018009f798     sfc_debug:sfdb_breakpoints.obj
 0004:000037a4       $pdata$0$sf_debug_bm_initialize_scripts 000000018009f7a4     sfc_debug:sfdb_breakpoints.obj
 0004:000037b0       $pdata$2$sf_debug_bm_initialize_scripts 000000018009f7b0     sfc_debug:sfdb_breakpoints.obj
 0004:000037bc       $pdata$3$sf_debug_bm_initialize_scripts 000000018009f7bc     sfc_debug:sfdb_breakpoints.obj
 0004:000037c8       $pdata$4$sf_debug_bm_initialize_scripts 000000018009f7c8     sfc_debug:sfdb_breakpoints.obj
 0004:000037d4       $pdata$sf_debug_bm_initialize_eml 000000018009f7d4     sfc_debug:sfdb_breakpoints.obj
 0004:000037e0       $pdata$0$sf_debug_bm_initialize_eml 000000018009f7e0     sfc_debug:sfdb_breakpoints.obj
 0004:000037ec       $pdata$1$sf_debug_bm_initialize_eml 000000018009f7ec     sfc_debug:sfdb_breakpoints.obj
 0004:000037f8       $pdata$sf_debug_bm_terminate 000000018009f7f8     sfc_debug:sfdb_breakpoints.obj
 0004:00003804       $pdata$2$sf_debug_bm_terminate 000000018009f804     sfc_debug:sfdb_breakpoints.obj
 0004:00003810       $pdata$6$sf_debug_bm_terminate 000000018009f810     sfc_debug:sfdb_breakpoints.obj
 0004:0000381c       $pdata$7$sf_debug_bm_terminate 000000018009f81c     sfc_debug:sfdb_breakpoints.obj
 0004:00003828       $pdata$8$sf_debug_bm_terminate 000000018009f828     sfc_debug:sfdb_breakpoints.obj
 0004:00003834       $pdata$sf_debug_bm_remove_all_breakpoints_in_machine 000000018009f834     sfc_debug:sfdb_breakpoints.obj
 0004:00003840       $pdata$sf_debug_bm_remove_all_breakpoints_in_chart 000000018009f840     sfc_debug:sfdb_breakpoints.obj
 0004:0000384c       $pdata$sf_debug_bm_initialize_global_breakpoints 000000018009f84c     sfc_debug:sfdb_breakpoints.obj
 0004:00003858       $pdata$sf_debug_bm_set_breakpoint 000000018009f858     sfc_debug:sfdb_breakpoints.obj
 0004:00003864       $pdata$0$sf_debug_bm_set_breakpoint 000000018009f864     sfc_debug:sfdb_breakpoints.obj
 0004:00003870       $pdata$1$sf_debug_bm_set_breakpoint 000000018009f870     sfc_debug:sfdb_breakpoints.obj
 0004:0000387c       $pdata$2$sf_debug_bm_set_breakpoint 000000018009f87c     sfc_debug:sfdb_breakpoints.obj
 0004:00003888       $pdata$3$sf_debug_bm_set_breakpoint 000000018009f888     sfc_debug:sfdb_breakpoints.obj
 0004:00003894       $pdata$sf_debug_bm_set_eml_breakpoint 000000018009f894     sfc_debug:sfdb_breakpoints.obj
 0004:000038a0       $pdata$sf_debug_bm_map_debug_tag_to_breakpoint_tag 000000018009f8a0     sfc_debug:sfdb_breakpoints.obj
 0004:000038ac       $pdata$sf_debug_bm_is_a_eml_breakpoint_impl 000000018009f8ac     sfc_debug:sfdb_breakpoints.obj
 0004:000038b8       $pdata$sf_debug_bm_is_a_breakpoint 000000018009f8b8     sfc_debug:sfdb_breakpoints.obj
 0004:000038c4       $pdata$1$sf_debug_bm_is_a_breakpoint 000000018009f8c4     sfc_debug:sfdb_breakpoints.obj
 0004:000038d0       $pdata$2$sf_debug_bm_is_a_breakpoint 000000018009f8d0     sfc_debug:sfdb_breakpoints.obj
 0004:000038dc       $pdata$3$sf_debug_bm_is_a_breakpoint 000000018009f8dc     sfc_debug:sfdb_breakpoints.obj
 0004:000038e8       $pdata$4$sf_debug_bm_is_a_breakpoint 000000018009f8e8     sfc_debug:sfdb_breakpoints.obj
 0004:000038f4       $pdata$5$sf_debug_bm_is_a_breakpoint 000000018009f8f4     sfc_debug:sfdb_breakpoints.obj
 0004:00003900       $pdata$sf_debug_bm_get_all_breakpoints_in_machine 000000018009f900     sfc_debug:sfdb_breakpoints.obj
 0004:0000390c       $pdata$0$sf_debug_bm_get_all_breakpoints_in_machine 000000018009f90c     sfc_debug:sfdb_breakpoints.obj
 0004:00003918       $pdata$1$sf_debug_bm_get_all_breakpoints_in_machine 000000018009f918     sfc_debug:sfdb_breakpoints.obj
 0004:00003924       $pdata$2$sf_debug_bm_get_all_breakpoints_in_machine 000000018009f924     sfc_debug:sfdb_breakpoints.obj
 0004:00003930       $pdata$3$sf_debug_bm_get_all_breakpoints_in_machine 000000018009f930     sfc_debug:sfdb_breakpoints.obj
 0004:0000393c       $pdata$sf_debug_bm_get_all_breakpoints_in_chart 000000018009f93c     sfc_debug:sfdb_breakpoints.obj
 0004:00003948       $pdata$4$sf_debug_bm_get_all_breakpoints_in_chart 000000018009f948     sfc_debug:sfdb_breakpoints.obj
 0004:00003954       $pdata$5$sf_debug_bm_get_all_breakpoints_in_chart 000000018009f954     sfc_debug:sfdb_breakpoints.obj
 0004:00003960       $pdata$6$sf_debug_bm_get_all_breakpoints_in_chart 000000018009f960     sfc_debug:sfdb_breakpoints.obj
 0004:0000396c       $pdata$7$sf_debug_bm_get_all_breakpoints_in_chart 000000018009f96c     sfc_debug:sfdb_breakpoints.obj
 0004:00003978       $pdata$8$sf_debug_bm_get_all_breakpoints_in_chart 000000018009f978     sfc_debug:sfdb_breakpoints.obj
 0004:00003984       $pdata$sf_debug_bm_initialize_machine 000000018009f984     sfc_debug:sfdb_breakpoints.obj
 0004:00003990       $pdata$sf_debug_bm_initialize_chart 000000018009f990     sfc_debug:sfdb_breakpoints.obj
 0004:0000399c       $pdata$sf_debug_sc_push_on_error_stack 000000018009f99c     sfc_debug:sfdb_state_consistency.obj
 0004:000039a8       $pdata$sf_debug_sc_terminate 000000018009f9a8     sfc_debug:sfdb_state_consistency.obj
 0004:000039b4       $pdata$6$sf_debug_sc_terminate 000000018009f9b4     sfc_debug:sfdb_state_consistency.obj
 0004:000039c0       $pdata$7$sf_debug_sc_terminate 000000018009f9c0     sfc_debug:sfdb_state_consistency.obj
 0004:000039cc       $pdata$sf_debug_sc_is_state_inconsistent 000000018009f9cc     sfc_debug:sfdb_state_consistency.obj
 0004:000039d8       $pdata$0$sf_debug_sc_is_state_inconsistent 000000018009f9d8     sfc_debug:sfdb_state_consistency.obj
 0004:000039e4       $pdata$1$sf_debug_sc_is_state_inconsistent 000000018009f9e4     sfc_debug:sfdb_state_consistency.obj
 0004:000039f0       $pdata$sf_debug_sc_is_chart_consistent 000000018009f9f0     sfc_debug:sfdb_state_consistency.obj
 0004:000039fc       $pdata$sf_debug_sc_fill_consistency_info 000000018009f9fc     sfc_debug:sfdb_state_consistency.obj
 0004:00003a08       $pdata$1$sf_debug_sc_fill_consistency_info 000000018009fa08     sfc_debug:sfdb_state_consistency.obj
 0004:00003a14       $pdata$2$sf_debug_sc_fill_consistency_info 000000018009fa14     sfc_debug:sfdb_state_consistency.obj
 0004:00003a20       $pdata$sf_debug_sc_get_consistency_error_info 000000018009fa20     sfc_debug:sfdb_state_consistency.obj
 0004:00003a2c       $pdata$3$sf_debug_sc_get_consistency_error_info 000000018009fa2c     sfc_debug:sfdb_state_consistency.obj
 0004:00003a38       $pdata$4$sf_debug_sc_get_consistency_error_info 000000018009fa38     sfc_debug:sfdb_state_consistency.obj
 0004:00003a44       $pdata$sf_debug_tm_terminate 000000018009fa44     sfc_debug:sfdb_call_stack.obj
 0004:00003a50       $pdata$0$sf_debug_tm_terminate 000000018009fa50     sfc_debug:sfdb_call_stack.obj
 0004:00003a5c       $pdata$1$sf_debug_tm_terminate 000000018009fa5c     sfc_debug:sfdb_call_stack.obj
 0004:00003a68       $pdata$2$sf_debug_tm_terminate 000000018009fa68     sfc_debug:sfdb_call_stack.obj
 0004:00003a74       $pdata$3$sf_debug_tm_terminate 000000018009fa74     sfc_debug:sfdb_call_stack.obj
 0004:00003a80       $pdata$sf_debug_tm_push_chart_instance 000000018009fa80     sfc_debug:sfdb_call_stack.obj
 0004:00003a8c       $pdata$1$sf_debug_tm_push_chart_instance 000000018009fa8c     sfc_debug:sfdb_call_stack.obj
 0004:00003a98       $pdata$2$sf_debug_tm_push_chart_instance 000000018009fa98     sfc_debug:sfdb_call_stack.obj
 0004:00003aa4       $pdata$sf_debug_tm_push_trace_node 000000018009faa4     sfc_debug:sfdb_call_stack.obj
 0004:00003ab0       $pdata$0$sf_debug_tm_push_trace_node 000000018009fab0     sfc_debug:sfdb_call_stack.obj
 0004:00003abc       $pdata$7$sf_debug_tm_push_trace_node 000000018009fabc     sfc_debug:sfdb_call_stack.obj
 0004:00003ac8       $pdata$8$sf_debug_tm_push_trace_node 000000018009fac8     sfc_debug:sfdb_call_stack.obj
 0004:00003ad4       $pdata$sf_debug_tm_fill_local_trace 000000018009fad4     sfc_debug:sfdb_call_stack.obj
 0004:00003ae0       $pdata$1$sf_debug_tm_fill_local_trace 000000018009fae0     sfc_debug:sfdb_call_stack.obj
 0004:00003aec       $pdata$2$sf_debug_tm_fill_local_trace 000000018009faec     sfc_debug:sfdb_call_stack.obj
 0004:00003af8       $pdata$sf_debug_tm_browse_trace 000000018009faf8     sfc_debug:sfdb_call_stack.obj
 0004:00003b04       $pdata$4$sf_debug_tm_browse_trace 000000018009fb04     sfc_debug:sfdb_call_stack.obj
 0004:00003b10       $pdata$5$sf_debug_tm_browse_trace 000000018009fb10     sfc_debug:sfdb_call_stack.obj
 0004:00003b1c       $pdata$sf_debug_cd_initialize_instance 000000018009fb1c     sfc_debug:sfdb_cycle_detection.obj
 0004:00003b28       $pdata$sf_debug_cd_terminate_instance 000000018009fb28     sfc_debug:sfdb_cycle_detection.obj
 0004:00003b34       $pdata$sf_debug_cd_free_checksum_stack 000000018009fb34     sfc_debug:sfdb_cycle_detection.obj
 0004:00003b40       $pdata$0$sf_debug_cd_free_checksum_stack 000000018009fb40     sfc_debug:sfdb_cycle_detection.obj
 0004:00003b4c       $pdata$1$sf_debug_cd_free_checksum_stack 000000018009fb4c     sfc_debug:sfdb_cycle_detection.obj
 0004:00003b58       $pdata$sf_debug_cd_reset_pack_strings 000000018009fb58     sfc_debug:sfdb_cycle_detection.obj
 0004:00003b64       $pdata$6$sf_debug_cd_reset_pack_strings 000000018009fb64     sfc_debug:sfdb_cycle_detection.obj
 0004:00003b70       $pdata$7$sf_debug_cd_reset_pack_strings 000000018009fb70     sfc_debug:sfdb_cycle_detection.obj
 0004:00003b7c       $pdata$sf_debug_cd_mark_processed_transition_in_instance 000000018009fb7c     sfc_debug:sfdb_cycle_detection.obj
 0004:00003b88       $pdata$sf_debug_cd_checksum_push 000000018009fb88     sfc_debug:sfdb_cycle_detection.obj
 0004:00003b94       $pdata$4$sf_debug_cd_checksum_push 000000018009fb94     sfc_debug:sfdb_cycle_detection.obj
 0004:00003ba0       $pdata$5$sf_debug_cd_checksum_push 000000018009fba0     sfc_debug:sfdb_cycle_detection.obj
 0004:00003bac       $pdata$sf_debug_cd_checksum_pop 000000018009fbac     sfc_debug:sfdb_cycle_detection.obj
 0004:00003bb8       $pdata$0$sf_debug_cd_checksum_pop 000000018009fbb8     sfc_debug:sfdb_cycle_detection.obj
 0004:00003bc4       $pdata$1$sf_debug_cd_checksum_pop 000000018009fbc4     sfc_debug:sfdb_cycle_detection.obj
 0004:00003bd0       $pdata$sf_debug_cd_turn_off_cycle_detection 000000018009fbd0     sfc_debug:sfdb_cycle_detection.obj
 0004:00003bdc       $pdata$0$sf_debug_cd_turn_off_cycle_detection 000000018009fbdc     sfc_debug:sfdb_cycle_detection.obj
 0004:00003be8       $pdata$1$sf_debug_cd_turn_off_cycle_detection 000000018009fbe8     sfc_debug:sfdb_cycle_detection.obj
 0004:00003bf4       $pdata$sf_debug_cd_terminate 000000018009fbf4     sfc_debug:sfdb_cycle_detection.obj
 0004:00003c00       $pdata$5$sf_debug_cd_terminate 000000018009fc00     sfc_debug:sfdb_cycle_detection.obj
 0004:00003c0c       $pdata$6$sf_debug_cd_terminate 000000018009fc0c     sfc_debug:sfdb_cycle_detection.obj
 0004:00003c18       $pdata$MD5Transform        000000018009fc18     sfc_debug:ckmd5.obj
 0004:00003c24       $pdata$md5file_addn        000000018009fc24     sfc_debug:ckmd5.obj
 0004:00003c30       $pdata$md5file_hash        000000018009fc30     sfc_debug:ckmd5.obj
 0004:00003c3c       $pdata$md5_get_hash        000000018009fc3c     sfc_debug:ckmd5.obj
 0004:00003c48       $pdata$md5_get_hash_for_a_single_string 000000018009fc48     sfc_debug:ckmd5.obj
 0004:00003c54       $pdata$__GSHandlerCheck    000000018009fc54     MSVCRT:gshandler.obj
 0004:00003c60       $pdata$__GSHandlerCheckCommon 000000018009fc60     MSVCRT:gshandler.obj
 0004:00003c84       $pdata$__raise_securityfailure 000000018009fc84     MSVCRT:gs_report.obj
 0004:00003c90       $pdata$__report_gsfailure  000000018009fc90     MSVCRT:gs_report.obj
 0004:00003c9c       $pdata$__report_rangecheckfailure 000000018009fc9c     MSVCRT:gs_report.obj
 0004:00003ca8       $pdata$__report_securityfailure 000000018009fca8     MSVCRT:gs_report.obj
 0004:00003cb4       $pdata$__report_securityfailureEx 000000018009fcb4     MSVCRT:gs_report.obj
 0004:00003cc0       $pdata$pre_c_init          000000018009fcc0     MSVCRT:crtdll.obj
 0004:00003ccc       $pdata$_CRT_INIT           000000018009fccc     MSVCRT:crtdll.obj
 0004:00003cd8       $pdata$_DllMainCRTStartup  000000018009fcd8     MSVCRT:crtdll.obj
 0004:00003ce4       $pdata$__DllMainCRTStartup 000000018009fce4     MSVCRT:crtdll.obj
 0004:00003cf0       $pdata$_IsNonwritableInCurrentImage 000000018009fcf0     MSVCRT:pesect.obj
 0004:00003cfc       $pdata$__atonexitinit      000000018009fcfc     MSVCRT:atonexit.obj
 0004:00003d08       $pdata$_onexit             000000018009fd08     MSVCRT:atonexit.obj
 0004:00003d14       $pdata$atexit              000000018009fd14     MSVCRT:atonexit.obj
 0004:00003d20       $pdata$__security_init_cookie 000000018009fd20     MSVCRT:gs_support.obj
 0004:00003d2c       $pdata$DllMain             000000018009fd2c     MSVCRT:dllmain.obj
 0004:00003d38       $pdata$_RTC_Initialize     000000018009fd38     MSVCRT:initsect.obj
 0004:00003d44       $pdata$_RTC_Terminate      000000018009fd44     MSVCRT:initsect.obj
 0004:00003d50       $pdata$__DllMainCRTStartup$filt$0 000000018009fd50     MSVCRT:crtdll.obj
 0004:00003d5c       $pdata$__DllMainCRTStartup$fin$1 000000018009fd5c     MSVCRT:crtdll.obj
 0004:00003d68       $pdata$_IsNonwritableInCurrentImage$filt$0 000000018009fd68     MSVCRT:pesect.obj
 0004:00003d74       $pdata$_onexit$fin$0       000000018009fd74     MSVCRT:atonexit.obj
